
kernel.o:     file format elf32-i386


Disassembly of section .text:

00000000 <sys_alarm>:
       0:	53                   	push   %ebx
       1:	e8 fc ff ff ff       	call   2 <sys_alarm+0x2>
       6:	81 c2 02 00 00 00    	add    $0x2,%edx
       c:	8b 44 24 08          	mov    0x8(%esp),%eax
      10:	85 c0                	test   %eax,%eax
      12:	7e 1d                	jle    31 <sys_alarm+0x31>
      14:	8b 9a 00 00 00 00    	mov    0x0(%edx),%ebx
      1a:	8d 0c 80             	lea    (%eax,%eax,4),%ecx
      1d:	8d 0c 89             	lea    (%ecx,%ecx,4),%ecx
      20:	8d 0c 8b             	lea    (%ebx,%ecx,4),%ecx
      23:	8b 92 00 00 00 00    	mov    0x0(%edx),%edx
      29:	89 8a c8 00 00 00    	mov    %ecx,0xc8(%edx)
      2f:	5b                   	pop    %ebx
      30:	c3                   	ret    
      31:	b9 00 00 00 00       	mov    $0x0,%ecx
      36:	eb eb                	jmp    23 <sys_alarm+0x23>

00000038 <sys_getpid>:
      38:	e8 fc ff ff ff       	call   39 <sys_getpid+0x1>
      3d:	05 01 00 00 00       	add    $0x1,%eax
      42:	8b 80 00 00 00 00    	mov    0x0(%eax),%eax
      48:	8b 80 a8 00 00 00    	mov    0xa8(%eax),%eax
      4e:	c3                   	ret    

0000004f <sys_getppid>:
      4f:	e8 fc ff ff ff       	call   50 <sys_getppid+0x1>
      54:	05 01 00 00 00       	add    $0x1,%eax
      59:	8b 80 00 00 00 00    	mov    0x0(%eax),%eax
      5f:	8b 80 ac 00 00 00    	mov    0xac(%eax),%eax
      65:	c3                   	ret    

00000066 <sys_getuid>:
      66:	e8 fc ff ff ff       	call   67 <sys_getuid+0x1>
      6b:	05 01 00 00 00       	add    $0x1,%eax
      70:	8b 80 00 00 00 00    	mov    0x0(%eax),%eax
      76:	0f b7 80 bc 00 00 00 	movzwl 0xbc(%eax),%eax
      7d:	c3                   	ret    

0000007e <sys_geteuid>:
      7e:	e8 fc ff ff ff       	call   7f <sys_geteuid+0x1>
      83:	05 01 00 00 00       	add    $0x1,%eax
      88:	8b 80 00 00 00 00    	mov    0x0(%eax),%eax
      8e:	0f b7 80 be 00 00 00 	movzwl 0xbe(%eax),%eax
      95:	c3                   	ret    

00000096 <sys_getgid>:
      96:	e8 fc ff ff ff       	call   97 <sys_getgid+0x1>
      9b:	05 01 00 00 00       	add    $0x1,%eax
      a0:	8b 80 00 00 00 00    	mov    0x0(%eax),%eax
      a6:	0f b7 80 c2 00 00 00 	movzwl 0xc2(%eax),%eax
      ad:	c3                   	ret    

000000ae <sys_getegid>:
      ae:	e8 fc ff ff ff       	call   af <sys_getegid+0x1>
      b3:	05 01 00 00 00       	add    $0x1,%eax
      b8:	8b 80 00 00 00 00    	mov    0x0(%eax),%eax
      be:	0f b7 80 c4 00 00 00 	movzwl 0xc4(%eax),%eax
      c5:	c3                   	ret    

000000c6 <sys_nice>:
      c6:	e8 fc ff ff ff       	call   c7 <sys_nice+0x1>
      cb:	05 01 00 00 00       	add    $0x1,%eax
      d0:	8b 90 00 00 00 00    	mov    0x0(%eax),%edx
      d6:	8b 42 08             	mov    0x8(%edx),%eax
      d9:	2b 44 24 04          	sub    0x4(%esp),%eax
      dd:	85 c0                	test   %eax,%eax
      df:	7e 03                	jle    e4 <sys_nice+0x1e>
      e1:	89 42 08             	mov    %eax,0x8(%edx)
      e4:	b8 00 00 00 00       	mov    $0x0,%eax
      e9:	c3                   	ret    

000000ea <sys_signal>:
      ea:	53                   	push   %ebx
      eb:	e8 fc ff ff ff       	call   ec <sys_signal+0x2>
      f0:	81 c2 02 00 00 00    	add    $0x2,%edx
      f6:	8b 44 24 08          	mov    0x8(%esp),%eax
      fa:	83 f8 11             	cmp    $0x11,%eax
      fd:	77 27                	ja     126 <.L17>
      ff:	89 d1                	mov    %edx,%ecx
     101:	03 8c 82 00 00 00 00 	add    0x0(%edx,%eax,4),%ecx
     108:	ff e1                	jmp    *%ecx

0000010a <.L15>:
     10a:	8b 92 00 00 00 00    	mov    0x0(%edx),%edx
     110:	8d 0c 82             	lea    (%edx,%eax,4),%ecx
     113:	8b 41 10             	mov    0x10(%ecx),%eax
     116:	8b 5c 24 0c          	mov    0xc(%esp),%ebx
     11a:	89 59 10             	mov    %ebx,0x10(%ecx)
     11d:	8b 4c 24 10          	mov    0x10(%esp),%ecx
     121:	89 4a 10             	mov    %ecx,0x10(%edx)
     124:	5b                   	pop    %ebx
     125:	c3                   	ret    

00000126 <.L17>:
     126:	b8 ff ff ff ff       	mov    $0xffffffff,%eax
     12b:	eb f7                	jmp    124 <.L15+0x1a>

0000012d <math_state_restore>:
     12d:	e8 fc ff ff ff       	call   12e <math_state_restore+0x1>
     132:	05 01 00 00 00       	add    $0x1,%eax
     137:	8b 90 00 00 00 00    	mov    0x0(%eax),%edx
     13d:	85 d2                	test   %edx,%edx
     13f:	74 06                	je     147 <math_state_restore+0x1a>
     141:	dd b2 c8 01 00 00    	fnsave 0x1c8(%edx)
     147:	8b 90 00 00 00 00    	mov    0x0(%eax),%edx
     14d:	66 83 ba e0 00 00 00 	cmpw   $0x0,0xe0(%edx)
     154:	00 
     155:	75 12                	jne    169 <math_state_restore+0x3c>
     157:	db e3                	fninit 
     159:	66 c7 82 e0 00 00 00 	movw   $0x1,0xe0(%edx)
     160:	01 00 
     162:	89 90 00 00 00 00    	mov    %edx,0x0(%eax)
     168:	c3                   	ret    
     169:	dd a2 c8 01 00 00    	frstor 0x1c8(%edx)
     16f:	eb f1                	jmp    162 <math_state_restore+0x35>

00000171 <schedule>:
     171:	55                   	push   %ebp
     172:	57                   	push   %edi
     173:	56                   	push   %esi
     174:	53                   	push   %ebx
     175:	83 ec 1c             	sub    $0x1c,%esp
     178:	e8 fc ff ff ff       	call   179 <schedule+0x8>
     17d:	81 c3 02 00 00 00    	add    $0x2,%ebx
     183:	65 a1 14 00 00 00    	mov    %gs:0x14,%eax
     189:	89 44 24 0c          	mov    %eax,0xc(%esp)
     18d:	31 c0                	xor    %eax,%eax
     18f:	8d 83 fc 00 00 00    	lea    0xfc(%ebx),%eax
     195:	8d b3 00 00 00 00    	lea    0x0(%ebx),%esi
     19b:	eb 14                	jmp    1b1 <schedule+0x40>
     19d:	8b 10                	mov    (%eax),%edx
     19f:	83 7a 0c 00          	cmpl   $0x0,0xc(%edx)
     1a3:	74 05                	je     1aa <schedule+0x39>
     1a5:	83 3a 01             	cmpl   $0x1,(%edx)
     1a8:	74 36                	je     1e0 <schedule+0x6f>
     1aa:	83 e8 04             	sub    $0x4,%eax
     1ad:	39 f0                	cmp    %esi,%eax
     1af:	76 37                	jbe    1e8 <schedule+0x77>
     1b1:	8b 10                	mov    (%eax),%edx
     1b3:	85 d2                	test   %edx,%edx
     1b5:	74 f3                	je     1aa <schedule+0x39>
     1b7:	8b 8a c8 00 00 00    	mov    0xc8(%edx),%ecx
     1bd:	85 c9                	test   %ecx,%ecx
     1bf:	74 dc                	je     19d <schedule+0x2c>
     1c1:	8b bb 00 00 00 00    	mov    0x0(%ebx),%edi
     1c7:	39 f9                	cmp    %edi,%ecx
     1c9:	7d d2                	jge    19d <schedule+0x2c>
     1cb:	81 4a 0c 00 20 00 00 	orl    $0x2000,0xc(%edx)
     1d2:	8b 10                	mov    (%eax),%edx
     1d4:	c7 82 c8 00 00 00 00 	movl   $0x0,0xc8(%edx)
     1db:	00 00 00 
     1de:	eb bd                	jmp    19d <schedule+0x2c>
     1e0:	c7 02 00 00 00 00    	movl   $0x0,(%edx)
     1e6:	eb c2                	jmp    1aa <schedule+0x39>
     1e8:	bf ff ff ff ff       	mov    $0xffffffff,%edi
     1ed:	be 00 00 00 00       	mov    $0x0,%esi
     1f2:	b8 3f 00 00 00       	mov    $0x3f,%eax
     1f7:	89 f9                	mov    %edi,%ecx
     1f9:	89 f5                	mov    %esi,%ebp
     1fb:	eb 03                	jmp    200 <schedule+0x8f>
     1fd:	48                   	dec    %eax
     1fe:	74 1d                	je     21d <schedule+0xac>
     200:	8b 94 83 00 00 00 00 	mov    0x0(%ebx,%eax,4),%edx
     207:	85 d2                	test   %edx,%edx
     209:	74 f2                	je     1fd <schedule+0x8c>
     20b:	83 3a 00             	cmpl   $0x0,(%edx)
     20e:	75 ed                	jne    1fd <schedule+0x8c>
     210:	8b 52 04             	mov    0x4(%edx),%edx
     213:	39 ca                	cmp    %ecx,%edx
     215:	7e e6                	jle    1fd <schedule+0x8c>
     217:	89 d1                	mov    %edx,%ecx
     219:	89 c5                	mov    %eax,%ebp
     21b:	eb e0                	jmp    1fd <schedule+0x8c>
     21d:	85 c9                	test   %ecx,%ecx
     21f:	75 28                	jne    249 <schedule+0xd8>
     221:	8d 8b fc 00 00 00    	lea    0xfc(%ebx),%ecx
     227:	8d ab 00 00 00 00    	lea    0x0(%ebx),%ebp
     22d:	eb 07                	jmp    236 <schedule+0xc5>
     22f:	83 e9 04             	sub    $0x4,%ecx
     232:	39 e9                	cmp    %ebp,%ecx
     234:	76 bc                	jbe    1f2 <schedule+0x81>
     236:	8b 11                	mov    (%ecx),%edx
     238:	85 d2                	test   %edx,%edx
     23a:	74 f3                	je     22f <schedule+0xbe>
     23c:	8b 42 04             	mov    0x4(%edx),%eax
     23f:	d1 f8                	sar    %eax
     241:	03 42 08             	add    0x8(%edx),%eax
     244:	89 42 04             	mov    %eax,0x4(%edx)
     247:	eb e6                	jmp    22f <schedule+0xbe>
     249:	89 ea                	mov    %ebp,%edx
     24b:	c1 e2 04             	shl    $0x4,%edx
     24e:	83 c2 20             	add    $0x20,%edx
     251:	8b 8c ab 00 00 00 00 	mov    0x0(%ebx,%ebp,4),%ecx
     258:	39 0d 00 00 00 00    	cmp    %ecx,0x0
     25e:	74 19                	je     279 <schedule+0x108>
     260:	87 0d 00 00 00 00    	xchg   %ecx,0x0
     266:	66 89 54 24 08       	mov    %dx,0x8(%esp)
     26b:	ff 6c 24 04          	ljmp   *0x4(%esp)
     26f:	39 8b 00 00 00 00    	cmp    %ecx,0x0(%ebx)
     275:	75 02                	jne    279 <schedule+0x108>
     277:	0f 06                	clts   
     279:	8b 44 24 0c          	mov    0xc(%esp),%eax
     27d:	65 33 05 14 00 00 00 	xor    %gs:0x14,%eax
     284:	75 08                	jne    28e <schedule+0x11d>
     286:	83 c4 1c             	add    $0x1c,%esp
     289:	5b                   	pop    %ebx
     28a:	5e                   	pop    %esi
     28b:	5f                   	pop    %edi
     28c:	5d                   	pop    %ebp
     28d:	c3                   	ret    
     28e:	e8 fc ff ff ff       	call   28f <schedule+0x11e>

00000293 <sys_pause>:
     293:	83 ec 0c             	sub    $0xc,%esp
     296:	e8 fc ff ff ff       	call   297 <sys_pause+0x4>
     29b:	05 01 00 00 00       	add    $0x1,%eax
     2a0:	8b 80 00 00 00 00    	mov    0x0(%eax),%eax
     2a6:	c7 00 01 00 00 00    	movl   $0x1,(%eax)
     2ac:	e8 fc ff ff ff       	call   2ad <sys_pause+0x1a>
     2b1:	b8 00 00 00 00       	mov    $0x0,%eax
     2b6:	83 c4 0c             	add    $0xc,%esp
     2b9:	c3                   	ret    

000002ba <sleep_on>:
     2ba:	57                   	push   %edi
     2bb:	56                   	push   %esi
     2bc:	53                   	push   %ebx
     2bd:	e8 fc ff ff ff       	call   2be <sleep_on+0x4>
     2c2:	81 c3 02 00 00 00    	add    $0x2,%ebx
     2c8:	8b 74 24 10          	mov    0x10(%esp),%esi
     2cc:	85 f6                	test   %esi,%esi
     2ce:	74 33                	je     303 <sleep_on+0x49>
     2d0:	8d 83 20 00 00 00    	lea    0x20(%ebx),%eax
     2d6:	39 83 00 00 00 00    	cmp    %eax,0x0(%ebx)
     2dc:	74 29                	je     307 <sleep_on+0x4d>
     2de:	8b 3e                	mov    (%esi),%edi
     2e0:	8b 83 00 00 00 00    	mov    0x0(%ebx),%eax
     2e6:	89 06                	mov    %eax,(%esi)
     2e8:	8b 83 00 00 00 00    	mov    0x0(%ebx),%eax
     2ee:	c7 00 02 00 00 00    	movl   $0x2,(%eax)
     2f4:	e8 fc ff ff ff       	call   2f5 <sleep_on+0x3b>
     2f9:	85 ff                	test   %edi,%edi
     2fb:	74 06                	je     303 <sleep_on+0x49>
     2fd:	c7 07 00 00 00 00    	movl   $0x0,(%edi)
     303:	5b                   	pop    %ebx
     304:	5e                   	pop    %esi
     305:	5f                   	pop    %edi
     306:	c3                   	ret    
     307:	83 ec 0c             	sub    $0xc,%esp
     30a:	8d 83 00 00 00 00    	lea    0x0(%ebx),%eax
     310:	50                   	push   %eax
     311:	e8 fc ff ff ff       	call   312 <sleep_on+0x58>
     316:	83 c4 10             	add    $0x10,%esp
     319:	eb c3                	jmp    2de <sleep_on+0x24>

0000031b <interruptible_sleep_on>:
     31b:	57                   	push   %edi
     31c:	56                   	push   %esi
     31d:	53                   	push   %ebx
     31e:	e8 fc ff ff ff       	call   31f <interruptible_sleep_on+0x4>
     323:	81 c3 02 00 00 00    	add    $0x2,%ebx
     329:	8b 74 24 10          	mov    0x10(%esp),%esi
     32d:	85 f6                	test   %esi,%esi
     32f:	74 63                	je     394 <interruptible_sleep_on+0x79>
     331:	8d 83 20 00 00 00    	lea    0x20(%ebx),%eax
     337:	39 83 00 00 00 00    	cmp    %eax,0x0(%ebx)
     33d:	74 31                	je     370 <interruptible_sleep_on+0x55>
     33f:	8b 3e                	mov    (%esi),%edi
     341:	8b 83 00 00 00 00    	mov    0x0(%ebx),%eax
     347:	89 06                	mov    %eax,(%esi)
     349:	8b 83 00 00 00 00    	mov    0x0(%ebx),%eax
     34f:	c7 00 01 00 00 00    	movl   $0x1,(%eax)
     355:	e8 fc ff ff ff       	call   356 <interruptible_sleep_on+0x3b>
     35a:	8b 06                	mov    (%esi),%eax
     35c:	85 c0                	test   %eax,%eax
     35e:	74 24                	je     384 <interruptible_sleep_on+0x69>
     360:	3b 83 00 00 00 00    	cmp    0x0(%ebx),%eax
     366:	74 1c                	je     384 <interruptible_sleep_on+0x69>
     368:	c7 00 00 00 00 00    	movl   $0x0,(%eax)
     36e:	eb d9                	jmp    349 <interruptible_sleep_on+0x2e>
     370:	83 ec 0c             	sub    $0xc,%esp
     373:	8d 83 00 00 00 00    	lea    0x0(%ebx),%eax
     379:	50                   	push   %eax
     37a:	e8 fc ff ff ff       	call   37b <interruptible_sleep_on+0x60>
     37f:	83 c4 10             	add    $0x10,%esp
     382:	eb bb                	jmp    33f <interruptible_sleep_on+0x24>
     384:	c7 06 00 00 00 00    	movl   $0x0,(%esi)
     38a:	85 ff                	test   %edi,%edi
     38c:	74 06                	je     394 <interruptible_sleep_on+0x79>
     38e:	c7 07 00 00 00 00    	movl   $0x0,(%edi)
     394:	5b                   	pop    %ebx
     395:	5e                   	pop    %esi
     396:	5f                   	pop    %edi
     397:	c3                   	ret    

00000398 <wake_up>:
     398:	8b 44 24 04          	mov    0x4(%esp),%eax
     39c:	85 c0                	test   %eax,%eax
     39e:	74 12                	je     3b2 <wake_up+0x1a>
     3a0:	8b 10                	mov    (%eax),%edx
     3a2:	85 d2                	test   %edx,%edx
     3a4:	74 0c                	je     3b2 <wake_up+0x1a>
     3a6:	c7 02 00 00 00 00    	movl   $0x0,(%edx)
     3ac:	c7 00 00 00 00 00    	movl   $0x0,(%eax)
     3b2:	c3                   	ret    

000003b3 <do_timer>:
     3b3:	83 ec 0c             	sub    $0xc,%esp
     3b6:	e8 fc ff ff ff       	call   3b7 <do_timer+0x4>
     3bb:	05 01 00 00 00       	add    $0x1,%eax
     3c0:	83 7c 24 10 00       	cmpl   $0x0,0x10(%esp)
     3c5:	74 1d                	je     3e4 <do_timer+0x31>
     3c7:	8b 80 00 00 00 00    	mov    0x0(%eax),%eax
     3cd:	ff 80 cc 00 00 00    	incl   0xcc(%eax)
     3d3:	8b 48 04             	mov    0x4(%eax),%ecx
     3d6:	8d 51 ff             	lea    -0x1(%ecx),%edx
     3d9:	85 d2                	test   %edx,%edx
     3db:	7e 2b                	jle    408 <do_timer+0x55>
     3dd:	89 50 04             	mov    %edx,0x4(%eax)
     3e0:	83 c4 0c             	add    $0xc,%esp
     3e3:	c3                   	ret    
     3e4:	8b 80 00 00 00 00    	mov    0x0(%eax),%eax
     3ea:	ff 80 d0 00 00 00    	incl   0xd0(%eax)
     3f0:	8b 48 04             	mov    0x4(%eax),%ecx
     3f3:	8d 51 ff             	lea    -0x1(%ecx),%edx
     3f6:	85 d2                	test   %edx,%edx
     3f8:	7f 09                	jg     403 <do_timer+0x50>
     3fa:	c7 40 04 00 00 00 00 	movl   $0x0,0x4(%eax)
     401:	eb dd                	jmp    3e0 <do_timer+0x2d>
     403:	89 50 04             	mov    %edx,0x4(%eax)
     406:	eb d8                	jmp    3e0 <do_timer+0x2d>
     408:	c7 40 04 00 00 00 00 	movl   $0x0,0x4(%eax)
     40f:	e8 fc ff ff ff       	call   410 <do_timer+0x5d>
     414:	eb ca                	jmp    3e0 <do_timer+0x2d>

00000416 <sched_init>:
     416:	56                   	push   %esi
     417:	53                   	push   %ebx
     418:	e8 fc ff ff ff       	call   419 <sched_init+0x3>
     41d:	81 c3 02 00 00 00    	add    $0x2,%ebx
     423:	8b 8b 00 00 00 00    	mov    0x0(%ebx),%ecx
     429:	8d 83 80 01 00 00    	lea    0x180(%ebx),%eax
     42f:	66 c7 41 20 68 00    	movw   $0x68,0x20(%ecx)
     435:	66 89 41 22          	mov    %ax,0x22(%ecx)
     439:	c1 c8 10             	ror    $0x10,%eax
     43c:	88 41 24             	mov    %al,0x24(%ecx)
     43f:	c6 41 25 89          	movb   $0x89,0x25(%ecx)
     443:	c6 41 26 00          	movb   $0x0,0x26(%ecx)
     447:	88 61 27             	mov    %ah,0x27(%ecx)
     44a:	c1 c8 10             	ror    $0x10,%eax
     44d:	8d 83 68 01 00 00    	lea    0x168(%ebx),%eax
     453:	66 c7 41 28 68 00    	movw   $0x68,0x28(%ecx)
     459:	66 89 41 2a          	mov    %ax,0x2a(%ecx)
     45d:	c1 c8 10             	ror    $0x10,%eax
     460:	88 41 2c             	mov    %al,0x2c(%ecx)
     463:	c6 41 2d 82          	movb   $0x82,0x2d(%ecx)
     467:	c6 41 2e 00          	movb   $0x0,0x2e(%ecx)
     46b:	88 61 2f             	mov    %ah,0x2f(%ecx)
     46e:	c1 c8 10             	ror    $0x10,%eax
     471:	8d 93 04 00 00 00    	lea    0x4(%ebx),%edx
     477:	8d 41 30             	lea    0x30(%ecx),%eax
     47a:	8d 89 20 04 00 00    	lea    0x420(%ecx),%ecx
     480:	c7 02 00 00 00 00    	movl   $0x0,(%edx)
     486:	c7 40 04 00 00 00 00 	movl   $0x0,0x4(%eax)
     48d:	c7 00 00 00 00 00    	movl   $0x0,(%eax)
     493:	c7 40 0c 00 00 00 00 	movl   $0x0,0xc(%eax)
     49a:	c7 40 08 00 00 00 00 	movl   $0x0,0x8(%eax)
     4a1:	83 c0 10             	add    $0x10,%eax
     4a4:	83 c2 04             	add    $0x4,%edx
     4a7:	39 c8                	cmp    %ecx,%eax
     4a9:	75 d5                	jne    480 <sched_init+0x6a>
     4ab:	b8 20 00 00 00       	mov    $0x20,%eax
     4b0:	0f 00 d8             	ltr    %ax
     4b3:	b8 28 00 00 00       	mov    $0x28,%eax
     4b8:	0f 00 d0             	lldt   %ax
     4bb:	b8 36 00 00 00       	mov    $0x36,%eax
     4c0:	ba 43 00 00 00       	mov    $0x43,%edx
     4c5:	ee                   	out    %al,(%dx)
     4c6:	eb 00                	jmp    4c8 <sched_init+0xb2>
     4c8:	eb 00                	jmp    4ca <sched_init+0xb4>
     4ca:	ba 40 00 00 00       	mov    $0x40,%edx
     4cf:	b8 9b 00 00 00       	mov    $0x9b,%eax
     4d4:	ee                   	out    %al,(%dx)
     4d5:	eb 00                	jmp    4d7 <sched_init+0xc1>
     4d7:	eb 00                	jmp    4d9 <sched_init+0xc3>
     4d9:	b8 2e 00 00 00       	mov    $0x2e,%eax
     4de:	ee                   	out    %al,(%dx)
     4df:	8b 8b 00 00 00 00    	mov    0x0(%ebx),%ecx
     4e5:	be 00 00 08 00       	mov    $0x80000,%esi
     4ea:	8b 93 00 00 00 00    	mov    0x0(%ebx),%edx
     4f0:	89 f0                	mov    %esi,%eax
     4f2:	66 89 d0             	mov    %dx,%ax
     4f5:	66 ba 00 8e          	mov    $0x8e00,%dx
     4f9:	89 81 00 01 00 00    	mov    %eax,0x100(%ecx)
     4ff:	89 91 04 01 00 00    	mov    %edx,0x104(%ecx)
     505:	ba 21 00 00 00       	mov    $0x21,%edx
     50a:	ec                   	in     (%dx),%al
     50b:	eb 00                	jmp    50d <sched_init+0xf7>
     50d:	eb 00                	jmp    50f <sched_init+0xf9>
     50f:	25 fe 00 00 00       	and    $0xfe,%eax
     514:	ee                   	out    %al,(%dx)
     515:	8b 93 00 00 00 00    	mov    0x0(%ebx),%edx
     51b:	89 f0                	mov    %esi,%eax
     51d:	66 89 d0             	mov    %dx,%ax
     520:	66 ba 00 ef          	mov    $0xef00,%dx
     524:	89 81 00 04 00 00    	mov    %eax,0x400(%ecx)
     52a:	89 91 04 04 00 00    	mov    %edx,0x404(%ecx)
     530:	5b                   	pop    %ebx
     531:	5e                   	pop    %esi
     532:	c3                   	ret    
     533:	90                   	nop

00000534 <bad_sys_call>:
     534:	b8 ff ff ff ff       	mov    $0xffffffff,%eax
     539:	cf                   	iret   

0000053a <reschedule>:
     53a:	68 78 05 00 00       	push   $0x578
     53f:	e9 fc ff ff ff       	jmp    540 <reschedule+0x6>

00000544 <system_call>:
     544:	83 f8 42             	cmp    $0x42,%eax
     547:	77 eb                	ja     534 <bad_sys_call>
     549:	1e                   	push   %ds
     54a:	06                   	push   %es
     54b:	0f a0                	push   %fs
     54d:	52                   	push   %edx
     54e:	51                   	push   %ecx
     54f:	53                   	push   %ebx
     550:	ba 10 00 00 00       	mov    $0x10,%edx
     555:	8e da                	mov    %edx,%ds
     557:	8e c2                	mov    %edx,%es
     559:	ba 17 00 00 00       	mov    $0x17,%edx
     55e:	8e e2                	mov    %edx,%fs
     560:	ff 14 85 00 00 00 00 	call   *0x0(,%eax,4)
     567:	50                   	push   %eax
     568:	a1 00 00 00 00       	mov    0x0,%eax
     56d:	83 38 00             	cmpl   $0x0,(%eax)
     570:	75 c8                	jne    53a <reschedule>
     572:	83 78 04 00          	cmpl   $0x0,0x4(%eax)
     576:	74 c2                	je     53a <reschedule>

00000578 <ret_from_sys_call>:
     578:	a1 00 00 00 00       	mov    0x0,%eax
     57d:	3b 05 00 00 00 00    	cmp    0x0,%eax
     583:	0f 84 80 00 00 00    	je     609 <ret_from_sys_call+0x91>
     589:	8b 5c 24 20          	mov    0x20(%esp),%ebx
     58d:	f7 c3 03 00 00 00    	test   $0x3,%ebx
     593:	74 74                	je     609 <ret_from_sys_call+0x91>
     595:	66 83 7c 24 2c 17    	cmpw   $0x17,0x2c(%esp)
     59b:	75 6c                	jne    609 <ret_from_sys_call+0x91>
     59d:	8b 58 0c             	mov    0xc(%eax),%ebx
     5a0:	0f bc cb             	bsf    %ebx,%ecx
     5a3:	74 64                	je     609 <ret_from_sys_call+0x91>
     5a5:	0f b3 cb             	btr    %ecx,%ebx
     5a8:	89 58 0c             	mov    %ebx,0xc(%eax)
     5ab:	8b 5c 88 14          	mov    0x14(%eax,%ecx,4),%ebx
     5af:	83 fb 01             	cmp    $0x1,%ebx
     5b2:	72 5e                	jb     612 <default_signal>
     5b4:	74 e7                	je     59d <ret_from_sys_call+0x25>
     5b6:	c7 44 88 14 00 00 00 	movl   $0x0,0x14(%eax,%ecx,4)
     5bd:	00 
     5be:	41                   	inc    %ecx
     5bf:	87 5c 24 1c          	xchg   %ebx,0x1c(%esp)
     5c3:	83 6c 24 28 1c       	subl   $0x1c,0x28(%esp)
     5c8:	8b 54 24 28          	mov    0x28(%esp),%edx
     5cc:	50                   	push   %eax
     5cd:	51                   	push   %ecx
     5ce:	6a 1c                	push   $0x1c
     5d0:	52                   	push   %edx
     5d1:	e8 fc ff ff ff       	call   5d2 <ret_from_sys_call+0x5a>
     5d6:	5a                   	pop    %edx
     5d7:	83 c4 04             	add    $0x4,%esp
     5da:	59                   	pop    %ecx
     5db:	58                   	pop    %eax
     5dc:	8b 40 10             	mov    0x10(%eax),%eax
     5df:	64 89 02             	mov    %eax,%fs:(%edx)
     5e2:	64 89 4a 04          	mov    %ecx,%fs:0x4(%edx)
     5e6:	8b 04 24             	mov    (%esp),%eax
     5e9:	64 89 42 08          	mov    %eax,%fs:0x8(%edx)
     5ed:	8b 44 24 08          	mov    0x8(%esp),%eax
     5f1:	64 89 42 0c          	mov    %eax,%fs:0xc(%edx)
     5f5:	8b 44 24 0c          	mov    0xc(%esp),%eax
     5f9:	64 89 42 10          	mov    %eax,%fs:0x10(%edx)
     5fd:	8b 44 24 24          	mov    0x24(%esp),%eax
     601:	64 89 42 14          	mov    %eax,%fs:0x14(%edx)
     605:	64 89 5a 18          	mov    %ebx,%fs:0x18(%edx)
     609:	58                   	pop    %eax
     60a:	5b                   	pop    %ebx
     60b:	59                   	pop    %ecx
     60c:	5a                   	pop    %edx
     60d:	0f a1                	pop    %fs
     60f:	07                   	pop    %es
     610:	1f                   	pop    %ds
     611:	cf                   	iret   

00000612 <default_signal>:
     612:	41                   	inc    %ecx
     613:	83 f9 11             	cmp    $0x11,%ecx
     616:	74 85                	je     59d <ret_from_sys_call+0x25>
     618:	51                   	push   %ecx
     619:	e8 fc ff ff ff       	call   61a <default_signal+0x8>
     61e:	83 c4 04             	add    $0x4,%esp
     621:	eb e6                	jmp    609 <ret_from_sys_call+0x91>
     623:	90                   	nop

00000624 <timer_interrupt>:
     624:	1e                   	push   %ds
     625:	06                   	push   %es
     626:	0f a0                	push   %fs
     628:	52                   	push   %edx
     629:	51                   	push   %ecx
     62a:	53                   	push   %ebx
     62b:	50                   	push   %eax
     62c:	b8 10 00 00 00       	mov    $0x10,%eax
     631:	8e d8                	mov    %eax,%ds
     633:	8e c0                	mov    %eax,%es
     635:	b8 17 00 00 00       	mov    $0x17,%eax
     63a:	8e e0                	mov    %eax,%fs
     63c:	ff 05 00 00 00 00    	incl   0x0
     642:	b0 20                	mov    $0x20,%al
     644:	e6 20                	out    %al,$0x20
     646:	8b 44 24 20          	mov    0x20(%esp),%eax
     64a:	83 e0 03             	and    $0x3,%eax
     64d:	50                   	push   %eax
     64e:	e8 fc ff ff ff       	call   64f <timer_interrupt+0x2b>
     653:	83 c4 04             	add    $0x4,%esp
     656:	e9 1d ff ff ff       	jmp    578 <ret_from_sys_call>
     65b:	90                   	nop

0000065c <sys_execve>:
     65c:	8d 44 24 1c          	lea    0x1c(%esp),%eax
     660:	50                   	push   %eax
     661:	e8 fc ff ff ff       	call   662 <sys_execve+0x6>
     666:	83 c4 04             	add    $0x4,%esp
     669:	c3                   	ret    

0000066a <sys_fork>:
     66a:	e8 fc ff ff ff       	call   66b <sys_fork+0x1>
     66f:	85 c0                	test   %eax,%eax
     671:	78 0e                	js     681 <sys_fork+0x17>
     673:	0f a8                	push   %gs
     675:	56                   	push   %esi
     676:	57                   	push   %edi
     677:	55                   	push   %ebp
     678:	50                   	push   %eax
     679:	e8 fc ff ff ff       	call   67a <sys_fork+0x10>
     67e:	83 c4 14             	add    $0x14,%esp
     681:	c3                   	ret    

00000682 <hd_interrupt>:
     682:	50                   	push   %eax
     683:	51                   	push   %ecx
     684:	52                   	push   %edx
     685:	1e                   	push   %ds
     686:	06                   	push   %es
     687:	0f a0                	push   %fs
     689:	b8 10 00 00 00       	mov    $0x10,%eax
     68e:	8e d8                	mov    %eax,%ds
     690:	8e c0                	mov    %eax,%es
     692:	b8 17 00 00 00       	mov    $0x17,%eax
     697:	8e e0                	mov    %eax,%fs
     699:	b0 20                	mov    $0x20,%al
     69b:	e6 20                	out    %al,$0x20
     69d:	eb 00                	jmp    69f <hd_interrupt+0x1d>
     69f:	eb 00                	jmp    6a1 <hd_interrupt+0x1f>
     6a1:	e6 a0                	out    %al,$0xa0
     6a3:	a1 00 00 00 00       	mov    0x0,%eax
     6a8:	85 c0                	test   %eax,%eax
     6aa:	75 05                	jne    6b1 <hd_interrupt+0x2f>
     6ac:	b8 00 00 00 00       	mov    $0x0,%eax
     6b1:	ff d0                	call   *%eax
     6b3:	0f a1                	pop    %fs
     6b5:	07                   	pop    %es
     6b6:	1f                   	pop    %ds
     6b7:	5a                   	pop    %edx
     6b8:	59                   	pop    %ecx
     6b9:	58                   	pop    %eax
     6ba:	cf                   	iret   

000006bb <die>:
     6bb:	55                   	push   %ebp
     6bc:	57                   	push   %edi
     6bd:	56                   	push   %esi
     6be:	53                   	push   %ebx
     6bf:	83 ec 10             	sub    $0x10,%esp
     6c2:	e8 fc ff ff ff       	call   6c3 <die+0x8>
     6c7:	81 c3 02 00 00 00    	add    $0x2,%ebx
     6cd:	89 d7                	mov    %edx,%edi
     6cf:	89 d6                	mov    %edx,%esi
     6d1:	0f b7 c9             	movzwl %cx,%ecx
     6d4:	51                   	push   %ecx
     6d5:	50                   	push   %eax
     6d6:	8d 83 00 00 00 00    	lea    0x0(%ebx),%eax
     6dc:	50                   	push   %eax
     6dd:	e8 fc ff ff ff       	call   6de <die+0x23>
     6e2:	83 c4 08             	add    $0x8,%esp
     6e5:	ff 77 0c             	pushl  0xc(%edi)
     6e8:	ff 77 10             	pushl  0x10(%edi)
     6eb:	ff 77 08             	pushl  0x8(%edi)
     6ee:	ff 37                	pushl  (%edi)
     6f0:	ff 77 04             	pushl  0x4(%edi)
     6f3:	8d 83 00 00 00 00    	lea    0x0(%ebx),%eax
     6f9:	50                   	push   %eax
     6fa:	e8 fc ff ff ff       	call   6fb <die+0x40>
     6ff:	66 8c e0             	mov    %fs,%ax
     702:	83 c4 18             	add    $0x18,%esp
     705:	0f b7 c0             	movzwl %ax,%eax
     708:	50                   	push   %eax
     709:	8d 83 00 00 00 00    	lea    0x0(%ebx),%eax
     70f:	50                   	push   %eax
     710:	e8 fc ff ff ff       	call   711 <die+0x56>
     715:	b8 17 00 00 00       	mov    $0x17,%eax
     71a:	0f 03 c0             	lsl    %ax,%eax
     71d:	40                   	inc    %eax
     71e:	8b 93 00 00 00 00    	mov    0x0(%ebx),%edx
     724:	8b 12                	mov    (%edx),%edx
     726:	8a b2 57 01 00 00    	mov    0x157(%edx),%dh
     72c:	8a 92 54 01 00 00    	mov    0x154(%edx),%dl
     732:	c1 e2 10             	shl    $0x10,%edx
     735:	66 8b 92 52 01 00 00 	mov    0x152(%edx),%dx
     73c:	83 c4 0c             	add    $0xc,%esp
     73f:	50                   	push   %eax
     740:	52                   	push   %edx
     741:	8d 83 00 00 00 00    	lea    0x0(%ebx),%eax
     747:	50                   	push   %eax
     748:	e8 fc ff ff ff       	call   749 <die+0x8e>
     74d:	83 c4 10             	add    $0x10,%esp
     750:	83 7f 10 17          	cmpl   $0x17,0x10(%edi)
     754:	0f 84 86 00 00 00    	je     7e0 <die+0x125>
     75a:	b8 00 00 00 00       	mov    $0x0,%eax
     75f:	66 0f 00 c8          	str    %ax
     763:	83 e8 20             	sub    $0x20,%eax
     766:	c1 e8 04             	shr    $0x4,%eax
     769:	83 ec 04             	sub    $0x4,%esp
     76c:	0f b7 c0             	movzwl %ax,%eax
     76f:	50                   	push   %eax
     770:	8b 83 00 00 00 00    	mov    0x0(%ebx),%eax
     776:	8b 00                	mov    (%eax),%eax
     778:	ff b0 a8 00 00 00    	pushl  0xa8(%eax)
     77e:	8d 83 00 00 00 00    	lea    0x0(%ebx),%eax
     784:	50                   	push   %eax
     785:	e8 fc ff ff ff       	call   786 <die+0xcb>
     78a:	83 c4 10             	add    $0x10,%esp
     78d:	bf 00 00 00 00       	mov    $0x0,%edi
     792:	8d ab 00 00 00 00    	lea    0x0(%ebx),%ebp
     798:	8b 46 04             	mov    0x4(%esi),%eax
     79b:	8b 16                	mov    (%esi),%edx
     79d:	0f a0                	push   %fs
     79f:	8e e0                	mov    %eax,%fs
     7a1:	64 8a 04 3a          	mov    %fs:(%edx,%edi,1),%al
     7a5:	0f a1                	pop    %fs
     7a7:	83 ec 08             	sub    $0x8,%esp
     7aa:	0f b6 c0             	movzbl %al,%eax
     7ad:	50                   	push   %eax
     7ae:	55                   	push   %ebp
     7af:	e8 fc ff ff ff       	call   7b0 <die+0xf5>
     7b4:	47                   	inc    %edi
     7b5:	83 c4 10             	add    $0x10,%esp
     7b8:	83 ff 0a             	cmp    $0xa,%edi
     7bb:	75 db                	jne    798 <die+0xdd>
     7bd:	83 ec 0c             	sub    $0xc,%esp
     7c0:	8d 83 00 00 00 00    	lea    0x0(%ebx),%eax
     7c6:	50                   	push   %eax
     7c7:	e8 fc ff ff ff       	call   7c8 <die+0x10d>
     7cc:	c7 04 24 0b 00 00 00 	movl   $0xb,(%esp)
     7d3:	e8 fc ff ff ff       	call   7d4 <die+0x119>
     7d8:	83 c4 1c             	add    $0x1c,%esp
     7db:	5b                   	pop    %ebx
     7dc:	5e                   	pop    %esi
     7dd:	5f                   	pop    %edi
     7de:	5d                   	pop    %ebp
     7df:	c3                   	ret    
     7e0:	83 ec 0c             	sub    $0xc,%esp
     7e3:	8d 83 00 00 00 00    	lea    0x0(%ebx),%eax
     7e9:	50                   	push   %eax
     7ea:	e8 fc ff ff ff       	call   7eb <die+0x130>
     7ef:	83 c4 10             	add    $0x10,%esp
     7f2:	bf 00 00 00 00       	mov    $0x0,%edi
     7f7:	8d ab 00 00 00 00    	lea    0x0(%ebx),%ebp
     7fd:	8b 56 0c             	mov    0xc(%esi),%edx
     800:	b8 17 00 00 00       	mov    $0x17,%eax
     805:	0f a0                	push   %fs
     807:	8e e0                	mov    %eax,%fs
     809:	64 8b 04 3a          	mov    %fs:(%edx,%edi,1),%eax
     80d:	0f a1                	pop    %fs
     80f:	83 ec 08             	sub    $0x8,%esp
     812:	50                   	push   %eax
     813:	55                   	push   %ebp
     814:	e8 fc ff ff ff       	call   815 <die+0x15a>
     819:	83 c7 04             	add    $0x4,%edi
     81c:	83 c4 10             	add    $0x10,%esp
     81f:	83 ff 10             	cmp    $0x10,%edi
     822:	75 d9                	jne    7fd <die+0x142>
     824:	83 ec 0c             	sub    $0xc,%esp
     827:	8d 83 00 00 00 00    	lea    0x0(%ebx),%eax
     82d:	50                   	push   %eax
     82e:	e8 fc ff ff ff       	call   82f <die+0x174>
     833:	83 c4 10             	add    $0x10,%esp
     836:	e9 1f ff ff ff       	jmp    75a <die+0x9f>

0000083b <do_double_fault>:
     83b:	83 ec 0c             	sub    $0xc,%esp
     83e:	e8 fc ff ff ff       	call   83f <do_double_fault+0x4>
     843:	05 01 00 00 00       	add    $0x1,%eax
     848:	8b 4c 24 14          	mov    0x14(%esp),%ecx
     84c:	8b 54 24 10          	mov    0x10(%esp),%edx
     850:	8d 80 00 00 00 00    	lea    0x0(%eax),%eax
     856:	e8 60 fe ff ff       	call   6bb <die>
     85b:	83 c4 0c             	add    $0xc,%esp
     85e:	c3                   	ret    

0000085f <do_general_protection>:
     85f:	83 ec 0c             	sub    $0xc,%esp
     862:	e8 fc ff ff ff       	call   863 <do_general_protection+0x4>
     867:	05 01 00 00 00       	add    $0x1,%eax
     86c:	8b 4c 24 14          	mov    0x14(%esp),%ecx
     870:	8b 54 24 10          	mov    0x10(%esp),%edx
     874:	8d 80 00 00 00 00    	lea    0x0(%eax),%eax
     87a:	e8 3c fe ff ff       	call   6bb <die>
     87f:	83 c4 0c             	add    $0xc,%esp
     882:	c3                   	ret    

00000883 <do_divide_error>:
     883:	83 ec 0c             	sub    $0xc,%esp
     886:	e8 fc ff ff ff       	call   887 <do_divide_error+0x4>
     88b:	05 01 00 00 00       	add    $0x1,%eax
     890:	8b 4c 24 14          	mov    0x14(%esp),%ecx
     894:	8b 54 24 10          	mov    0x10(%esp),%edx
     898:	8d 80 00 00 00 00    	lea    0x0(%eax),%eax
     89e:	e8 18 fe ff ff       	call   6bb <die>
     8a3:	83 c4 0c             	add    $0xc,%esp
     8a6:	c3                   	ret    

000008a7 <do_int3>:
     8a7:	57                   	push   %edi
     8a8:	56                   	push   %esi
     8a9:	53                   	push   %ebx
     8aa:	e8 fc ff ff ff       	call   8ab <do_int3+0x4>
     8af:	81 c3 02 00 00 00    	add    $0x2,%ebx
     8b5:	8b 74 24 10          	mov    0x10(%esp),%esi
     8b9:	bf 00 00 00 00       	mov    $0x0,%edi
     8be:	89 f8                	mov    %edi,%eax
     8c0:	66 0f 00 c8          	str    %ax
     8c4:	89 c7                	mov    %eax,%edi
     8c6:	83 ec 0c             	sub    $0xc,%esp
     8c9:	ff 74 24 3c          	pushl  0x3c(%esp)
     8cd:	ff 74 24 44          	pushl  0x44(%esp)
     8d1:	ff 74 24 4c          	pushl  0x4c(%esp)
     8d5:	ff 74 24 54          	pushl  0x54(%esp)
     8d9:	8d 83 00 00 00 00    	lea    0x0(%ebx),%eax
     8df:	50                   	push   %eax
     8e0:	e8 fc ff ff ff       	call   8e1 <do_int3+0x3a>
     8e5:	83 c4 14             	add    $0x14,%esp
     8e8:	56                   	push   %esi
     8e9:	ff 74 24 34          	pushl  0x34(%esp)
     8ed:	ff 74 24 40          	pushl  0x40(%esp)
     8f1:	ff 74 24 40          	pushl  0x40(%esp)
     8f5:	8d 83 00 00 00 00    	lea    0x0(%ebx),%eax
     8fb:	50                   	push   %eax
     8fc:	e8 fc ff ff ff       	call   8fd <do_int3+0x56>
     901:	83 c4 14             	add    $0x14,%esp
     904:	57                   	push   %edi
     905:	ff 74 24 28          	pushl  0x28(%esp)
     909:	ff 74 24 30          	pushl  0x30(%esp)
     90d:	ff 74 24 38          	pushl  0x38(%esp)
     911:	8d 83 00 00 00 00    	lea    0x0(%ebx),%eax
     917:	50                   	push   %eax
     918:	e8 fc ff ff ff       	call   919 <do_int3+0x72>
     91d:	83 c4 20             	add    $0x20,%esp
     920:	ff 76 08             	pushl  0x8(%esi)
     923:	ff 76 04             	pushl  0x4(%esi)
     926:	ff 36                	pushl  (%esi)
     928:	8d 83 00 00 00 00    	lea    0x0(%ebx),%eax
     92e:	50                   	push   %eax
     92f:	e8 fc ff ff ff       	call   930 <do_int3+0x89>
     934:	83 c4 10             	add    $0x10,%esp
     937:	5b                   	pop    %ebx
     938:	5e                   	pop    %esi
     939:	5f                   	pop    %edi
     93a:	c3                   	ret    

0000093b <do_nmi>:
     93b:	83 ec 0c             	sub    $0xc,%esp
     93e:	e8 fc ff ff ff       	call   93f <do_nmi+0x4>
     943:	05 01 00 00 00       	add    $0x1,%eax
     948:	8b 4c 24 14          	mov    0x14(%esp),%ecx
     94c:	8b 54 24 10          	mov    0x10(%esp),%edx
     950:	8d 80 00 00 00 00    	lea    0x0(%eax),%eax
     956:	e8 60 fd ff ff       	call   6bb <die>
     95b:	83 c4 0c             	add    $0xc,%esp
     95e:	c3                   	ret    

0000095f <do_debug>:
     95f:	83 ec 0c             	sub    $0xc,%esp
     962:	e8 fc ff ff ff       	call   963 <do_debug+0x4>
     967:	05 01 00 00 00       	add    $0x1,%eax
     96c:	8b 4c 24 14          	mov    0x14(%esp),%ecx
     970:	8b 54 24 10          	mov    0x10(%esp),%edx
     974:	8d 80 00 00 00 00    	lea    0x0(%eax),%eax
     97a:	e8 3c fd ff ff       	call   6bb <die>
     97f:	83 c4 0c             	add    $0xc,%esp
     982:	c3                   	ret    

00000983 <do_overflow>:
     983:	83 ec 0c             	sub    $0xc,%esp
     986:	e8 fc ff ff ff       	call   987 <do_overflow+0x4>
     98b:	05 01 00 00 00       	add    $0x1,%eax
     990:	8b 4c 24 14          	mov    0x14(%esp),%ecx
     994:	8b 54 24 10          	mov    0x10(%esp),%edx
     998:	8d 80 00 00 00 00    	lea    0x0(%eax),%eax
     99e:	e8 18 fd ff ff       	call   6bb <die>
     9a3:	83 c4 0c             	add    $0xc,%esp
     9a6:	c3                   	ret    

000009a7 <do_bounds>:
     9a7:	83 ec 0c             	sub    $0xc,%esp
     9aa:	e8 fc ff ff ff       	call   9ab <do_bounds+0x4>
     9af:	05 01 00 00 00       	add    $0x1,%eax
     9b4:	8b 4c 24 14          	mov    0x14(%esp),%ecx
     9b8:	8b 54 24 10          	mov    0x10(%esp),%edx
     9bc:	8d 80 00 00 00 00    	lea    0x0(%eax),%eax
     9c2:	e8 f4 fc ff ff       	call   6bb <die>
     9c7:	83 c4 0c             	add    $0xc,%esp
     9ca:	c3                   	ret    

000009cb <do_invalid_op>:
     9cb:	83 ec 0c             	sub    $0xc,%esp
     9ce:	e8 fc ff ff ff       	call   9cf <do_invalid_op+0x4>
     9d3:	05 01 00 00 00       	add    $0x1,%eax
     9d8:	8b 4c 24 14          	mov    0x14(%esp),%ecx
     9dc:	8b 54 24 10          	mov    0x10(%esp),%edx
     9e0:	8d 80 00 00 00 00    	lea    0x0(%eax),%eax
     9e6:	e8 d0 fc ff ff       	call   6bb <die>
     9eb:	83 c4 0c             	add    $0xc,%esp
     9ee:	c3                   	ret    

000009ef <do_device_not_available>:
     9ef:	83 ec 0c             	sub    $0xc,%esp
     9f2:	e8 fc ff ff ff       	call   9f3 <do_device_not_available+0x4>
     9f7:	05 01 00 00 00       	add    $0x1,%eax
     9fc:	8b 4c 24 14          	mov    0x14(%esp),%ecx
     a00:	8b 54 24 10          	mov    0x10(%esp),%edx
     a04:	8d 80 00 00 00 00    	lea    0x0(%eax),%eax
     a0a:	e8 ac fc ff ff       	call   6bb <die>
     a0f:	83 c4 0c             	add    $0xc,%esp
     a12:	c3                   	ret    

00000a13 <do_coprocessor_segment_overrun>:
     a13:	83 ec 0c             	sub    $0xc,%esp
     a16:	e8 fc ff ff ff       	call   a17 <do_coprocessor_segment_overrun+0x4>
     a1b:	05 01 00 00 00       	add    $0x1,%eax
     a20:	8b 4c 24 14          	mov    0x14(%esp),%ecx
     a24:	8b 54 24 10          	mov    0x10(%esp),%edx
     a28:	8d 80 00 00 00 00    	lea    0x0(%eax),%eax
     a2e:	e8 88 fc ff ff       	call   6bb <die>
     a33:	83 c4 0c             	add    $0xc,%esp
     a36:	c3                   	ret    

00000a37 <do_invalid_TSS>:
     a37:	83 ec 0c             	sub    $0xc,%esp
     a3a:	e8 fc ff ff ff       	call   a3b <do_invalid_TSS+0x4>
     a3f:	05 01 00 00 00       	add    $0x1,%eax
     a44:	8b 4c 24 14          	mov    0x14(%esp),%ecx
     a48:	8b 54 24 10          	mov    0x10(%esp),%edx
     a4c:	8d 80 00 00 00 00    	lea    0x0(%eax),%eax
     a52:	e8 64 fc ff ff       	call   6bb <die>
     a57:	83 c4 0c             	add    $0xc,%esp
     a5a:	c3                   	ret    

00000a5b <do_segment_not_present>:
     a5b:	83 ec 0c             	sub    $0xc,%esp
     a5e:	e8 fc ff ff ff       	call   a5f <do_segment_not_present+0x4>
     a63:	05 01 00 00 00       	add    $0x1,%eax
     a68:	8b 4c 24 14          	mov    0x14(%esp),%ecx
     a6c:	8b 54 24 10          	mov    0x10(%esp),%edx
     a70:	8d 80 00 00 00 00    	lea    0x0(%eax),%eax
     a76:	e8 40 fc ff ff       	call   6bb <die>
     a7b:	83 c4 0c             	add    $0xc,%esp
     a7e:	c3                   	ret    

00000a7f <do_stack_segment>:
     a7f:	83 ec 0c             	sub    $0xc,%esp
     a82:	e8 fc ff ff ff       	call   a83 <do_stack_segment+0x4>
     a87:	05 01 00 00 00       	add    $0x1,%eax
     a8c:	8b 4c 24 14          	mov    0x14(%esp),%ecx
     a90:	8b 54 24 10          	mov    0x10(%esp),%edx
     a94:	8d 80 00 00 00 00    	lea    0x0(%eax),%eax
     a9a:	e8 1c fc ff ff       	call   6bb <die>
     a9f:	83 c4 0c             	add    $0xc,%esp
     aa2:	c3                   	ret    

00000aa3 <do_coprocessor_error>:
     aa3:	83 ec 0c             	sub    $0xc,%esp
     aa6:	e8 fc ff ff ff       	call   aa7 <do_coprocessor_error+0x4>
     aab:	05 01 00 00 00       	add    $0x1,%eax
     ab0:	8b 4c 24 14          	mov    0x14(%esp),%ecx
     ab4:	8b 54 24 10          	mov    0x10(%esp),%edx
     ab8:	8d 80 00 00 00 00    	lea    0x0(%eax),%eax
     abe:	e8 f8 fb ff ff       	call   6bb <die>
     ac3:	83 c4 0c             	add    $0xc,%esp
     ac6:	c3                   	ret    

00000ac7 <do_reserved>:
     ac7:	83 ec 0c             	sub    $0xc,%esp
     aca:	e8 fc ff ff ff       	call   acb <do_reserved+0x4>
     acf:	05 01 00 00 00       	add    $0x1,%eax
     ad4:	8b 4c 24 14          	mov    0x14(%esp),%ecx
     ad8:	8b 54 24 10          	mov    0x10(%esp),%edx
     adc:	8d 80 00 00 00 00    	lea    0x0(%eax),%eax
     ae2:	e8 d4 fb ff ff       	call   6bb <die>
     ae7:	83 c4 0c             	add    $0xc,%esp
     aea:	c3                   	ret    

00000aeb <trap_init>:
     aeb:	56                   	push   %esi
     aec:	53                   	push   %ebx
     aed:	e8 fc ff ff ff       	call   aee <trap_init+0x3>
     af2:	81 c6 02 00 00 00    	add    $0x2,%esi
     af8:	8b 9e 00 00 00 00    	mov    0x0(%esi),%ebx
     afe:	8b 96 00 00 00 00    	mov    0x0(%esi),%edx
     b04:	b8 00 00 08 00       	mov    $0x80000,%eax
     b09:	66 89 d0             	mov    %dx,%ax
     b0c:	66 ba 00 8f          	mov    $0x8f00,%dx
     b10:	89 03                	mov    %eax,(%ebx)
     b12:	89 53 04             	mov    %edx,0x4(%ebx)
     b15:	8b 96 00 00 00 00    	mov    0x0(%esi),%edx
     b1b:	66 89 d0             	mov    %dx,%ax
     b1e:	66 ba 00 8f          	mov    $0x8f00,%dx
     b22:	89 43 08             	mov    %eax,0x8(%ebx)
     b25:	89 53 0c             	mov    %edx,0xc(%ebx)
     b28:	8b 96 00 00 00 00    	mov    0x0(%esi),%edx
     b2e:	66 89 d0             	mov    %dx,%ax
     b31:	66 ba 00 8f          	mov    $0x8f00,%dx
     b35:	89 43 10             	mov    %eax,0x10(%ebx)
     b38:	89 53 14             	mov    %edx,0x14(%ebx)
     b3b:	8b 96 00 00 00 00    	mov    0x0(%esi),%edx
     b41:	66 89 d0             	mov    %dx,%ax
     b44:	66 ba 00 ef          	mov    $0xef00,%dx
     b48:	89 43 18             	mov    %eax,0x18(%ebx)
     b4b:	89 53 1c             	mov    %edx,0x1c(%ebx)
     b4e:	8b 96 00 00 00 00    	mov    0x0(%esi),%edx
     b54:	66 89 d0             	mov    %dx,%ax
     b57:	66 ba 00 ef          	mov    $0xef00,%dx
     b5b:	89 43 20             	mov    %eax,0x20(%ebx)
     b5e:	89 53 24             	mov    %edx,0x24(%ebx)
     b61:	8b 96 00 00 00 00    	mov    0x0(%esi),%edx
     b67:	66 89 d0             	mov    %dx,%ax
     b6a:	66 ba 00 ef          	mov    $0xef00,%dx
     b6e:	89 43 28             	mov    %eax,0x28(%ebx)
     b71:	89 53 2c             	mov    %edx,0x2c(%ebx)
     b74:	8b 96 00 00 00 00    	mov    0x0(%esi),%edx
     b7a:	66 89 d0             	mov    %dx,%ax
     b7d:	66 ba 00 8f          	mov    $0x8f00,%dx
     b81:	89 43 30             	mov    %eax,0x30(%ebx)
     b84:	89 53 34             	mov    %edx,0x34(%ebx)
     b87:	8b 96 00 00 00 00    	mov    0x0(%esi),%edx
     b8d:	66 89 d0             	mov    %dx,%ax
     b90:	66 ba 00 8f          	mov    $0x8f00,%dx
     b94:	89 43 38             	mov    %eax,0x38(%ebx)
     b97:	89 53 3c             	mov    %edx,0x3c(%ebx)
     b9a:	8b 96 00 00 00 00    	mov    0x0(%esi),%edx
     ba0:	66 89 d0             	mov    %dx,%ax
     ba3:	66 ba 00 8f          	mov    $0x8f00,%dx
     ba7:	89 43 40             	mov    %eax,0x40(%ebx)
     baa:	89 53 44             	mov    %edx,0x44(%ebx)
     bad:	8b 96 00 00 00 00    	mov    0x0(%esi),%edx
     bb3:	66 89 d0             	mov    %dx,%ax
     bb6:	66 ba 00 8f          	mov    $0x8f00,%dx
     bba:	89 43 48             	mov    %eax,0x48(%ebx)
     bbd:	89 53 4c             	mov    %edx,0x4c(%ebx)
     bc0:	8b 96 00 00 00 00    	mov    0x0(%esi),%edx
     bc6:	66 89 d0             	mov    %dx,%ax
     bc9:	66 ba 00 8f          	mov    $0x8f00,%dx
     bcd:	89 43 50             	mov    %eax,0x50(%ebx)
     bd0:	89 53 54             	mov    %edx,0x54(%ebx)
     bd3:	8b 96 00 00 00 00    	mov    0x0(%esi),%edx
     bd9:	66 89 d0             	mov    %dx,%ax
     bdc:	66 ba 00 8f          	mov    $0x8f00,%dx
     be0:	89 43 58             	mov    %eax,0x58(%ebx)
     be3:	89 53 5c             	mov    %edx,0x5c(%ebx)
     be6:	8b 96 00 00 00 00    	mov    0x0(%esi),%edx
     bec:	66 89 d0             	mov    %dx,%ax
     bef:	66 ba 00 8f          	mov    $0x8f00,%dx
     bf3:	89 43 60             	mov    %eax,0x60(%ebx)
     bf6:	89 53 64             	mov    %edx,0x64(%ebx)
     bf9:	8b 96 00 00 00 00    	mov    0x0(%esi),%edx
     bff:	66 89 d0             	mov    %dx,%ax
     c02:	66 ba 00 8f          	mov    $0x8f00,%dx
     c06:	89 43 68             	mov    %eax,0x68(%ebx)
     c09:	89 53 6c             	mov    %edx,0x6c(%ebx)
     c0c:	8b 96 00 00 00 00    	mov    0x0(%esi),%edx
     c12:	66 89 d0             	mov    %dx,%ax
     c15:	66 ba 00 8f          	mov    $0x8f00,%dx
     c19:	89 43 70             	mov    %eax,0x70(%ebx)
     c1c:	89 53 74             	mov    %edx,0x74(%ebx)
     c1f:	8b 96 00 00 00 00    	mov    0x0(%esi),%edx
     c25:	66 89 d0             	mov    %dx,%ax
     c28:	66 ba 00 8f          	mov    $0x8f00,%dx
     c2c:	89 43 78             	mov    %eax,0x78(%ebx)
     c2f:	89 53 7c             	mov    %edx,0x7c(%ebx)
     c32:	8b 96 00 00 00 00    	mov    0x0(%esi),%edx
     c38:	66 89 d0             	mov    %dx,%ax
     c3b:	66 ba 00 8f          	mov    $0x8f00,%dx
     c3f:	89 83 80 00 00 00    	mov    %eax,0x80(%ebx)
     c45:	89 93 84 00 00 00    	mov    %edx,0x84(%ebx)
     c4b:	8d 8b 88 00 00 00    	lea    0x88(%ebx),%ecx
     c51:	81 c3 00 01 00 00    	add    $0x100,%ebx
     c57:	8b 96 00 00 00 00    	mov    0x0(%esi),%edx
     c5d:	66 89 d0             	mov    %dx,%ax
     c60:	66 ba 00 8f          	mov    $0x8f00,%dx
     c64:	89 01                	mov    %eax,(%ecx)
     c66:	89 51 04             	mov    %edx,0x4(%ecx)
     c69:	83 c1 08             	add    $0x8,%ecx
     c6c:	39 d9                	cmp    %ebx,%ecx
     c6e:	75 ed                	jne    c5d <trap_init+0x172>
     c70:	5b                   	pop    %ebx
     c71:	5e                   	pop    %esi
     c72:	c3                   	ret    

00000c73 <divide_error>:
     c73:	68 00 00 00 00       	push   $0x0

00000c78 <no_error_code>:
     c78:	87 04 24             	xchg   %eax,(%esp)
     c7b:	53                   	push   %ebx
     c7c:	51                   	push   %ecx
     c7d:	52                   	push   %edx
     c7e:	57                   	push   %edi
     c7f:	56                   	push   %esi
     c80:	55                   	push   %ebp
     c81:	1e                   	push   %ds
     c82:	06                   	push   %es
     c83:	0f a0                	push   %fs
     c85:	6a 00                	push   $0x0
     c87:	8d 54 24 2c          	lea    0x2c(%esp),%edx
     c8b:	52                   	push   %edx
     c8c:	ba 10 00 00 00       	mov    $0x10,%edx
     c91:	8e da                	mov    %edx,%ds
     c93:	8e c2                	mov    %edx,%es
     c95:	8e e2                	mov    %edx,%fs
     c97:	ff d0                	call   *%eax
     c99:	83 c4 08             	add    $0x8,%esp
     c9c:	0f a1                	pop    %fs
     c9e:	07                   	pop    %es
     c9f:	1f                   	pop    %ds
     ca0:	5d                   	pop    %ebp
     ca1:	5e                   	pop    %esi
     ca2:	5f                   	pop    %edi
     ca3:	5a                   	pop    %edx
     ca4:	59                   	pop    %ecx
     ca5:	5b                   	pop    %ebx
     ca6:	58                   	pop    %eax
     ca7:	cf                   	iret   

00000ca8 <debug>:
     ca8:	68 00 00 00 00       	push   $0x0
     cad:	eb c9                	jmp    c78 <no_error_code>

00000caf <nmi>:
     caf:	68 00 00 00 00       	push   $0x0
     cb4:	eb c2                	jmp    c78 <no_error_code>

00000cb6 <int3>:
     cb6:	68 00 00 00 00       	push   $0x0
     cbb:	eb bb                	jmp    c78 <no_error_code>

00000cbd <overflow>:
     cbd:	68 00 00 00 00       	push   $0x0
     cc2:	eb b4                	jmp    c78 <no_error_code>

00000cc4 <bounds>:
     cc4:	68 00 00 00 00       	push   $0x0
     cc9:	eb ad                	jmp    c78 <no_error_code>

00000ccb <invalid_op>:
     ccb:	68 00 00 00 00       	push   $0x0
     cd0:	eb a6                	jmp    c78 <no_error_code>

00000cd2 <math_emulate>:
     cd2:	58                   	pop    %eax
     cd3:	68 00 00 00 00       	push   $0x0
     cd8:	eb 9e                	jmp    c78 <no_error_code>

00000cda <device_not_available>:
     cda:	50                   	push   %eax
     cdb:	0f 20 c0             	mov    %cr0,%eax
     cde:	0f ba e0 02          	bt     $0x2,%eax
     ce2:	72 ee                	jb     cd2 <math_emulate>
     ce4:	0f 06                	clts   
     ce6:	a1 00 00 00 00       	mov    0x0,%eax
     ceb:	3b 05 00 00 00 00    	cmp    0x0,%eax
     cf1:	74 12                	je     d05 <device_not_available+0x2b>
     cf3:	51                   	push   %ecx
     cf4:	52                   	push   %edx
     cf5:	1e                   	push   %ds
     cf6:	b8 10 00 00 00       	mov    $0x10,%eax
     cfb:	8e d8                	mov    %eax,%ds
     cfd:	e8 fc ff ff ff       	call   cfe <device_not_available+0x24>
     d02:	1f                   	pop    %ds
     d03:	5a                   	pop    %edx
     d04:	59                   	pop    %ecx
     d05:	58                   	pop    %eax
     d06:	cf                   	iret   

00000d07 <coprocessor_segment_overrun>:
     d07:	68 00 00 00 00       	push   $0x0
     d0c:	e9 67 ff ff ff       	jmp    c78 <no_error_code>

00000d11 <reserved>:
     d11:	68 00 00 00 00       	push   $0x0
     d16:	e9 5d ff ff ff       	jmp    c78 <no_error_code>

00000d1b <coprocessor_error>:
     d1b:	68 00 00 00 00       	push   $0x0
     d20:	e9 53 ff ff ff       	jmp    c78 <no_error_code>

00000d25 <double_fault>:
     d25:	68 00 00 00 00       	push   $0x0

00000d2a <error_code>:
     d2a:	87 44 24 04          	xchg   %eax,0x4(%esp)
     d2e:	87 1c 24             	xchg   %ebx,(%esp)
     d31:	51                   	push   %ecx
     d32:	52                   	push   %edx
     d33:	57                   	push   %edi
     d34:	56                   	push   %esi
     d35:	55                   	push   %ebp
     d36:	1e                   	push   %ds
     d37:	06                   	push   %es
     d38:	0f a0                	push   %fs
     d3a:	50                   	push   %eax
     d3b:	8d 44 24 2c          	lea    0x2c(%esp),%eax
     d3f:	50                   	push   %eax
     d40:	b8 10 00 00 00       	mov    $0x10,%eax
     d45:	8e d8                	mov    %eax,%ds
     d47:	8e c0                	mov    %eax,%es
     d49:	8e e0                	mov    %eax,%fs
     d4b:	ff d3                	call   *%ebx
     d4d:	83 c4 08             	add    $0x8,%esp
     d50:	0f a1                	pop    %fs
     d52:	07                   	pop    %es
     d53:	1f                   	pop    %ds
     d54:	5d                   	pop    %ebp
     d55:	5e                   	pop    %esi
     d56:	5f                   	pop    %edi
     d57:	5a                   	pop    %edx
     d58:	59                   	pop    %ecx
     d59:	5b                   	pop    %ebx
     d5a:	58                   	pop    %eax
     d5b:	cf                   	iret   

00000d5c <invalid_TSS>:
     d5c:	68 00 00 00 00       	push   $0x0
     d61:	eb c7                	jmp    d2a <error_code>

00000d63 <segment_not_present>:
     d63:	68 00 00 00 00       	push   $0x0
     d68:	eb c0                	jmp    d2a <error_code>

00000d6a <stack_segment>:
     d6a:	68 00 00 00 00       	push   $0x0
     d6f:	eb b9                	jmp    d2a <error_code>

00000d71 <general_protection>:
     d71:	68 00 00 00 00       	push   $0x0
     d76:	eb b2                	jmp    d2a <error_code>

00000d78 <verify_area>:
     d78:	57                   	push   %edi
     d79:	56                   	push   %esi
     d7a:	53                   	push   %ebx
     d7b:	e8 fc ff ff ff       	call   d7c <verify_area+0x4>
     d80:	81 c3 02 00 00 00    	add    $0x2,%ebx
     d86:	8b 74 24 10          	mov    0x10(%esp),%esi
     d8a:	89 f0                	mov    %esi,%eax
     d8c:	25 ff 0f 00 00       	and    $0xfff,%eax
     d91:	03 44 24 14          	add    0x14(%esp),%eax
     d95:	81 e6 00 f0 ff ff    	and    $0xfffff000,%esi
     d9b:	8b 93 00 00 00 00    	mov    0x0(%ebx),%edx
     da1:	8b 12                	mov    (%edx),%edx
     da3:	8a b2 5f 01 00 00    	mov    0x15f(%edx),%dh
     da9:	8a 92 5c 01 00 00    	mov    0x15c(%edx),%dl
     daf:	c1 e2 10             	shl    $0x10,%edx
     db2:	66 8b 92 5a 01 00 00 	mov    0x15a(%edx),%dx
     db9:	01 d6                	add    %edx,%esi
     dbb:	85 c0                	test   %eax,%eax
     dbd:	7e 23                	jle    de2 <verify_area+0x6a>
     dbf:	48                   	dec    %eax
     dc0:	25 00 f0 ff ff       	and    $0xfffff000,%eax
     dc5:	8d bc 06 00 10 00 00 	lea    0x1000(%esi,%eax,1),%edi
     dcc:	83 ec 0c             	sub    $0xc,%esp
     dcf:	56                   	push   %esi
     dd0:	e8 fc ff ff ff       	call   dd1 <verify_area+0x59>
     dd5:	81 c6 00 10 00 00    	add    $0x1000,%esi
     ddb:	83 c4 10             	add    $0x10,%esp
     dde:	39 fe                	cmp    %edi,%esi
     de0:	75 ea                	jne    dcc <verify_area+0x54>
     de2:	5b                   	pop    %ebx
     de3:	5e                   	pop    %esi
     de4:	5f                   	pop    %edi
     de5:	c3                   	ret    

00000de6 <copy_mem>:
     de6:	55                   	push   %ebp
     de7:	57                   	push   %edi
     de8:	56                   	push   %esi
     de9:	53                   	push   %ebx
     dea:	83 ec 1c             	sub    $0x1c,%esp
     ded:	e8 fc ff ff ff       	call   dee <copy_mem+0x8>
     df2:	81 c3 02 00 00 00    	add    $0x2,%ebx
     df8:	8b 74 24 34          	mov    0x34(%esp),%esi
     dfc:	bf 0f 00 00 00       	mov    $0xf,%edi
     e01:	0f 03 ff             	lsl    %di,%edi
     e04:	47                   	inc    %edi
     e05:	bd 17 00 00 00       	mov    $0x17,%ebp
     e0a:	0f 03 ed             	lsl    %bp,%ebp
     e0d:	45                   	inc    %ebp
     e0e:	8b 83 00 00 00 00    	mov    0x0(%ebx),%eax
     e14:	8b 00                	mov    (%eax),%eax
     e16:	8a b0 57 01 00 00    	mov    0x157(%eax),%dh
     e1c:	8a 90 54 01 00 00    	mov    0x154(%eax),%dl
     e22:	c1 e2 10             	shl    $0x10,%edx
     e25:	66 8b 90 52 01 00 00 	mov    0x152(%eax),%dx
     e2c:	89 d1                	mov    %edx,%ecx
     e2e:	8a b0 5f 01 00 00    	mov    0x15f(%eax),%dh
     e34:	8a 90 5c 01 00 00    	mov    0x15c(%eax),%dl
     e3a:	c1 e2 10             	shl    $0x10,%edx
     e3d:	66 8b 90 5a 01 00 00 	mov    0x15a(%eax),%dx
     e44:	89 54 24 0c          	mov    %edx,0xc(%esp)
     e48:	39 d1                	cmp    %edx,%ecx
     e4a:	75 56                	jne    ea2 <copy_mem+0xbc>
     e4c:	39 ef                	cmp    %ebp,%edi
     e4e:	77 66                	ja     eb6 <copy_mem+0xd0>
     e50:	8b 7c 24 30          	mov    0x30(%esp),%edi
     e54:	c1 e7 1a             	shl    $0x1a,%edi
     e57:	89 fa                	mov    %edi,%edx
     e59:	66 89 96 52 01 00 00 	mov    %dx,0x152(%esi)
     e60:	c1 ca 10             	ror    $0x10,%edx
     e63:	88 96 54 01 00 00    	mov    %dl,0x154(%esi)
     e69:	88 b6 57 01 00 00    	mov    %dh,0x157(%esi)
     e6f:	66 89 96 5a 01 00 00 	mov    %dx,0x15a(%esi)
     e76:	c1 ca 10             	ror    $0x10,%edx
     e79:	88 96 5c 01 00 00    	mov    %dl,0x15c(%esi)
     e7f:	88 b6 5f 01 00 00    	mov    %dh,0x15f(%esi)
     e85:	83 ec 04             	sub    $0x4,%esp
     e88:	55                   	push   %ebp
     e89:	57                   	push   %edi
     e8a:	ff 74 24 18          	pushl  0x18(%esp)
     e8e:	e8 fc ff ff ff       	call   e8f <copy_mem+0xa9>
     e93:	83 c4 10             	add    $0x10,%esp
     e96:	85 c0                	test   %eax,%eax
     e98:	75 30                	jne    eca <copy_mem+0xe4>
     e9a:	83 c4 1c             	add    $0x1c,%esp
     e9d:	5b                   	pop    %ebx
     e9e:	5e                   	pop    %esi
     e9f:	5f                   	pop    %edi
     ea0:	5d                   	pop    %ebp
     ea1:	c3                   	ret    
     ea2:	83 ec 0c             	sub    $0xc,%esp
     ea5:	8d 83 00 00 00 00    	lea    0x0(%ebx),%eax
     eab:	50                   	push   %eax
     eac:	e8 fc ff ff ff       	call   ead <copy_mem+0xc7>
     eb1:	83 c4 10             	add    $0x10,%esp
     eb4:	eb 96                	jmp    e4c <copy_mem+0x66>
     eb6:	83 ec 0c             	sub    $0xc,%esp
     eb9:	8d 83 00 00 00 00    	lea    0x0(%ebx),%eax
     ebf:	50                   	push   %eax
     ec0:	e8 fc ff ff ff       	call   ec1 <copy_mem+0xdb>
     ec5:	83 c4 10             	add    $0x10,%esp
     ec8:	eb 86                	jmp    e50 <copy_mem+0x6a>
     eca:	83 ec 08             	sub    $0x8,%esp
     ecd:	55                   	push   %ebp
     ece:	57                   	push   %edi
     ecf:	e8 fc ff ff ff       	call   ed0 <copy_mem+0xea>
     ed4:	83 c4 10             	add    $0x10,%esp
     ed7:	b8 f4 ff ff ff       	mov    $0xfffffff4,%eax
     edc:	eb bc                	jmp    e9a <copy_mem+0xb4>

00000ede <copy_process>:
     ede:	55                   	push   %ebp
     edf:	57                   	push   %edi
     ee0:	56                   	push   %esi
     ee1:	53                   	push   %ebx
     ee2:	83 ec 0c             	sub    $0xc,%esp
     ee5:	e8 fc ff ff ff       	call   ee6 <copy_process+0x8>
     eea:	81 c5 02 00 00 00    	add    $0x2,%ebp
     ef0:	89 eb                	mov    %ebp,%ebx
     ef2:	e8 fc ff ff ff       	call   ef3 <copy_process+0x15>
     ef7:	89 c3                	mov    %eax,%ebx
     ef9:	85 c0                	test   %eax,%eax
     efb:	0f 84 6a 02 00 00    	je     116b <copy_process+0x28d>
     f01:	8b 95 00 00 00 00    	mov    0x0(%ebp),%edx
     f07:	8b 32                	mov    (%edx),%esi
     f09:	b9 8d 00 00 00       	mov    $0x8d,%ecx
     f0e:	89 c7                	mov    %eax,%edi
     f10:	f3 a5                	rep movsl %ds:(%esi),%es:(%edi)
     f12:	c7 00 00 00 00 00    	movl   $0x0,(%eax)
     f18:	8b 85 00 00 00 00    	mov    0x0(%ebp),%eax
     f1e:	89 83 a8 00 00 00    	mov    %eax,0xa8(%ebx)
     f24:	8b 12                	mov    (%edx),%edx
     f26:	8b 82 a8 00 00 00    	mov    0xa8(%edx),%eax
     f2c:	89 83 ac 00 00 00    	mov    %eax,0xac(%ebx)
     f32:	8b 43 08             	mov    0x8(%ebx),%eax
     f35:	89 43 04             	mov    %eax,0x4(%ebx)
     f38:	c7 43 0c 00 00 00 00 	movl   $0x0,0xc(%ebx)
     f3f:	c7 83 c8 00 00 00 00 	movl   $0x0,0xc8(%ebx)
     f46:	00 00 00 
     f49:	c7 83 b8 00 00 00 00 	movl   $0x0,0xb8(%ebx)
     f50:	00 00 00 
     f53:	c7 83 d0 00 00 00 00 	movl   $0x0,0xd0(%ebx)
     f5a:	00 00 00 
     f5d:	c7 83 cc 00 00 00 00 	movl   $0x0,0xcc(%ebx)
     f64:	00 00 00 
     f67:	c7 83 d8 00 00 00 00 	movl   $0x0,0xd8(%ebx)
     f6e:	00 00 00 
     f71:	c7 83 d4 00 00 00 00 	movl   $0x0,0xd4(%ebx)
     f78:	00 00 00 
     f7b:	8b 85 00 00 00 00    	mov    0x0(%ebp),%eax
     f81:	8b 00                	mov    (%eax),%eax
     f83:	89 83 dc 00 00 00    	mov    %eax,0xdc(%ebx)
     f89:	c7 83 60 01 00 00 00 	movl   $0x0,0x160(%ebx)
     f90:	00 00 00 
     f93:	8d 83 00 10 00 00    	lea    0x1000(%ebx),%eax
     f99:	89 83 64 01 00 00    	mov    %eax,0x164(%ebx)
     f9f:	c7 83 68 01 00 00 10 	movl   $0x10,0x168(%ebx)
     fa6:	00 00 00 
     fa9:	8b 44 24 50          	mov    0x50(%esp),%eax
     fad:	89 83 80 01 00 00    	mov    %eax,0x180(%ebx)
     fb3:	8b 44 24 58          	mov    0x58(%esp),%eax
     fb7:	89 83 84 01 00 00    	mov    %eax,0x184(%ebx)
     fbd:	c7 83 88 01 00 00 00 	movl   $0x0,0x188(%ebx)
     fc4:	00 00 00 
     fc7:	8b 44 24 3c          	mov    0x3c(%esp),%eax
     fcb:	89 83 8c 01 00 00    	mov    %eax,0x18c(%ebx)
     fd1:	8b 44 24 40          	mov    0x40(%esp),%eax
     fd5:	89 83 90 01 00 00    	mov    %eax,0x190(%ebx)
     fdb:	8b 44 24 38          	mov    0x38(%esp),%eax
     fdf:	89 83 94 01 00 00    	mov    %eax,0x194(%ebx)
     fe5:	8b 44 24 5c          	mov    0x5c(%esp),%eax
     fe9:	89 83 98 01 00 00    	mov    %eax,0x198(%ebx)
     fef:	8b 44 24 24          	mov    0x24(%esp),%eax
     ff3:	89 83 9c 01 00 00    	mov    %eax,0x19c(%ebx)
     ff9:	8b 44 24 2c          	mov    0x2c(%esp),%eax
     ffd:	89 83 a0 01 00 00    	mov    %eax,0x1a0(%ebx)
    1003:	8b 44 24 28          	mov    0x28(%esp),%eax
    1007:	89 83 a4 01 00 00    	mov    %eax,0x1a4(%ebx)
    100d:	0f b7 44 24 48       	movzwl 0x48(%esp),%eax
    1012:	89 83 a8 01 00 00    	mov    %eax,0x1a8(%ebx)
    1018:	0f b7 44 24 54       	movzwl 0x54(%esp),%eax
    101d:	89 83 ac 01 00 00    	mov    %eax,0x1ac(%ebx)
    1023:	0f b7 44 24 60       	movzwl 0x60(%esp),%eax
    1028:	89 83 b0 01 00 00    	mov    %eax,0x1b0(%ebx)
    102e:	0f b7 44 24 4c       	movzwl 0x4c(%esp),%eax
    1033:	89 83 b4 01 00 00    	mov    %eax,0x1b4(%ebx)
    1039:	0f b7 44 24 44       	movzwl 0x44(%esp),%eax
    103e:	89 83 b8 01 00 00    	mov    %eax,0x1b8(%ebx)
    1044:	0f b7 44 24 30       	movzwl 0x30(%esp),%eax
    1049:	89 83 bc 01 00 00    	mov    %eax,0x1bc(%ebx)
    104f:	8b 44 24 20          	mov    0x20(%esp),%eax
    1053:	c1 e0 04             	shl    $0x4,%eax
    1056:	83 c0 28             	add    $0x28,%eax
    1059:	89 83 c0 01 00 00    	mov    %eax,0x1c0(%ebx)
    105f:	c7 83 c4 01 00 00 00 	movl   $0x80000000,0x1c4(%ebx)
    1066:	00 00 80 
    1069:	8b 85 00 00 00 00    	mov    0x0(%ebp),%eax
    106f:	3b 10                	cmp    (%eax),%edx
    1071:	74 22                	je     1095 <copy_process+0x1b7>
    1073:	83 ec 08             	sub    $0x8,%esp
    1076:	53                   	push   %ebx
    1077:	ff 74 24 2c          	pushl  0x2c(%esp)
    107b:	e8 fc ff ff ff       	call   107c <copy_process+0x19e>
    1080:	83 c4 10             	add    $0x10,%esp
    1083:	85 c0                	test   %eax,%eax
    1085:	75 16                	jne    109d <copy_process+0x1bf>
    1087:	8d 83 f8 00 00 00    	lea    0xf8(%ebx),%eax
    108d:	8d 8b 48 01 00 00    	lea    0x148(%ebx),%ecx
    1093:	eb 27                	jmp    10bc <copy_process+0x1de>
    1095:	dd b3 c8 01 00 00    	fnsave 0x1c8(%ebx)
    109b:	eb d6                	jmp    1073 <copy_process+0x195>
    109d:	83 ec 0c             	sub    $0xc,%esp
    10a0:	53                   	push   %ebx
    10a1:	89 eb                	mov    %ebp,%ebx
    10a3:	e8 fc ff ff ff       	call   10a4 <copy_process+0x1c6>
    10a8:	83 c4 10             	add    $0x10,%esp
    10ab:	b8 f5 ff ff ff       	mov    $0xfffffff5,%eax
    10b0:	e9 ae 00 00 00       	jmp    1163 <copy_process+0x285>
    10b5:	83 c0 04             	add    $0x4,%eax
    10b8:	39 c8                	cmp    %ecx,%eax
    10ba:	74 0c                	je     10c8 <copy_process+0x1ea>
    10bc:	8b 10                	mov    (%eax),%edx
    10be:	85 d2                	test   %edx,%edx
    10c0:	74 f3                	je     10b5 <copy_process+0x1d7>
    10c2:	66 ff 42 04          	incw   0x4(%edx)
    10c6:	eb ed                	jmp    10b5 <copy_process+0x1d7>
    10c8:	8b 85 00 00 00 00    	mov    0x0(%ebp),%eax
    10ce:	8b 10                	mov    (%eax),%edx
    10d0:	8b 82 ec 00 00 00    	mov    0xec(%edx),%eax
    10d6:	85 c0                	test   %eax,%eax
    10d8:	74 04                	je     10de <copy_process+0x200>
    10da:	66 ff 40 30          	incw   0x30(%eax)
    10de:	8b 82 f0 00 00 00    	mov    0xf0(%edx),%eax
    10e4:	85 c0                	test   %eax,%eax
    10e6:	74 04                	je     10ec <copy_process+0x20e>
    10e8:	66 ff 40 30          	incw   0x30(%eax)
    10ec:	8b 44 24 20          	mov    0x20(%esp),%eax
    10f0:	8d 54 00 04          	lea    0x4(%eax,%eax,1),%edx
    10f4:	c1 e2 03             	shl    $0x3,%edx
    10f7:	8d 83 60 01 00 00    	lea    0x160(%ebx),%eax
    10fd:	8b 8d 00 00 00 00    	mov    0x0(%ebp),%ecx
    1103:	66 c7 04 0a 68 00    	movw   $0x68,(%edx,%ecx,1)
    1109:	66 89 44 0a 02       	mov    %ax,0x2(%edx,%ecx,1)
    110e:	c1 c8 10             	ror    $0x10,%eax
    1111:	88 44 0a 04          	mov    %al,0x4(%edx,%ecx,1)
    1115:	c6 44 0a 05 89       	movb   $0x89,0x5(%edx,%ecx,1)
    111a:	c6 44 0a 06 00       	movb   $0x0,0x6(%edx,%ecx,1)
    111f:	88 64 0a 07          	mov    %ah,0x7(%edx,%ecx,1)
    1123:	c1 c8 10             	ror    $0x10,%eax
    1126:	8d 83 48 01 00 00    	lea    0x148(%ebx),%eax
    112c:	66 c7 44 0a 08 68 00 	movw   $0x68,0x8(%edx,%ecx,1)
    1133:	66 89 44 0a 0a       	mov    %ax,0xa(%edx,%ecx,1)
    1138:	c1 c8 10             	ror    $0x10,%eax
    113b:	88 44 0a 0c          	mov    %al,0xc(%edx,%ecx,1)
    113f:	c6 44 0a 0d 82       	movb   $0x82,0xd(%edx,%ecx,1)
    1144:	c6 44 0a 0e 00       	movb   $0x0,0xe(%edx,%ecx,1)
    1149:	88 64 0a 0f          	mov    %ah,0xf(%edx,%ecx,1)
    114d:	c1 c8 10             	ror    $0x10,%eax
    1150:	8b 85 00 00 00 00    	mov    0x0(%ebp),%eax
    1156:	8b 7c 24 20          	mov    0x20(%esp),%edi
    115a:	89 1c b8             	mov    %ebx,(%eax,%edi,4)
    115d:	8b 85 00 00 00 00    	mov    0x0(%ebp),%eax
    1163:	83 c4 0c             	add    $0xc,%esp
    1166:	5b                   	pop    %ebx
    1167:	5e                   	pop    %esi
    1168:	5f                   	pop    %edi
    1169:	5d                   	pop    %ebp
    116a:	c3                   	ret    
    116b:	b8 f5 ff ff ff       	mov    $0xfffffff5,%eax
    1170:	eb f1                	jmp    1163 <copy_process+0x285>

00001172 <find_empty_process>:
    1172:	57                   	push   %edi
    1173:	56                   	push   %esi
    1174:	53                   	push   %ebx
    1175:	e8 fc ff ff ff       	call   1176 <find_empty_process+0x4>
    117a:	81 c6 02 00 00 00    	add    $0x2,%esi
    1180:	8b 96 00 00 00 00    	mov    0x0(%esi),%edx
    1186:	bf 01 00 00 00       	mov    $0x1,%edi
    118b:	eb 1b                	jmp    11a8 <find_empty_process+0x36>
    118d:	89 fb                	mov    %edi,%ebx
    118f:	eb 1c                	jmp    11ad <find_empty_process+0x3b>
    1191:	83 c0 04             	add    $0x4,%eax
    1194:	39 c1                	cmp    %eax,%ecx
    1196:	74 23                	je     11bb <find_empty_process+0x49>
    1198:	8b 10                	mov    (%eax),%edx
    119a:	85 d2                	test   %edx,%edx
    119c:	74 f3                	je     1191 <find_empty_process+0x1f>
    119e:	8b 92 a8 00 00 00    	mov    0xa8(%edx),%edx
    11a4:	39 da                	cmp    %ebx,%edx
    11a6:	75 e9                	jne    1191 <find_empty_process+0x1f>
    11a8:	89 d3                	mov    %edx,%ebx
    11aa:	43                   	inc    %ebx
    11ab:	78 e0                	js     118d <find_empty_process+0x1b>
    11ad:	8b 86 00 00 00 00    	mov    0x0(%esi),%eax
    11b3:	8d 88 00 01 00 00    	lea    0x100(%eax),%ecx
    11b9:	eb dd                	jmp    1198 <find_empty_process+0x26>
    11bb:	89 9e 00 00 00 00    	mov    %ebx,0x0(%esi)
    11c1:	8b 86 00 00 00 00    	mov    0x0(%esi),%eax
    11c7:	83 78 04 00          	cmpl   $0x0,0x4(%eax)
    11cb:	74 20                	je     11ed <find_empty_process+0x7b>
    11cd:	b8 02 00 00 00       	mov    $0x2,%eax
    11d2:	8b 96 00 00 00 00    	mov    0x0(%esi),%edx
    11d8:	83 3c 82 00          	cmpl   $0x0,(%edx,%eax,4)
    11dc:	74 0b                	je     11e9 <find_empty_process+0x77>
    11de:	40                   	inc    %eax
    11df:	83 f8 40             	cmp    $0x40,%eax
    11e2:	75 f4                	jne    11d8 <find_empty_process+0x66>
    11e4:	b8 f5 ff ff ff       	mov    $0xfffffff5,%eax
    11e9:	5b                   	pop    %ebx
    11ea:	5e                   	pop    %esi
    11eb:	5f                   	pop    %edi
    11ec:	c3                   	ret    
    11ed:	b8 01 00 00 00       	mov    $0x1,%eax
    11f2:	eb f5                	jmp    11e9 <find_empty_process+0x77>

000011f4 <panic>:
    11f4:	53                   	push   %ebx
    11f5:	83 ec 10             	sub    $0x10,%esp
    11f8:	e8 fc ff ff ff       	call   11f9 <panic+0x5>
    11fd:	81 c3 02 00 00 00    	add    $0x2,%ebx
    1203:	ff 74 24 18          	pushl  0x18(%esp)
    1207:	8d 93 00 00 00 00    	lea    0x0(%ebx),%edx
    120d:	52                   	push   %edx
    120e:	e8 fc ff ff ff       	call   120f <panic+0x1b>
    1213:	83 c4 10             	add    $0x10,%esp
    1216:	eb fe                	jmp    1216 <panic+0x22>

00001218 <printk>:
    1218:	53                   	push   %ebx
    1219:	83 ec 0c             	sub    $0xc,%esp
    121c:	e8 fc ff ff ff       	call   121d <printk+0x5>
    1221:	81 c3 02 00 00 00    	add    $0x2,%ebx
    1227:	8d 44 24 18          	lea    0x18(%esp),%eax
    122b:	50                   	push   %eax
    122c:	ff 74 24 18          	pushl  0x18(%esp)
    1230:	8d 83 20 00 00 00    	lea    0x20(%ebx),%eax
    1236:	50                   	push   %eax
    1237:	e8 fc ff ff ff       	call   1238 <printk+0x20>
    123c:	89 c3                	mov    %eax,%ebx
    123e:	0f a0                	push   %fs
    1240:	1e                   	push   %ds
    1241:	0f a1                	pop    %fs
    1243:	53                   	push   %ebx
    1244:	68 00 00 00 00       	push   $0x0
    1249:	6a 00                	push   $0x0
    124b:	e8 fc ff ff ff       	call   124c <printk+0x34>
    1250:	83 c4 08             	add    $0x8,%esp
    1253:	5b                   	pop    %ebx
    1254:	0f a1                	pop    %fs
    1256:	89 d8                	mov    %ebx,%eax
    1258:	83 c4 18             	add    $0x18,%esp
    125b:	5b                   	pop    %ebx
    125c:	c3                   	ret    

0000125d <number>:
    125d:	55                   	push   %ebp
    125e:	57                   	push   %edi
    125f:	56                   	push   %esi
    1260:	53                   	push   %ebx
    1261:	83 ec 4c             	sub    $0x4c,%esp
    1264:	e8 fc ff ff ff       	call   1265 <number+0x8>
    1269:	81 c6 02 00 00 00    	add    $0x2,%esi
    126f:	89 c3                	mov    %eax,%ebx
    1271:	89 cf                	mov    %ecx,%edi
    1273:	65 a1 14 00 00 00    	mov    %gs:0x14,%eax
    1279:	89 44 24 3c          	mov    %eax,0x3c(%esp)
    127d:	31 c0                	xor    %eax,%eax
    127f:	f6 44 24 68 40       	testb  $0x40,0x68(%esp)
    1284:	74 5a                	je     12e0 <number+0x83>
    1286:	8d ae 00 00 00 00    	lea    0x0(%esi),%ebp
    128c:	f6 44 24 68 10       	testb  $0x10,0x68(%esp)
    1291:	74 05                	je     1298 <number+0x3b>
    1293:	83 64 24 68 fe       	andl   $0xfffffffe,0x68(%esp)
    1298:	8d 47 fe             	lea    -0x2(%edi),%eax
    129b:	83 f8 22             	cmp    $0x22,%eax
    129e:	0f 87 ce 01 00 00    	ja     1472 <number+0x215>
    12a4:	8b 44 24 68          	mov    0x68(%esp),%eax
    12a8:	83 e0 01             	and    $0x1,%eax
    12ab:	83 f8 01             	cmp    $0x1,%eax
    12ae:	19 c0                	sbb    %eax,%eax
    12b0:	83 e0 f0             	and    $0xfffffff0,%eax
    12b3:	83 c0 30             	add    $0x30,%eax
    12b6:	88 44 24 0b          	mov    %al,0xb(%esp)
    12ba:	f6 44 24 68 02       	testb  $0x2,0x68(%esp)
    12bf:	74 06                	je     12c7 <number+0x6a>
    12c1:	89 d0                	mov    %edx,%eax
    12c3:	85 d2                	test   %edx,%edx
    12c5:	78 21                	js     12e8 <number+0x8b>
    12c7:	f6 44 24 68 04       	testb  $0x4,0x68(%esp)
    12cc:	75 25                	jne    12f3 <number+0x96>
    12ce:	8b 44 24 68          	mov    0x68(%esp),%eax
    12d2:	c1 e0 02             	shl    $0x2,%eax
    12d5:	83 e0 20             	and    $0x20,%eax
    12d8:	88 44 24 0a          	mov    %al,0xa(%esp)
    12dc:	74 1e                	je     12fc <number+0x9f>
    12de:	eb 18                	jmp    12f8 <number+0x9b>
    12e0:	8d ae 00 00 00 00    	lea    0x0(%esi),%ebp
    12e6:	eb a4                	jmp    128c <number+0x2f>
    12e8:	f7 d8                	neg    %eax
    12ea:	89 c2                	mov    %eax,%edx
    12ec:	c6 44 24 0a 2d       	movb   $0x2d,0xa(%esp)
    12f1:	eb 05                	jmp    12f8 <number+0x9b>
    12f3:	c6 44 24 0a 2b       	movb   $0x2b,0xa(%esp)
    12f8:	ff 4c 24 60          	decl   0x60(%esp)
    12fc:	8b 44 24 68          	mov    0x68(%esp),%eax
    1300:	83 e0 20             	and    $0x20,%eax
    1303:	89 44 24 04          	mov    %eax,0x4(%esp)
    1307:	74 12                	je     131b <number+0xbe>
    1309:	83 ff 10             	cmp    $0x10,%edi
    130c:	0f 84 f4 00 00 00    	je     1406 <number+0x1a9>
    1312:	83 ff 08             	cmp    $0x8,%edi
    1315:	0f 84 f5 00 00 00    	je     1410 <number+0x1b3>
    131b:	85 d2                	test   %edx,%edx
    131d:	0f 85 f6 00 00 00    	jne    1419 <number+0x1bc>
    1323:	c6 44 24 18 30       	movb   $0x30,0x18(%esp)
    1328:	b9 01 00 00 00       	mov    $0x1,%ecx
    132d:	89 ce                	mov    %ecx,%esi
    132f:	3b 4c 24 64          	cmp    0x64(%esp),%ecx
    1333:	7d 04                	jge    1339 <number+0xdc>
    1335:	8b 74 24 64          	mov    0x64(%esp),%esi
    1339:	8b 44 24 60          	mov    0x60(%esp),%eax
    133d:	29 f0                	sub    %esi,%eax
    133f:	f6 44 24 68 11       	testb  $0x11,0x68(%esp)
    1344:	75 1b                	jne    1361 <number+0x104>
    1346:	8d 50 ff             	lea    -0x1(%eax),%edx
    1349:	85 c0                	test   %eax,%eax
    134b:	0f 8e f7 00 00 00    	jle    1448 <number+0x1eb>
    1351:	01 d8                	add    %ebx,%eax
    1353:	43                   	inc    %ebx
    1354:	c6 43 ff 20          	movb   $0x20,-0x1(%ebx)
    1358:	39 c3                	cmp    %eax,%ebx
    135a:	75 f7                	jne    1353 <number+0xf6>
    135c:	b8 ff ff ff ff       	mov    $0xffffffff,%eax
    1361:	8a 54 24 0a          	mov    0xa(%esp),%dl
    1365:	84 d2                	test   %dl,%dl
    1367:	74 05                	je     136e <number+0x111>
    1369:	88 13                	mov    %dl,(%ebx)
    136b:	8d 5b 01             	lea    0x1(%ebx),%ebx
    136e:	83 7c 24 04 00       	cmpl   $0x0,0x4(%esp)
    1373:	74 12                	je     1387 <number+0x12a>
    1375:	83 ff 08             	cmp    $0x8,%edi
    1378:	0f 84 d1 00 00 00    	je     144f <number+0x1f2>
    137e:	83 ff 10             	cmp    $0x10,%edi
    1381:	0f 84 d3 00 00 00    	je     145a <number+0x1fd>
    1387:	f6 44 24 68 10       	testb  $0x10,0x68(%esp)
    138c:	75 1e                	jne    13ac <number+0x14f>
    138e:	8d 50 ff             	lea    -0x1(%eax),%edx
    1391:	85 c0                	test   %eax,%eax
    1393:	0f 8e d2 00 00 00    	jle    146b <number+0x20e>
    1399:	01 d8                	add    %ebx,%eax
    139b:	8a 54 24 0b          	mov    0xb(%esp),%dl
    139f:	43                   	inc    %ebx
    13a0:	88 53 ff             	mov    %dl,-0x1(%ebx)
    13a3:	39 d8                	cmp    %ebx,%eax
    13a5:	75 f8                	jne    139f <number+0x142>
    13a7:	b8 ff ff ff ff       	mov    $0xffffffff,%eax
    13ac:	39 f1                	cmp    %esi,%ecx
    13ae:	7d 0d                	jge    13bd <number+0x160>
    13b0:	29 ce                	sub    %ecx,%esi
    13b2:	01 de                	add    %ebx,%esi
    13b4:	43                   	inc    %ebx
    13b5:	c6 43 ff 30          	movb   $0x30,-0x1(%ebx)
    13b9:	39 de                	cmp    %ebx,%esi
    13bb:	75 f7                	jne    13b4 <number+0x157>
    13bd:	8d 51 ff             	lea    -0x1(%ecx),%edx
    13c0:	85 c9                	test   %ecx,%ecx
    13c2:	7e 16                	jle    13da <number+0x17d>
    13c4:	89 de                	mov    %ebx,%esi
    13c6:	89 c7                	mov    %eax,%edi
    13c8:	46                   	inc    %esi
    13c9:	8a 44 14 18          	mov    0x18(%esp,%edx,1),%al
    13cd:	88 46 ff             	mov    %al,-0x1(%esi)
    13d0:	4a                   	dec    %edx
    13d1:	83 fa ff             	cmp    $0xffffffff,%edx
    13d4:	75 f2                	jne    13c8 <number+0x16b>
    13d6:	89 f8                	mov    %edi,%eax
    13d8:	01 cb                	add    %ecx,%ebx
    13da:	85 c0                	test   %eax,%eax
    13dc:	0f 8e 9a 00 00 00    	jle    147c <number+0x21f>
    13e2:	01 d8                	add    %ebx,%eax
    13e4:	43                   	inc    %ebx
    13e5:	c6 43 ff 20          	movb   $0x20,-0x1(%ebx)
    13e9:	39 c3                	cmp    %eax,%ebx
    13eb:	75 f7                	jne    13e4 <number+0x187>
    13ed:	8b 7c 24 3c          	mov    0x3c(%esp),%edi
    13f1:	65 33 3d 14 00 00 00 	xor    %gs:0x14,%edi
    13f8:	0f 85 85 00 00 00    	jne    1483 <number+0x226>
    13fe:	83 c4 4c             	add    $0x4c,%esp
    1401:	5b                   	pop    %ebx
    1402:	5e                   	pop    %esi
    1403:	5f                   	pop    %edi
    1404:	5d                   	pop    %ebp
    1405:	c3                   	ret    
    1406:	83 6c 24 60 02       	subl   $0x2,0x60(%esp)
    140b:	e9 0b ff ff ff       	jmp    131b <number+0xbe>
    1410:	ff 4c 24 60          	decl   0x60(%esp)
    1414:	e9 02 ff ff ff       	jmp    131b <number+0xbe>
    1419:	b9 00 00 00 00       	mov    $0x0,%ecx
    141e:	8d 74 24 17          	lea    0x17(%esp),%esi
    1422:	89 5c 24 0c          	mov    %ebx,0xc(%esp)
    1426:	89 d3                	mov    %edx,%ebx
    1428:	89 d8                	mov    %ebx,%eax
    142a:	ba 00 00 00 00       	mov    $0x0,%edx
    142f:	f7 f7                	div    %edi
    1431:	89 c3                	mov    %eax,%ebx
    1433:	41                   	inc    %ecx
    1434:	8a 54 15 00          	mov    0x0(%ebp,%edx,1),%dl
    1438:	88 14 0e             	mov    %dl,(%esi,%ecx,1)
    143b:	85 c0                	test   %eax,%eax
    143d:	75 e9                	jne    1428 <number+0x1cb>
    143f:	8b 5c 24 0c          	mov    0xc(%esp),%ebx
    1443:	e9 e5 fe ff ff       	jmp    132d <number+0xd0>
    1448:	89 d0                	mov    %edx,%eax
    144a:	e9 12 ff ff ff       	jmp    1361 <number+0x104>
    144f:	c6 03 30             	movb   $0x30,(%ebx)
    1452:	8d 5b 01             	lea    0x1(%ebx),%ebx
    1455:	e9 2d ff ff ff       	jmp    1387 <number+0x12a>
    145a:	c6 03 30             	movb   $0x30,(%ebx)
    145d:	8a 55 21             	mov    0x21(%ebp),%dl
    1460:	88 53 01             	mov    %dl,0x1(%ebx)
    1463:	8d 5b 02             	lea    0x2(%ebx),%ebx
    1466:	e9 1c ff ff ff       	jmp    1387 <number+0x12a>
    146b:	89 d0                	mov    %edx,%eax
    146d:	e9 3a ff ff ff       	jmp    13ac <number+0x14f>
    1472:	b8 00 00 00 00       	mov    $0x0,%eax
    1477:	e9 71 ff ff ff       	jmp    13ed <number+0x190>
    147c:	89 d8                	mov    %ebx,%eax
    147e:	e9 6a ff ff ff       	jmp    13ed <number+0x190>
    1483:	e8 fc ff ff ff       	call   1484 <number+0x227>

00001488 <vsprintf>:
    1488:	55                   	push   %ebp
    1489:	57                   	push   %edi
    148a:	56                   	push   %esi
    148b:	53                   	push   %ebx
    148c:	83 ec 1c             	sub    $0x1c,%esp
    148f:	e8 fc ff ff ff       	call   1490 <vsprintf+0x8>
    1494:	05 01 00 00 00       	add    $0x1,%eax
    1499:	89 04 24             	mov    %eax,(%esp)
    149c:	8b 44 24 34          	mov    0x34(%esp),%eax
    14a0:	8b 7c 24 38          	mov    0x38(%esp),%edi
    14a4:	8a 10                	mov    (%eax),%dl
    14a6:	84 d2                	test   %dl,%dl
    14a8:	0f 84 8c 03 00 00    	je     183a <.L71+0x40>
    14ae:	8b 6c 24 30          	mov    0x30(%esp),%ebp
    14b2:	e9 f6 02 00 00       	jmp    17ad <.L72+0x34>
    14b7:	ba 00 00 00 00       	mov    $0x0,%edx
    14bc:	89 7c 24 38          	mov    %edi,0x38(%esp)
    14c0:	eb 03                	jmp    14c5 <.L58+0x3>

000014c2 <.L58>:
    14c2:	83 ca 10             	or     $0x10,%edx
    14c5:	40                   	inc    %eax
    14c6:	8a 18                	mov    (%eax),%bl
    14c8:	8d 4b e0             	lea    -0x20(%ebx),%ecx
    14cb:	80 f9 10             	cmp    $0x10,%cl
    14ce:	77 25                	ja     14f5 <.L53>
    14d0:	0f b6 c9             	movzbl %cl,%ecx
    14d3:	8b 34 24             	mov    (%esp),%esi
    14d6:	89 f7                	mov    %esi,%edi
    14d8:	03 bc 8e 48 00 00 00 	add    0x48(%esi,%ecx,4),%edi
    14df:	ff e7                	jmp    *%edi

000014e1 <.L57>:
    14e1:	83 ca 04             	or     $0x4,%edx
    14e4:	eb df                	jmp    14c5 <.L58+0x3>

000014e6 <.L54>:
    14e6:	83 ca 08             	or     $0x8,%edx
    14e9:	eb da                	jmp    14c5 <.L58+0x3>

000014eb <.L56>:
    14eb:	83 ca 20             	or     $0x20,%edx
    14ee:	eb d5                	jmp    14c5 <.L58+0x3>

000014f0 <.L59>:
    14f0:	83 ca 01             	or     $0x1,%edx
    14f3:	eb d0                	jmp    14c5 <.L58+0x3>

000014f5 <.L53>:
    14f5:	8b 7c 24 38          	mov    0x38(%esp),%edi
    14f9:	8d 4b d0             	lea    -0x30(%ebx),%ecx
    14fc:	80 f9 09             	cmp    $0x9,%cl
    14ff:	76 38                	jbe    1539 <.L53+0x44>
    1501:	80 fb 2a             	cmp    $0x2a,%bl
    1504:	74 5f                	je     1565 <.L53+0x70>
    1506:	c7 44 24 04 ff ff ff 	movl   $0xffffffff,0x4(%esp)
    150d:	ff 
    150e:	80 38 2e             	cmpb   $0x2e,(%eax)
    1511:	74 78                	je     158b <.L53+0x96>
    1513:	c7 44 24 08 ff ff ff 	movl   $0xffffffff,0x8(%esp)
    151a:	ff 
    151b:	8a 08                	mov    (%eax),%cl
    151d:	80 f9 68             	cmp    $0x68,%cl
    1520:	0f 84 d2 00 00 00    	je     15f8 <.L53+0x103>
    1526:	83 e1 df             	and    $0xffffffdf,%ecx
    1529:	80 f9 4c             	cmp    $0x4c,%cl
    152c:	0f 84 c6 00 00 00    	je     15f8 <.L53+0x103>
    1532:	89 c3                	mov    %eax,%ebx
    1534:	e9 c2 00 00 00       	jmp    15fb <.L53+0x106>
    1539:	8a 08                	mov    (%eax),%cl
    153b:	8d 59 d0             	lea    -0x30(%ecx),%ebx
    153e:	80 fb 09             	cmp    $0x9,%bl
    1541:	77 3e                	ja     1581 <.L53+0x8c>
    1543:	be 00 00 00 00       	mov    $0x0,%esi
    1548:	40                   	inc    %eax
    1549:	8d 1c b6             	lea    (%esi,%esi,4),%ebx
    154c:	01 db                	add    %ebx,%ebx
    154e:	0f be c9             	movsbl %cl,%ecx
    1551:	8d 74 0b d0          	lea    -0x30(%ebx,%ecx,1),%esi
    1555:	8a 08                	mov    (%eax),%cl
    1557:	8d 59 d0             	lea    -0x30(%ecx),%ebx
    155a:	80 fb 09             	cmp    $0x9,%bl
    155d:	76 e9                	jbe    1548 <.L53+0x53>
    155f:	89 74 24 04          	mov    %esi,0x4(%esp)
    1563:	eb a9                	jmp    150e <.L53+0x19>
    1565:	8d 4f 04             	lea    0x4(%edi),%ecx
    1568:	8b 3f                	mov    (%edi),%edi
    156a:	89 7c 24 04          	mov    %edi,0x4(%esp)
    156e:	85 ff                	test   %edi,%edi
    1570:	78 04                	js     1576 <.L53+0x81>
    1572:	89 cf                	mov    %ecx,%edi
    1574:	eb 98                	jmp    150e <.L53+0x19>
    1576:	f7 5c 24 04          	negl   0x4(%esp)
    157a:	83 ca 10             	or     $0x10,%edx
    157d:	89 cf                	mov    %ecx,%edi
    157f:	eb 8d                	jmp    150e <.L53+0x19>
    1581:	c7 44 24 04 00 00 00 	movl   $0x0,0x4(%esp)
    1588:	00 
    1589:	eb 83                	jmp    150e <.L53+0x19>
    158b:	8d 48 01             	lea    0x1(%eax),%ecx
    158e:	8a 40 01             	mov    0x1(%eax),%al
    1591:	8d 58 d0             	lea    -0x30(%eax),%ebx
    1594:	80 fb 09             	cmp    $0x9,%bl
    1597:	76 13                	jbe    15ac <.L53+0xb7>
    1599:	3c 2a                	cmp    $0x2a,%al
    159b:	74 4a                	je     15e7 <.L53+0xf2>
    159d:	89 c8                	mov    %ecx,%eax
    159f:	c7 44 24 08 00 00 00 	movl   $0x0,0x8(%esp)
    15a6:	00 
    15a7:	e9 6f ff ff ff       	jmp    151b <.L53+0x26>
    15ac:	bb 00 00 00 00       	mov    $0x0,%ebx
    15b1:	89 54 24 08          	mov    %edx,0x8(%esp)
    15b5:	8b 74 24 04          	mov    0x4(%esp),%esi
    15b9:	41                   	inc    %ecx
    15ba:	8d 14 9b             	lea    (%ebx,%ebx,4),%edx
    15bd:	01 d2                	add    %edx,%edx
    15bf:	0f be c0             	movsbl %al,%eax
    15c2:	8d 5c 02 d0          	lea    -0x30(%edx,%eax,1),%ebx
    15c6:	8a 01                	mov    (%ecx),%al
    15c8:	8d 50 d0             	lea    -0x30(%eax),%edx
    15cb:	80 fa 09             	cmp    $0x9,%dl
    15ce:	76 e9                	jbe    15b9 <.L53+0xc4>
    15d0:	8b 54 24 08          	mov    0x8(%esp),%edx
    15d4:	89 74 24 04          	mov    %esi,0x4(%esp)
    15d8:	89 5c 24 08          	mov    %ebx,0x8(%esp)
    15dc:	85 db                	test   %ebx,%ebx
    15de:	78 0e                	js     15ee <.L53+0xf9>
    15e0:	89 c8                	mov    %ecx,%eax
    15e2:	e9 34 ff ff ff       	jmp    151b <.L53+0x26>
    15e7:	8b 1f                	mov    (%edi),%ebx
    15e9:	8d 7f 04             	lea    0x4(%edi),%edi
    15ec:	eb ea                	jmp    15d8 <.L53+0xe3>
    15ee:	c7 44 24 08 00 00 00 	movl   $0x0,0x8(%esp)
    15f5:	00 
    15f6:	eb e8                	jmp    15e0 <.L53+0xeb>
    15f8:	8d 58 01             	lea    0x1(%eax),%ebx
    15fb:	8a 03                	mov    (%ebx),%al
    15fd:	88 44 24 0c          	mov    %al,0xc(%esp)
    1601:	83 e8 58             	sub    $0x58,%eax
    1604:	3c 20                	cmp    $0x20,%al
    1606:	0f 87 ee 01 00 00    	ja     17fa <.L71>
    160c:	0f b6 c0             	movzbl %al,%eax
    160f:	8b 34 24             	mov    (%esp),%esi
    1612:	03 b4 86 8c 00 00 00 	add    0x8c(%esi,%eax,4),%esi
    1619:	ff e6                	jmp    *%esi

0000161b <.L74>:
    161b:	f6 c2 10             	test   $0x10,%dl
    161e:	74 32                	je     1652 <.L74+0x37>
    1620:	8d 57 04             	lea    0x4(%edi),%edx
    1623:	8d 45 01             	lea    0x1(%ebp),%eax
    1626:	8b 0f                	mov    (%edi),%ecx
    1628:	88 4d 00             	mov    %cl,0x0(%ebp)
    162b:	8b 7c 24 04          	mov    0x4(%esp),%edi
    162f:	8d 4f ff             	lea    -0x1(%edi),%ecx
    1632:	85 c9                	test   %ecx,%ecx
    1634:	0f 8e ee 01 00 00    	jle    1828 <.L71+0x2e>
    163a:	89 f9                	mov    %edi,%ecx
    163c:	89 fe                	mov    %edi,%esi
    163e:	01 ee                	add    %ebp,%esi
    1640:	40                   	inc    %eax
    1641:	c6 40 ff 20          	movb   $0x20,-0x1(%eax)
    1645:	39 c6                	cmp    %eax,%esi
    1647:	75 f7                	jne    1640 <.L74+0x25>
    1649:	01 cd                	add    %ecx,%ebp
    164b:	89 d7                	mov    %edx,%edi
    164d:	e9 4d 01 00 00       	jmp    179f <.L72+0x26>
    1652:	8b 54 24 04          	mov    0x4(%esp),%edx
    1656:	8d 42 ff             	lea    -0x1(%edx),%eax
    1659:	85 c0                	test   %eax,%eax
    165b:	7e 17                	jle    1674 <.L74+0x59>
    165d:	8d 44 15 ff          	lea    -0x1(%ebp,%edx,1),%eax
    1661:	45                   	inc    %ebp
    1662:	c6 45 ff 20          	movb   $0x20,-0x1(%ebp)
    1666:	39 e8                	cmp    %ebp,%eax
    1668:	75 f7                	jne    1661 <.L74+0x46>
    166a:	c7 44 24 04 00 00 00 	movl   $0x0,0x4(%esp)
    1671:	00 
    1672:	eb ac                	jmp    1620 <.L74+0x5>
    1674:	89 44 24 04          	mov    %eax,0x4(%esp)
    1678:	eb a6                	jmp    1620 <.L74+0x5>

0000167a <.L79>:
    167a:	8d 47 04             	lea    0x4(%edi),%eax
    167d:	89 44 24 0c          	mov    %eax,0xc(%esp)
    1681:	8b 3f                	mov    (%edi),%edi
    1683:	b9 ff ff ff ff       	mov    $0xffffffff,%ecx
    1688:	b8 00 00 00 00       	mov    $0x0,%eax
    168d:	fc                   	cld    
    168e:	f2 ae                	repnz scas %es:(%edi),%al
    1690:	f7 d1                	not    %ecx
    1692:	49                   	dec    %ecx
    1693:	8b 44 24 08          	mov    0x8(%esp),%eax
    1697:	85 c0                	test   %eax,%eax
    1699:	78 06                	js     16a1 <.L79+0x27>
    169b:	39 c1                	cmp    %eax,%ecx
    169d:	7e 02                	jle    16a1 <.L79+0x27>
    169f:	89 c1                	mov    %eax,%ecx
    16a1:	f6 c2 10             	test   $0x10,%dl
    16a4:	74 43                	je     16e9 <.L79+0x6f>
    16a6:	85 c9                	test   %ecx,%ecx
    16a8:	7e 1b                	jle    16c5 <.L79+0x4b>
    16aa:	b8 00 00 00 00       	mov    $0x0,%eax
    16af:	8b 74 24 04          	mov    0x4(%esp),%esi
    16b3:	8a 14 07             	mov    (%edi,%eax,1),%dl
    16b6:	88 54 05 00          	mov    %dl,0x0(%ebp,%eax,1)
    16ba:	40                   	inc    %eax
    16bb:	39 c1                	cmp    %eax,%ecx
    16bd:	75 f4                	jne    16b3 <.L79+0x39>
    16bf:	89 74 24 04          	mov    %esi,0x4(%esp)
    16c3:	01 c5                	add    %eax,%ebp
    16c5:	8b 44 24 04          	mov    0x4(%esp),%eax
    16c9:	39 c1                	cmp    %eax,%ecx
    16cb:	0f 8d 60 01 00 00    	jge    1831 <.L71+0x37>
    16d1:	29 c8                	sub    %ecx,%eax
    16d3:	8d 44 05 00          	lea    0x0(%ebp,%eax,1),%eax
    16d7:	45                   	inc    %ebp
    16d8:	c6 45 ff 20          	movb   $0x20,-0x1(%ebp)
    16dc:	39 c5                	cmp    %eax,%ebp
    16de:	75 f7                	jne    16d7 <.L79+0x5d>
    16e0:	8b 7c 24 0c          	mov    0xc(%esp),%edi
    16e4:	e9 b6 00 00 00       	jmp    179f <.L72+0x26>
    16e9:	8b 54 24 04          	mov    0x4(%esp),%edx
    16ed:	8d 42 ff             	lea    -0x1(%edx),%eax
    16f0:	39 d1                	cmp    %edx,%ecx
    16f2:	7d 18                	jge    170c <.L79+0x92>
    16f4:	89 c8                	mov    %ecx,%eax
    16f6:	29 ca                	sub    %ecx,%edx
    16f8:	8d 54 15 00          	lea    0x0(%ebp,%edx,1),%edx
    16fc:	45                   	inc    %ebp
    16fd:	c6 45 ff 20          	movb   $0x20,-0x1(%ebp)
    1701:	39 d5                	cmp    %edx,%ebp
    1703:	75 f7                	jne    16fc <.L79+0x82>
    1705:	48                   	dec    %eax
    1706:	89 44 24 04          	mov    %eax,0x4(%esp)
    170a:	eb 9a                	jmp    16a6 <.L79+0x2c>
    170c:	89 44 24 04          	mov    %eax,0x4(%esp)
    1710:	eb 94                	jmp    16a6 <.L79+0x2c>

00001712 <.L77>:
    1712:	8d 47 04             	lea    0x4(%edi),%eax
    1715:	89 c6                	mov    %eax,%esi
    1717:	83 ec 04             	sub    $0x4,%esp
    171a:	52                   	push   %edx
    171b:	ff 74 24 10          	pushl  0x10(%esp)
    171f:	ff 74 24 10          	pushl  0x10(%esp)
    1723:	b9 08 00 00 00       	mov    $0x8,%ecx
    1728:	8b 17                	mov    (%edi),%edx
    172a:	89 e8                	mov    %ebp,%eax
    172c:	e8 2c fb ff ff       	call   125d <number>
    1731:	89 c5                	mov    %eax,%ebp
    1733:	83 c4 10             	add    $0x10,%esp
    1736:	89 f7                	mov    %esi,%edi
    1738:	eb 65                	jmp    179f <.L72+0x26>

0000173a <.L78>:
    173a:	83 7c 24 04 ff       	cmpl   $0xffffffff,0x4(%esp)
    173f:	74 28                	je     1769 <.L78+0x2f>
    1741:	8d 47 04             	lea    0x4(%edi),%eax
    1744:	89 c6                	mov    %eax,%esi
    1746:	83 ec 04             	sub    $0x4,%esp
    1749:	52                   	push   %edx
    174a:	ff 74 24 10          	pushl  0x10(%esp)
    174e:	ff 74 24 10          	pushl  0x10(%esp)
    1752:	b9 10 00 00 00       	mov    $0x10,%ecx
    1757:	8b 17                	mov    (%edi),%edx
    1759:	89 e8                	mov    %ebp,%eax
    175b:	e8 fd fa ff ff       	call   125d <number>
    1760:	89 c5                	mov    %eax,%ebp
    1762:	83 c4 10             	add    $0x10,%esp
    1765:	89 f7                	mov    %esi,%edi
    1767:	eb 36                	jmp    179f <.L72+0x26>
    1769:	83 ca 01             	or     $0x1,%edx
    176c:	c7 44 24 04 08 00 00 	movl   $0x8,0x4(%esp)
    1773:	00 
    1774:	eb cb                	jmp    1741 <.L78+0x7>

00001776 <.L81>:
    1776:	83 ca 40             	or     $0x40,%edx

00001779 <.L72>:
    1779:	8d 47 04             	lea    0x4(%edi),%eax
    177c:	89 c6                	mov    %eax,%esi
    177e:	83 ec 04             	sub    $0x4,%esp
    1781:	52                   	push   %edx
    1782:	ff 74 24 10          	pushl  0x10(%esp)
    1786:	ff 74 24 10          	pushl  0x10(%esp)
    178a:	b9 10 00 00 00       	mov    $0x10,%ecx
    178f:	8b 17                	mov    (%edi),%edx
    1791:	89 e8                	mov    %ebp,%eax
    1793:	e8 c5 fa ff ff       	call   125d <number>
    1798:	89 c5                	mov    %eax,%ebp
    179a:	83 c4 10             	add    $0x10,%esp
    179d:	89 f7                	mov    %esi,%edi
    179f:	8d 43 01             	lea    0x1(%ebx),%eax
    17a2:	8a 53 01             	mov    0x1(%ebx),%dl
    17a5:	84 d2                	test   %dl,%dl
    17a7:	0f 84 91 00 00 00    	je     183e <.L71+0x44>
    17ad:	80 fa 25             	cmp    $0x25,%dl
    17b0:	0f 84 01 fd ff ff    	je     14b7 <vsprintf+0x2f>
    17b6:	88 55 00             	mov    %dl,0x0(%ebp)
    17b9:	89 c3                	mov    %eax,%ebx
    17bb:	8d 6d 01             	lea    0x1(%ebp),%ebp
    17be:	eb df                	jmp    179f <.L72+0x26>

000017c0 <.L75>:
    17c0:	83 ca 02             	or     $0x2,%edx

000017c3 <.L80>:
    17c3:	8d 47 04             	lea    0x4(%edi),%eax
    17c6:	89 c6                	mov    %eax,%esi
    17c8:	83 ec 04             	sub    $0x4,%esp
    17cb:	52                   	push   %edx
    17cc:	ff 74 24 10          	pushl  0x10(%esp)
    17d0:	ff 74 24 10          	pushl  0x10(%esp)
    17d4:	b9 0a 00 00 00       	mov    $0xa,%ecx
    17d9:	8b 17                	mov    (%edi),%edx
    17db:	89 e8                	mov    %ebp,%eax
    17dd:	e8 7b fa ff ff       	call   125d <number>
    17e2:	89 c5                	mov    %eax,%ebp
    17e4:	83 c4 10             	add    $0x10,%esp
    17e7:	89 f7                	mov    %esi,%edi
    17e9:	eb b4                	jmp    179f <.L72+0x26>

000017eb <.L76>:
    17eb:	8b 07                	mov    (%edi),%eax
    17ed:	89 ea                	mov    %ebp,%edx
    17ef:	2b 54 24 30          	sub    0x30(%esp),%edx
    17f3:	89 10                	mov    %edx,(%eax)
    17f5:	8d 7f 04             	lea    0x4(%edi),%edi
    17f8:	eb a5                	jmp    179f <.L72+0x26>

000017fa <.L71>:
    17fa:	80 7c 24 0c 25       	cmpb   $0x25,0xc(%esp)
    17ff:	74 18                	je     1819 <.L71+0x1f>
    1801:	8d 45 01             	lea    0x1(%ebp),%eax
    1804:	c6 45 00 25          	movb   $0x25,0x0(%ebp)
    1808:	8a 13                	mov    (%ebx),%dl
    180a:	88 54 24 0c          	mov    %dl,0xc(%esp)
    180e:	84 d2                	test   %dl,%dl
    1810:	75 05                	jne    1817 <.L71+0x1d>
    1812:	4b                   	dec    %ebx
    1813:	89 c5                	mov    %eax,%ebp
    1815:	eb 88                	jmp    179f <.L72+0x26>
    1817:	89 c5                	mov    %eax,%ebp
    1819:	8a 44 24 0c          	mov    0xc(%esp),%al
    181d:	88 45 00             	mov    %al,0x0(%ebp)
    1820:	8d 6d 01             	lea    0x1(%ebp),%ebp
    1823:	e9 77 ff ff ff       	jmp    179f <.L72+0x26>
    1828:	89 c5                	mov    %eax,%ebp
    182a:	89 d7                	mov    %edx,%edi
    182c:	e9 6e ff ff ff       	jmp    179f <.L72+0x26>
    1831:	8b 7c 24 0c          	mov    0xc(%esp),%edi
    1835:	e9 65 ff ff ff       	jmp    179f <.L72+0x26>
    183a:	8b 6c 24 30          	mov    0x30(%esp),%ebp
    183e:	c6 45 00 00          	movb   $0x0,0x0(%ebp)
    1842:	89 e8                	mov    %ebp,%eax
    1844:	2b 44 24 30          	sub    0x30(%esp),%eax
    1848:	83 c4 1c             	add    $0x1c,%esp
    184b:	5b                   	pop    %ebx
    184c:	5e                   	pop    %esi
    184d:	5f                   	pop    %edi
    184e:	5d                   	pop    %ebp
    184f:	c3                   	ret    

00001850 <tty_init>:
    1850:	53                   	push   %ebx
    1851:	83 ec 08             	sub    $0x8,%esp
    1854:	e8 fc ff ff ff       	call   1855 <tty_init+0x5>
    1859:	81 c3 02 00 00 00    	add    $0x2,%ebx
    185f:	e8 fc ff ff ff       	call   1860 <tty_init+0x10>
    1864:	e8 fc ff ff ff       	call   1865 <tty_init+0x15>
    1869:	83 c4 08             	add    $0x8,%esp
    186c:	5b                   	pop    %ebx
    186d:	c3                   	ret    

0000186e <tty_intr>:
    186e:	57                   	push   %edi
    186f:	56                   	push   %esi
    1870:	53                   	push   %ebx
    1871:	e8 fc ff ff ff       	call   1872 <tty_intr+0x4>
    1876:	05 01 00 00 00       	add    $0x1,%eax
    187b:	8b 5c 24 10          	mov    0x10(%esp),%ebx
    187f:	83 7b 24 00          	cmpl   $0x0,0x24(%ebx)
    1883:	7e 39                	jle    18be <tty_intr+0x50>
    1885:	8b 74 24 14          	mov    0x14(%esp),%esi
    1889:	8d 4e ff             	lea    -0x1(%esi),%ecx
    188c:	be 01 00 00 00       	mov    $0x1,%esi
    1891:	d3 e6                	shl    %cl,%esi
    1893:	8b 80 00 00 00 00    	mov    0x0(%eax),%eax
    1899:	8d 88 00 01 00 00    	lea    0x100(%eax),%ecx
    189f:	eb 07                	jmp    18a8 <tty_intr+0x3a>
    18a1:	83 c0 04             	add    $0x4,%eax
    18a4:	39 c8                	cmp    %ecx,%eax
    18a6:	74 16                	je     18be <tty_intr+0x50>
    18a8:	8b 10                	mov    (%eax),%edx
    18aa:	85 d2                	test   %edx,%edx
    18ac:	74 f3                	je     18a1 <tty_intr+0x33>
    18ae:	8b 7b 24             	mov    0x24(%ebx),%edi
    18b1:	39 ba b0 00 00 00    	cmp    %edi,0xb0(%edx)
    18b7:	75 e8                	jne    18a1 <tty_intr+0x33>
    18b9:	09 72 0c             	or     %esi,0xc(%edx)
    18bc:	eb e3                	jmp    18a1 <tty_intr+0x33>
    18be:	5b                   	pop    %ebx
    18bf:	5e                   	pop    %esi
    18c0:	5f                   	pop    %edi
    18c1:	c3                   	ret    

000018c2 <copy_to_cooked>:
    18c2:	55                   	push   %ebp
    18c3:	57                   	push   %edi
    18c4:	56                   	push   %esi
    18c5:	53                   	push   %ebx
    18c6:	83 ec 1c             	sub    $0x1c,%esp
    18c9:	e8 fc ff ff ff       	call   18ca <copy_to_cooked+0x8>
    18ce:	05 01 00 00 00       	add    $0x1,%eax
    18d3:	89 44 24 0c          	mov    %eax,0xc(%esp)
    18d7:	8b 74 24 30          	mov    0x30(%esp),%esi
    18db:	8b 80 00 00 00 00    	mov    0x0(%eax),%eax
    18e1:	89 44 24 08          	mov    %eax,0x8(%esp)
    18e5:	e9 6d 01 00 00       	jmp    1a57 <copy_to_cooked+0x195>
    18ea:	8b 06                	mov    (%esi),%eax
    18ec:	f6 c4 01             	test   $0x1,%ah
    18ef:	75 1d                	jne    190e <copy_to_cooked+0x4c>
    18f1:	a8 80                	test   $0x80,%al
    18f3:	0f 84 a2 01 00 00    	je     1a9b <copy_to_cooked+0x1d9>
    18f9:	e9 59 01 00 00       	jmp    1a57 <copy_to_cooked+0x195>
    18fe:	f6 06 40             	testb  $0x40,(%esi)
    1901:	0f 84 94 01 00 00    	je     1a9b <copy_to_cooked+0x1d9>
    1907:	b3 0d                	mov    $0xd,%bl
    1909:	e9 8d 01 00 00       	jmp    1a9b <copy_to_cooked+0x1d9>
    190e:	b3 0a                	mov    $0xa,%bl
    1910:	e9 86 01 00 00       	jmp    1a9b <copy_to_cooked+0x1d9>
    1915:	39 d1                	cmp    %edx,%ecx
    1917:	0f 84 3a 01 00 00    	je     1a57 <copy_to_cooked+0x195>
    191d:	4a                   	dec    %edx
    191e:	81 e2 ff 03 00 00    	and    $0x3ff,%edx
    1924:	8a 8c 16 60 08 00 00 	mov    0x860(%esi,%edx,1),%cl
    192b:	80 f9 0a             	cmp    $0xa,%cl
    192e:	0f 84 23 01 00 00    	je     1a57 <copy_to_cooked+0x195>
    1934:	0f be d1             	movsbl %cl,%edx
    1937:	0f b6 5e 15          	movzbl 0x15(%esi),%ebx
    193b:	39 da                	cmp    %ebx,%edx
    193d:	0f 84 14 01 00 00    	je     1a57 <copy_to_cooked+0x195>
    1943:	a8 08                	test   $0x8,%al
    1945:	74 43                	je     198a <copy_to_cooked+0xc8>
    1947:	80 f9 1f             	cmp    $0x1f,%cl
    194a:	7f 1a                	jg     1966 <copy_to_cooked+0xa4>
    194c:	8b 86 44 04 00 00    	mov    0x444(%esi),%eax
    1952:	c6 84 06 50 04 00 00 	movb   $0x7f,0x450(%esi,%eax,1)
    1959:	7f 
    195a:	40                   	inc    %eax
    195b:	25 ff 03 00 00       	and    $0x3ff,%eax
    1960:	89 86 44 04 00 00    	mov    %eax,0x444(%esi)
    1966:	8b 86 44 04 00 00    	mov    0x444(%esi),%eax
    196c:	c6 84 06 50 04 00 00 	movb   $0x7f,0x450(%esi,%eax,1)
    1973:	7f 
    1974:	40                   	inc    %eax
    1975:	25 ff 03 00 00       	and    $0x3ff,%eax
    197a:	89 86 44 04 00 00    	mov    %eax,0x444(%esi)
    1980:	83 ec 0c             	sub    $0xc,%esp
    1983:	56                   	push   %esi
    1984:	ff 56 2c             	call   *0x2c(%esi)
    1987:	83 c4 10             	add    $0x10,%esp
    198a:	8b 86 54 08 00 00    	mov    0x854(%esi),%eax
    1990:	48                   	dec    %eax
    1991:	25 ff 03 00 00       	and    $0x3ff,%eax
    1996:	89 86 54 08 00 00    	mov    %eax,0x854(%esi)
    199c:	e9 b6 00 00 00       	jmp    1a57 <copy_to_cooked+0x195>
    19a1:	c7 46 28 01 00 00 00 	movl   $0x1,0x28(%esi)
    19a8:	e9 aa 00 00 00       	jmp    1a57 <copy_to_cooked+0x195>
    19ad:	c7 46 28 00 00 00 00 	movl   $0x0,0x28(%esi)
    19b4:	e9 9e 00 00 00       	jmp    1a57 <copy_to_cooked+0x195>
    19b9:	83 ec 08             	sub    $0x8,%esp
    19bc:	6a 02                	push   $0x2
    19be:	56                   	push   %esi
    19bf:	e8 fc ff ff ff       	call   19c0 <copy_to_cooked+0xfe>
    19c4:	83 c4 10             	add    $0x10,%esp
    19c7:	e9 8b 00 00 00       	jmp    1a57 <copy_to_cooked+0x195>
    19cc:	8b 86 44 04 00 00    	mov    0x444(%esi),%eax
    19d2:	88 9c 06 50 04 00 00 	mov    %bl,0x450(%esi,%eax,1)
    19d9:	40                   	inc    %eax
    19da:	25 ff 03 00 00       	and    $0x3ff,%eax
    19df:	89 86 44 04 00 00    	mov    %eax,0x444(%esi)
    19e5:	eb 4d                	jmp    1a34 <copy_to_cooked+0x172>
    19e7:	83 ec 0c             	sub    $0xc,%esp
    19ea:	81 c6 5c 08 00 00    	add    $0x85c,%esi
    19f0:	56                   	push   %esi
    19f1:	8b 5c 24 1c          	mov    0x1c(%esp),%ebx
    19f5:	e8 fc ff ff ff       	call   19f6 <copy_to_cooked+0x134>
    19fa:	83 c4 2c             	add    $0x2c,%esp
    19fd:	5b                   	pop    %ebx
    19fe:	5e                   	pop    %esi
    19ff:	5f                   	pop    %edi
    1a00:	5d                   	pop    %ebp
    1a01:	c3                   	ret    
    1a02:	ff 86 50 08 00 00    	incl   0x850(%esi)
    1a08:	a8 08                	test   $0x8,%al
    1a0a:	74 32                	je     1a3e <copy_to_cooked+0x17c>
    1a0c:	8b 86 44 04 00 00    	mov    0x444(%esi),%eax
    1a12:	c6 84 06 50 04 00 00 	movb   $0xa,0x450(%esi,%eax,1)
    1a19:	0a 
    1a1a:	40                   	inc    %eax
    1a1b:	25 ff 03 00 00       	and    $0x3ff,%eax
    1a20:	c6 84 06 50 04 00 00 	movb   $0xd,0x450(%esi,%eax,1)
    1a27:	0d 
    1a28:	40                   	inc    %eax
    1a29:	25 ff 03 00 00       	and    $0x3ff,%eax
    1a2e:	89 86 44 04 00 00    	mov    %eax,0x444(%esi)
    1a34:	83 ec 0c             	sub    $0xc,%esp
    1a37:	56                   	push   %esi
    1a38:	ff 56 2c             	call   *0x2c(%esi)
    1a3b:	83 c4 10             	add    $0x10,%esp
    1a3e:	8b 86 54 08 00 00    	mov    0x854(%esi),%eax
    1a44:	88 9c 06 60 08 00 00 	mov    %bl,0x860(%esi,%eax,1)
    1a4b:	40                   	inc    %eax
    1a4c:	25 ff 03 00 00       	and    $0x3ff,%eax
    1a51:	89 86 54 08 00 00    	mov    %eax,0x854(%esi)
    1a57:	8b 46 38             	mov    0x38(%esi),%eax
    1a5a:	39 46 34             	cmp    %eax,0x34(%esi)
    1a5d:	74 88                	je     19e7 <copy_to_cooked+0x125>
    1a5f:	8b 8e 58 08 00 00    	mov    0x858(%esi),%ecx
    1a65:	8b 96 54 08 00 00    	mov    0x854(%esi),%edx
    1a6b:	8d 59 ff             	lea    -0x1(%ecx),%ebx
    1a6e:	29 d3                	sub    %edx,%ebx
    1a70:	f7 c3 ff 03 00 00    	test   $0x3ff,%ebx
    1a76:	0f 84 6b ff ff ff    	je     19e7 <copy_to_cooked+0x125>
    1a7c:	8a 5c 06 40          	mov    0x40(%esi,%eax,1),%bl
    1a80:	40                   	inc    %eax
    1a81:	25 ff 03 00 00       	and    $0x3ff,%eax
    1a86:	89 46 38             	mov    %eax,0x38(%esi)
    1a89:	80 fb 0d             	cmp    $0xd,%bl
    1a8c:	0f 84 58 fe ff ff    	je     18ea <copy_to_cooked+0x28>
    1a92:	80 fb 0a             	cmp    $0xa,%bl
    1a95:	0f 84 63 fe ff ff    	je     18fe <copy_to_cooked+0x3c>
    1a9b:	f7 06 00 02 00 00    	testl  $0x200,(%esi)
    1aa1:	74 11                	je     1ab4 <copy_to_cooked+0x1f2>
    1aa3:	0f be c3             	movsbl %bl,%eax
    1aa6:	8b 7c 24 08          	mov    0x8(%esp),%edi
    1aaa:	f6 44 38 01 01       	testb  $0x1,0x1(%eax,%edi,1)
    1aaf:	74 03                	je     1ab4 <copy_to_cooked+0x1f2>
    1ab1:	83 eb 5e             	sub    $0x5e,%ebx
    1ab4:	8b 46 0c             	mov    0xc(%esi),%eax
    1ab7:	a8 02                	test   $0x2,%al
    1ab9:	74 27                	je     1ae2 <copy_to_cooked+0x220>
    1abb:	0f be fb             	movsbl %bl,%edi
    1abe:	0f b6 6e 13          	movzbl 0x13(%esi),%ebp
    1ac2:	39 ef                	cmp    %ebp,%edi
    1ac4:	0f 84 4b fe ff ff    	je     1915 <copy_to_cooked+0x53>
    1aca:	0f b6 56 1a          	movzbl 0x1a(%esi),%edx
    1ace:	39 d7                	cmp    %edx,%edi
    1ad0:	0f 84 cb fe ff ff    	je     19a1 <copy_to_cooked+0xdf>
    1ad6:	0f b6 56 19          	movzbl 0x19(%esi),%edx
    1ada:	39 d7                	cmp    %edx,%edi
    1adc:	0f 84 cb fe ff ff    	je     19ad <copy_to_cooked+0xeb>
    1ae2:	a8 01                	test   $0x1,%al
    1ae4:	75 0f                	jne    1af5 <copy_to_cooked+0x233>
    1ae6:	0f be d3             	movsbl %bl,%edx
    1ae9:	0f b6 4e 11          	movzbl 0x11(%esi),%ecx
    1aed:	39 ca                	cmp    %ecx,%edx
    1aef:	0f 84 c4 fe ff ff    	je     19b9 <copy_to_cooked+0xf7>
    1af5:	80 fb 0a             	cmp    $0xa,%bl
    1af8:	0f 84 04 ff ff ff    	je     1a02 <copy_to_cooked+0x140>
    1afe:	0f be d3             	movsbl %bl,%edx
    1b01:	0f b6 4e 15          	movzbl 0x15(%esi),%ecx
    1b05:	39 ca                	cmp    %ecx,%edx
    1b07:	74 49                	je     1b52 <copy_to_cooked+0x290>
    1b09:	a8 08                	test   $0x8,%al
    1b0b:	0f 84 2d ff ff ff    	je     1a3e <copy_to_cooked+0x17c>
    1b11:	80 fb 1f             	cmp    $0x1f,%bl
    1b14:	0f 8f b2 fe ff ff    	jg     19cc <copy_to_cooked+0x10a>
    1b1a:	f6 c4 02             	test   $0x2,%ah
    1b1d:	0f 84 11 ff ff ff    	je     1a34 <copy_to_cooked+0x172>
    1b23:	8b 86 44 04 00 00    	mov    0x444(%esi),%eax
    1b29:	c6 84 06 50 04 00 00 	movb   $0x5e,0x450(%esi,%eax,1)
    1b30:	5e 
    1b31:	40                   	inc    %eax
    1b32:	25 ff 03 00 00       	and    $0x3ff,%eax
    1b37:	8d 53 40             	lea    0x40(%ebx),%edx
    1b3a:	88 94 06 50 04 00 00 	mov    %dl,0x450(%esi,%eax,1)
    1b41:	40                   	inc    %eax
    1b42:	25 ff 03 00 00       	and    $0x3ff,%eax
    1b47:	89 86 44 04 00 00    	mov    %eax,0x444(%esi)
    1b4d:	e9 e2 fe ff ff       	jmp    1a34 <copy_to_cooked+0x172>
    1b52:	ff 86 50 08 00 00    	incl   0x850(%esi)
    1b58:	a8 08                	test   $0x8,%al
    1b5a:	75 b5                	jne    1b11 <copy_to_cooked+0x24f>
    1b5c:	e9 dd fe ff ff       	jmp    1a3e <copy_to_cooked+0x17c>

00001b61 <tty_read>:
    1b61:	55                   	push   %ebp
    1b62:	57                   	push   %edi
    1b63:	56                   	push   %esi
    1b64:	53                   	push   %ebx
    1b65:	83 ec 5c             	sub    $0x5c,%esp
    1b68:	e8 fc ff ff ff       	call   1b69 <tty_read+0x8>
    1b6d:	81 c6 02 00 00 00    	add    $0x2,%esi
    1b73:	89 74 24 18          	mov    %esi,0x18(%esp)
    1b77:	8b 44 24 70          	mov    0x70(%esp),%eax
    1b7b:	8b 6c 24 78          	mov    0x78(%esp),%ebp
    1b7f:	83 f8 02             	cmp    $0x2,%eax
    1b82:	0f 87 fe 02 00 00    	ja     1e86 <tty_read+0x325>
    1b88:	85 ed                	test   %ebp,%ebp
    1b8a:	0f 88 00 03 00 00    	js     1e90 <tty_read+0x32f>
    1b90:	8b 96 00 00 00 00    	mov    0x0(%esi),%edx
    1b96:	8b 1a                	mov    (%edx),%ebx
    1b98:	8b bb c8 00 00 00    	mov    0xc8(%ebx),%edi
    1b9e:	89 7c 24 44          	mov    %edi,0x44(%esp)
    1ba2:	8d 14 00             	lea    (%eax,%eax,1),%edx
    1ba5:	01 c2                	add    %eax,%edx
    1ba7:	89 d1                	mov    %edx,%ecx
    1ba9:	c1 e1 05             	shl    $0x5,%ecx
    1bac:	01 ca                	add    %ecx,%edx
    1bae:	c1 e2 05             	shl    $0x5,%edx
    1bb1:	8d 8c 16 00 00 00 00 	lea    0x0(%esi,%edx,1),%ecx
    1bb8:	0f b6 51 16          	movzbl 0x16(%ecx),%edx
    1bbc:	8d 14 92             	lea    (%edx,%edx,4),%edx
    1bbf:	01 d2                	add    %edx,%edx
    1bc1:	89 54 24 34          	mov    %edx,0x34(%esp)
    1bc5:	0f b6 49 17          	movzbl 0x17(%ecx),%ecx
    1bc9:	85 d2                	test   %edx,%edx
    1bcb:	74 41                	je     1c0e <tty_read+0xad>
    1bcd:	85 c9                	test   %ecx,%ecx
    1bcf:	0f 85 b4 00 00 00    	jne    1c89 <tty_read+0x128>
    1bd5:	85 ff                	test   %edi,%edi
    1bd7:	74 12                	je     1beb <tty_read+0x8a>
    1bd9:	8b b6 00 00 00 00    	mov    0x0(%esi),%esi
    1bdf:	8b 36                	mov    (%esi),%esi
    1be1:	01 d6                	add    %edx,%esi
    1be3:	39 fe                	cmp    %edi,%esi
    1be5:	0f 8d ab 00 00 00    	jge    1c96 <tty_read+0x135>
    1beb:	8b 74 24 18          	mov    0x18(%esp),%esi
    1bef:	8b 8e 00 00 00 00    	mov    0x0(%esi),%ecx
    1bf5:	8b 09                	mov    (%ecx),%ecx
    1bf7:	01 ca                	add    %ecx,%edx
    1bf9:	89 93 c8 00 00 00    	mov    %edx,0xc8(%ebx)
    1bff:	c7 44 24 28 01 00 00 	movl   $0x1,0x28(%esp)
    1c06:	00 
    1c07:	b9 01 00 00 00       	mov    $0x1,%ecx
    1c0c:	eb 04                	jmp    1c12 <tty_read+0xb1>
    1c0e:	89 54 24 28          	mov    %edx,0x28(%esp)
    1c12:	89 4c 24 3c          	mov    %ecx,0x3c(%esp)
    1c16:	39 e9                	cmp    %ebp,%ecx
    1c18:	7e 04                	jle    1c1e <tty_read+0xbd>
    1c1a:	89 6c 24 3c          	mov    %ebp,0x3c(%esp)
    1c1e:	85 ed                	test   %ebp,%ebp
    1c20:	0f 8e 53 02 00 00    	jle    1e79 <tty_read+0x318>
    1c26:	8d 14 00             	lea    (%eax,%eax,1),%edx
    1c29:	01 c2                	add    %eax,%edx
    1c2b:	89 d1                	mov    %edx,%ecx
    1c2d:	c1 e1 05             	shl    $0x5,%ecx
    1c30:	01 ca                	add    %ecx,%edx
    1c32:	c1 e2 05             	shl    $0x5,%edx
    1c35:	8b 5c 24 18          	mov    0x18(%esp),%ebx
    1c39:	8d b4 13 5c 08 00 00 	lea    0x85c(%ebx,%edx,1),%esi
    1c40:	89 74 24 40          	mov    %esi,0x40(%esp)
    1c44:	8b 74 24 74          	mov    0x74(%esp),%esi
    1c48:	89 74 24 10          	mov    %esi,0x10(%esp)
    1c4c:	8b b3 00 00 00 00    	mov    0x0(%ebx),%esi
    1c52:	89 74 24 38          	mov    %esi,0x38(%esp)
    1c56:	89 74 24 30          	mov    %esi,0x30(%esp)
    1c5a:	8d 14 00             	lea    (%eax,%eax,1),%edx
    1c5d:	01 d0                	add    %edx,%eax
    1c5f:	01 c8                	add    %ecx,%eax
    1c61:	c1 e0 05             	shl    $0x5,%eax
    1c64:	89 c6                	mov    %eax,%esi
    1c66:	8b 83 00 00 00 00    	mov    0x0(%ebx),%eax
    1c6c:	89 44 24 24          	mov    %eax,0x24(%esp)
    1c70:	8b 83 00 00 00 00    	mov    0x0(%ebx),%eax
    1c76:	89 44 24 48          	mov    %eax,0x48(%esp)
    1c7a:	89 44 24 4c          	mov    %eax,0x4c(%esp)
    1c7e:	89 f0                	mov    %esi,%eax
    1c80:	89 ee                	mov    %ebp,%esi
    1c82:	89 c5                	mov    %eax,%ebp
    1c84:	e9 44 01 00 00       	jmp    1dcd <tty_read+0x26c>
    1c89:	c7 44 24 28 00 00 00 	movl   $0x0,0x28(%esp)
    1c90:	00 
    1c91:	e9 7c ff ff ff       	jmp    1c12 <tty_read+0xb1>
    1c96:	89 4c 24 28          	mov    %ecx,0x28(%esp)
    1c9a:	b9 01 00 00 00       	mov    $0x1,%ecx
    1c9f:	e9 6e ff ff ff       	jmp    1c12 <tty_read+0xb1>
    1ca4:	80 e4 df             	and    $0xdf,%ah
    1ca7:	89 42 0c             	mov    %eax,0xc(%edx)
    1caa:	8b 44 24 18          	mov    0x18(%esp),%eax
    1cae:	8b 80 00 00 00 00    	mov    0x0(%eax),%eax
    1cb4:	8b 00                	mov    (%eax),%eax
    1cb6:	8b 74 24 44          	mov    0x44(%esp),%esi
    1cba:	89 b0 c8 00 00 00    	mov    %esi,0xc8(%eax)
    1cc0:	83 78 0c 00          	cmpl   $0x0,0xc(%eax)
    1cc4:	74 0e                	je     1cd4 <tty_read+0x173>
    1cc6:	8b 44 24 10          	mov    0x10(%esp),%eax
    1cca:	3b 44 24 74          	cmp    0x74(%esp),%eax
    1cce:	0f 84 c6 01 00 00    	je     1e9a <tty_read+0x339>
    1cd4:	8b 44 24 10          	mov    0x10(%esp),%eax
    1cd8:	2b 44 24 74          	sub    0x74(%esp),%eax
    1cdc:	83 c4 5c             	add    $0x5c,%esp
    1cdf:	5b                   	pop    %ebx
    1ce0:	5e                   	pop    %esi
    1ce1:	5f                   	pop    %edi
    1ce2:	5d                   	pop    %ebp
    1ce3:	c3                   	ret    
    1ce4:	fa                   	cli    
    1ce5:	8b 44 24 18          	mov    0x18(%esp),%eax
    1ce9:	8b 9c 28 58 08 00 00 	mov    0x858(%eax,%ebp,1),%ebx
    1cf0:	39 9c 28 54 08 00 00 	cmp    %ebx,0x854(%eax,%ebp,1)
    1cf7:	75 34                	jne    1d2d <tty_read+0x1cc>
    1cf9:	8b 7c 24 40          	mov    0x40(%esp),%edi
    1cfd:	83 ec 0c             	sub    $0xc,%esp
    1d00:	57                   	push   %edi
    1d01:	8b 5c 24 28          	mov    0x28(%esp),%ebx
    1d05:	e8 fc ff ff ff       	call   1d06 <tty_read+0x1a5>
    1d0a:	8b 5c 24 34          	mov    0x34(%esp),%ebx
    1d0e:	8b 03                	mov    (%ebx),%eax
    1d10:	83 c4 10             	add    $0x10,%esp
    1d13:	83 78 0c 00          	cmpl   $0x0,0xc(%eax)
    1d17:	75 14                	jne    1d2d <tty_read+0x1cc>
    1d19:	8b 44 24 18          	mov    0x18(%esp),%eax
    1d1d:	8b 9c 28 58 08 00 00 	mov    0x858(%eax,%ebp,1),%ebx
    1d24:	39 9c 28 54 08 00 00 	cmp    %ebx,0x854(%eax,%ebp,1)
    1d2b:	74 d0                	je     1cfd <tty_read+0x19c>
    1d2d:	fb                   	sti    
    1d2e:	e9 92 00 00 00       	jmp    1dc5 <tty_read+0x264>
    1d33:	89 f8                	mov    %edi,%eax
    1d35:	2b 44 24 74          	sub    0x74(%esp),%eax
    1d39:	eb a1                	jmp    1cdc <tty_read+0x17b>
    1d3b:	89 4c 24 10          	mov    %ecx,0x10(%esp)
    1d3f:	8b 6c 24 0c          	mov    0xc(%esp),%ebp
    1d43:	8b 5c 24 34          	mov    0x34(%esp),%ebx
    1d47:	85 db                	test   %ebx,%ebx
    1d49:	74 4b                	je     1d96 <tty_read+0x235>
    1d4b:	83 7c 24 20 00       	cmpl   $0x0,0x20(%esp)
    1d50:	75 65                	jne    1db7 <tty_read+0x256>
    1d52:	8b 7c 24 44          	mov    0x44(%esp),%edi
    1d56:	85 ff                	test   %edi,%edi
    1d58:	74 20                	je     1d7a <tty_read+0x219>
    1d5a:	8b 44 24 4c          	mov    0x4c(%esp),%eax
    1d5e:	8b 00                	mov    (%eax),%eax
    1d60:	01 d8                	add    %ebx,%eax
    1d62:	39 f8                	cmp    %edi,%eax
    1d64:	7c 14                	jl     1d7a <tty_read+0x219>
    1d66:	8b 44 24 2c          	mov    0x2c(%esp),%eax
    1d6a:	89 b8 c8 00 00 00    	mov    %edi,0xc8(%eax)
    1d70:	c7 44 24 28 00 00 00 	movl   $0x0,0x28(%esp)
    1d77:	00 
    1d78:	eb 1c                	jmp    1d96 <tty_read+0x235>
    1d7a:	8b 44 24 48          	mov    0x48(%esp),%eax
    1d7e:	8b 00                	mov    (%eax),%eax
    1d80:	03 44 24 34          	add    0x34(%esp),%eax
    1d84:	8b 5c 24 2c          	mov    0x2c(%esp),%ebx
    1d88:	89 83 c8 00 00 00    	mov    %eax,0xc8(%ebx)
    1d8e:	c7 44 24 28 01 00 00 	movl   $0x1,0x28(%esp)
    1d95:	00 
    1d96:	8b 44 24 18          	mov    0x18(%esp),%eax
    1d9a:	f6 84 28 0c 00 00 00 	testb  $0x2,0xc(%eax,%ebp,1)
    1da1:	02 
    1da2:	75 13                	jne    1db7 <tty_read+0x256>
    1da4:	8b 44 24 10          	mov    0x10(%esp),%eax
    1da8:	2b 44 24 74          	sub    0x74(%esp),%eax
    1dac:	3b 44 24 3c          	cmp    0x3c(%esp),%eax
    1db0:	7c 13                	jl     1dc5 <tty_read+0x264>
    1db2:	e9 f3 fe ff ff       	jmp    1caa <tty_read+0x149>
    1db7:	8b 44 24 10          	mov    0x10(%esp),%eax
    1dbb:	3b 44 24 74          	cmp    0x74(%esp),%eax
    1dbf:	0f 85 df 00 00 00    	jne    1ea4 <tty_read+0x343>
    1dc5:	85 f6                	test   %esi,%esi
    1dc7:	0f 8e dd fe ff ff    	jle    1caa <tty_read+0x149>
    1dcd:	83 7c 24 28 00       	cmpl   $0x0,0x28(%esp)
    1dd2:	74 12                	je     1de6 <tty_read+0x285>
    1dd4:	8b 44 24 38          	mov    0x38(%esp),%eax
    1dd8:	8b 10                	mov    (%eax),%edx
    1dda:	8b 42 0c             	mov    0xc(%edx),%eax
    1ddd:	f6 c4 20             	test   $0x20,%ah
    1de0:	0f 85 be fe ff ff    	jne    1ca4 <tty_read+0x143>
    1de6:	8b 44 24 30          	mov    0x30(%esp),%eax
    1dea:	8b 00                	mov    (%eax),%eax
    1dec:	89 44 24 2c          	mov    %eax,0x2c(%esp)
    1df0:	83 78 0c 00          	cmpl   $0x0,0xc(%eax)
    1df4:	0f 85 b0 fe ff ff    	jne    1caa <tty_read+0x149>
    1dfa:	8b 5c 24 18          	mov    0x18(%esp),%ebx
    1dfe:	8d 84 2b 00 00 00 00 	lea    0x0(%ebx,%ebp,1),%eax
    1e05:	8b b8 54 08 00 00    	mov    0x854(%eax),%edi
    1e0b:	89 7c 24 14          	mov    %edi,0x14(%esp)
    1e0f:	8b 80 58 08 00 00    	mov    0x858(%eax),%eax
    1e15:	39 c7                	cmp    %eax,%edi
    1e17:	0f 84 c7 fe ff ff    	je     1ce4 <tty_read+0x183>
    1e1d:	8b 94 2b 0c 00 00 00 	mov    0xc(%ebx,%ebp,1),%edx
    1e24:	83 e2 02             	and    $0x2,%edx
    1e27:	89 54 24 20          	mov    %edx,0x20(%esp)
    1e2b:	74 1b                	je     1e48 <tty_read+0x2e7>
    1e2d:	83 bc 2b 50 08 00 00 	cmpl   $0x0,0x850(%ebx,%ebp,1)
    1e34:	00 
    1e35:	75 11                	jne    1e48 <tty_read+0x2e7>
    1e37:	48                   	dec    %eax
    1e38:	29 f8                	sub    %edi,%eax
    1e3a:	25 ff 03 00 00       	and    $0x3ff,%eax
    1e3f:	83 f8 14             	cmp    $0x14,%eax
    1e42:	0f 87 9c fe ff ff    	ja     1ce4 <tty_read+0x183>
    1e48:	8b 44 24 18          	mov    0x18(%esp),%eax
    1e4c:	0f b6 9c 28 15 00 00 	movzbl 0x15(%eax,%ebp,1),%ebx
    1e53:	00 
    1e54:	89 5c 24 08          	mov    %ebx,0x8(%esp)
    1e58:	8b 7c 24 10          	mov    0x10(%esp),%edi
    1e5c:	8d 9c 28 00 00 00 00 	lea    0x0(%eax,%ebp,1),%ebx
    1e63:	8d 80 00 00 00 00    	lea    0x0(%eax),%eax
    1e69:	89 44 24 10          	mov    %eax,0x10(%esp)
    1e6d:	01 e8                	add    %ebp,%eax
    1e6f:	89 44 24 1c          	mov    %eax,0x1c(%esp)
    1e73:	89 6c 24 0c          	mov    %ebp,0xc(%esp)
    1e77:	eb 6e                	jmp    1ee7 <tty_read+0x386>
    1e79:	8b 44 24 74          	mov    0x74(%esp),%eax
    1e7d:	89 44 24 10          	mov    %eax,0x10(%esp)
    1e81:	e9 24 fe ff ff       	jmp    1caa <tty_read+0x149>
    1e86:	b8 ff ff ff ff       	mov    $0xffffffff,%eax
    1e8b:	e9 4c fe ff ff       	jmp    1cdc <tty_read+0x17b>
    1e90:	b8 ff ff ff ff       	mov    $0xffffffff,%eax
    1e95:	e9 42 fe ff ff       	jmp    1cdc <tty_read+0x17b>
    1e9a:	b8 fc ff ff ff       	mov    $0xfffffffc,%eax
    1e9f:	e9 38 fe ff ff       	jmp    1cdc <tty_read+0x17b>
    1ea4:	8b 44 24 2c          	mov    0x2c(%esp),%eax
    1ea8:	8b 74 24 44          	mov    0x44(%esp),%esi
    1eac:	89 b0 c8 00 00 00    	mov    %esi,0xc8(%eax)
    1eb2:	e9 1d fe ff ff       	jmp    1cd4 <tty_read+0x173>
    1eb7:	8b 4c 24 1c          	mov    0x1c(%esp),%ecx
    1ebb:	ff 89 50 08 00 00    	decl   0x850(%ecx)
    1ec1:	83 7c 24 20 00       	cmpl   $0x0,0x20(%esp)
    1ec6:	0f 85 67 fe ff ff    	jne    1d33 <tty_read+0x1d2>
    1ecc:	8d 4f 01             	lea    0x1(%edi),%ecx
    1ecf:	64 88 17             	mov    %dl,%fs:(%edi)
    1ed2:	4e                   	dec    %esi
    1ed3:	85 f6                	test   %esi,%esi
    1ed5:	0f 8e 60 fe ff ff    	jle    1d3b <tty_read+0x1da>
    1edb:	39 44 24 14          	cmp    %eax,0x14(%esp)
    1edf:	0f 84 56 fe ff ff    	je     1d3b <tty_read+0x1da>
    1ee5:	89 cf                	mov    %ecx,%edi
    1ee7:	8b 83 58 08 00 00    	mov    0x858(%ebx),%eax
    1eed:	8b 4c 24 0c          	mov    0xc(%esp),%ecx
    1ef1:	8d 14 01             	lea    (%ecx,%eax,1),%edx
    1ef4:	8b 4c 24 10          	mov    0x10(%esp),%ecx
    1ef8:	8a 94 11 60 08 00 00 	mov    0x860(%ecx,%edx,1),%dl
    1eff:	40                   	inc    %eax
    1f00:	25 ff 03 00 00       	and    $0x3ff,%eax
    1f05:	89 83 58 08 00 00    	mov    %eax,0x858(%ebx)
    1f0b:	0f be ca             	movsbl %dl,%ecx
    1f0e:	3b 4c 24 08          	cmp    0x8(%esp),%ecx
    1f12:	74 a3                	je     1eb7 <tty_read+0x356>
    1f14:	80 fa 0a             	cmp    $0xa,%dl
    1f17:	75 b3                	jne    1ecc <tty_read+0x36b>
    1f19:	8b 6c 24 1c          	mov    0x1c(%esp),%ebp
    1f1d:	ff 8d 50 08 00 00    	decl   0x850(%ebp)
    1f23:	3b 4c 24 08          	cmp    0x8(%esp),%ecx
    1f27:	75 a3                	jne    1ecc <tty_read+0x36b>
    1f29:	eb 96                	jmp    1ec1 <tty_read+0x360>

00001f2b <tty_write>:
    1f2b:	55                   	push   %ebp
    1f2c:	57                   	push   %edi
    1f2d:	56                   	push   %esi
    1f2e:	53                   	push   %ebx
    1f2f:	83 ec 2c             	sub    $0x2c,%esp
    1f32:	e8 fc ff ff ff       	call   1f33 <tty_write+0x8>
    1f37:	81 c3 02 00 00 00    	add    $0x2,%ebx
    1f3d:	8b 54 24 40          	mov    0x40(%esp),%edx
    1f41:	8b 7c 24 48          	mov    0x48(%esp),%edi
    1f45:	83 fa 02             	cmp    $0x2,%edx
    1f48:	0f 87 1a 02 00 00    	ja     2168 <tty_write+0x23d>
    1f4e:	85 ff                	test   %edi,%edi
    1f50:	0f 88 19 02 00 00    	js     216f <tty_write+0x244>
    1f56:	8d 04 12             	lea    (%edx,%edx,1),%eax
    1f59:	01 d0                	add    %edx,%eax
    1f5b:	89 c2                	mov    %eax,%edx
    1f5d:	c1 e2 05             	shl    $0x5,%edx
    1f60:	01 d0                	add    %edx,%eax
    1f62:	c1 e0 05             	shl    $0x5,%eax
    1f65:	8d ac 03 00 00 00 00 	lea    0x0(%ebx,%eax,1),%ebp
    1f6c:	85 ff                	test   %edi,%edi
    1f6e:	0f 8e ea 01 00 00    	jle    215e <tty_write+0x233>
    1f74:	8b 44 24 44          	mov    0x44(%esp),%eax
    1f78:	89 44 24 0c          	mov    %eax,0xc(%esp)
    1f7c:	8b 83 00 00 00 00    	mov    0x0(%ebx),%eax
    1f82:	89 44 24 18          	mov    %eax,0x18(%esp)
    1f86:	e9 5e 01 00 00       	jmp    20e9 <tty_write+0x1be>
    1f8b:	8b 7c 24 48          	mov    0x48(%esp),%edi
    1f8f:	fb                   	sti    
    1f90:	8b 83 00 00 00 00    	mov    0x0(%ebx),%eax
    1f96:	8b 00                	mov    (%eax),%eax
    1f98:	83 78 0c 00          	cmpl   $0x0,0xc(%eax)
    1f9c:	0f 85 e2 01 00 00    	jne    2184 <tty_write+0x259>
    1fa2:	85 ff                	test   %edi,%edi
    1fa4:	0f 8e d0 01 00 00    	jle    217a <tty_write+0x24f>
    1faa:	8b 85 44 04 00 00    	mov    0x444(%ebp),%eax
    1fb0:	89 c2                	mov    %eax,%edx
    1fb2:	f7 d2                	not    %edx
    1fb4:	03 95 48 04 00 00    	add    0x448(%ebp),%edx
    1fba:	f7 c2 ff 03 00 00    	test   $0x3ff,%edx
    1fc0:	0f 84 14 01 00 00    	je     20da <tty_write+0x1af>
    1fc6:	8b 55 04             	mov    0x4(%ebp),%edx
    1fc9:	89 d6                	mov    %edx,%esi
    1fcb:	83 e6 01             	and    $0x1,%esi
    1fce:	89 d1                	mov    %edx,%ecx
    1fd0:	83 e1 20             	and    $0x20,%ecx
    1fd3:	89 4c 24 14          	mov    %ecx,0x14(%esp)
    1fd7:	89 d1                	mov    %edx,%ecx
    1fd9:	83 e1 08             	and    $0x8,%ecx
    1fdc:	89 4c 24 10          	mov    %ecx,0x10(%esp)
    1fe0:	89 d1                	mov    %edx,%ecx
    1fe2:	83 e1 04             	and    $0x4,%ecx
    1fe5:	89 4c 24 1c          	mov    %ecx,0x1c(%esp)
    1fe9:	83 e2 02             	and    $0x2,%edx
    1fec:	89 54 24 08          	mov    %edx,0x8(%esp)
    1ff0:	89 74 24 04          	mov    %esi,0x4(%esp)
    1ff4:	8b 74 24 0c          	mov    0xc(%esp),%esi
    1ff8:	89 7c 24 48          	mov    %edi,0x48(%esp)
    1ffc:	e9 99 00 00 00       	jmp    209a <tty_write+0x16f>
    2001:	83 7c 24 10 00       	cmpl   $0x0,0x10(%esp)
    2006:	0f 84 ac 00 00 00    	je     20b8 <tty_write+0x18d>
    200c:	83 bb 20 04 00 00 00 	cmpl   $0x0,0x420(%ebx)
    2013:	75 3c                	jne    2051 <tty_write+0x126>
    2015:	83 7c 24 1c 00       	cmpl   $0x0,0x1c(%esp)
    201a:	75 15                	jne    2031 <tty_write+0x106>
    201c:	b1 0a                	mov    $0xa,%cl
    201e:	e9 95 00 00 00       	jmp    20b8 <tty_write+0x18d>
    2023:	83 7c 24 14 00       	cmpl   $0x0,0x14(%esp)
    2028:	74 e2                	je     200c <tty_write+0xe1>
    202a:	b1 0d                	mov    $0xd,%cl
    202c:	e9 87 00 00 00       	jmp    20b8 <tty_write+0x18d>
    2031:	c7 83 20 04 00 00 01 	movl   $0x1,0x420(%ebx)
    2038:	00 00 00 
    203b:	c6 84 05 50 04 00 00 	movb   $0xd,0x450(%ebp,%eax,1)
    2042:	0d 
    2043:	40                   	inc    %eax
    2044:	25 ff 03 00 00       	and    $0x3ff,%eax
    2049:	89 85 44 04 00 00    	mov    %eax,0x444(%ebp)
    204f:	eb 26                	jmp    2077 <tty_write+0x14c>
    2051:	b1 0a                	mov    $0xa,%cl
    2053:	eb 63                	jmp    20b8 <tty_write+0x18d>
    2055:	46                   	inc    %esi
    2056:	ff 4c 24 48          	decl   0x48(%esp)
    205a:	c7 83 20 04 00 00 00 	movl   $0x0,0x420(%ebx)
    2061:	00 00 00 
    2064:	88 8c 05 50 04 00 00 	mov    %cl,0x450(%ebp,%eax,1)
    206b:	40                   	inc    %eax
    206c:	25 ff 03 00 00       	and    $0x3ff,%eax
    2071:	89 85 44 04 00 00    	mov    %eax,0x444(%ebp)
    2077:	83 7c 24 48 00       	cmpl   $0x0,0x48(%esp)
    207c:	0f 8e f4 00 00 00    	jle    2176 <tty_write+0x24b>
    2082:	8b 85 44 04 00 00    	mov    0x444(%ebp),%eax
    2088:	89 c2                	mov    %eax,%edx
    208a:	f7 d2                	not    %edx
    208c:	03 95 48 04 00 00    	add    0x448(%ebp),%edx
    2092:	f7 c2 ff 03 00 00    	test   $0x3ff,%edx
    2098:	74 38                	je     20d2 <tty_write+0x1a7>
    209a:	64 8a 16             	mov    %fs:(%esi),%dl
    209d:	88 d1                	mov    %dl,%cl
    209f:	83 7c 24 04 00       	cmpl   $0x0,0x4(%esp)
    20a4:	74 af                	je     2055 <tty_write+0x12a>
    20a6:	80 fa 0d             	cmp    $0xd,%dl
    20a9:	0f 84 52 ff ff ff    	je     2001 <tty_write+0xd6>
    20af:	80 fa 0a             	cmp    $0xa,%dl
    20b2:	0f 84 6b ff ff ff    	je     2023 <tty_write+0xf8>
    20b8:	83 7c 24 08 00       	cmpl   $0x0,0x8(%esp)
    20bd:	74 96                	je     2055 <tty_write+0x12a>
    20bf:	0f be d1             	movsbl %cl,%edx
    20c2:	8b 7c 24 18          	mov    0x18(%esp),%edi
    20c6:	f6 44 3a 01 02       	testb  $0x2,0x1(%edx,%edi,1)
    20cb:	74 88                	je     2055 <tty_write+0x12a>
    20cd:	83 e9 20             	sub    $0x20,%ecx
    20d0:	eb 83                	jmp    2055 <tty_write+0x12a>
    20d2:	89 74 24 0c          	mov    %esi,0xc(%esp)
    20d6:	8b 7c 24 48          	mov    0x48(%esp),%edi
    20da:	83 ec 0c             	sub    $0xc,%esp
    20dd:	55                   	push   %ebp
    20de:	ff 55 2c             	call   *0x2c(%ebp)
    20e1:	e8 fc ff ff ff       	call   20e2 <tty_write+0x1b7>
    20e6:	83 c4 10             	add    $0x10,%esp
    20e9:	8b 85 48 04 00 00    	mov    0x448(%ebp),%eax
    20ef:	48                   	dec    %eax
    20f0:	2b 85 44 04 00 00    	sub    0x444(%ebp),%eax
    20f6:	a9 ff 03 00 00       	test   $0x3ff,%eax
    20fb:	0f 85 8f fe ff ff    	jne    1f90 <tty_write+0x65>
    2101:	fa                   	cli    
    2102:	8b 83 00 00 00 00    	mov    0x0(%ebx),%eax
    2108:	8b 00                	mov    (%eax),%eax
    210a:	83 78 0c 00          	cmpl   $0x0,0xc(%eax)
    210e:	0f 85 7b fe ff ff    	jne    1f8f <tty_write+0x64>
    2114:	8d 85 4c 04 00 00    	lea    0x44c(%ebp),%eax
    211a:	8b b3 00 00 00 00    	mov    0x0(%ebx),%esi
    2120:	89 7c 24 48          	mov    %edi,0x48(%esp)
    2124:	89 c7                	mov    %eax,%edi
    2126:	83 ec 0c             	sub    $0xc,%esp
    2129:	57                   	push   %edi
    212a:	e8 fc ff ff ff       	call   212b <tty_write+0x200>
    212f:	8b 06                	mov    (%esi),%eax
    2131:	83 c4 10             	add    $0x10,%esp
    2134:	83 78 0c 00          	cmpl   $0x0,0xc(%eax)
    2138:	0f 85 4d fe ff ff    	jne    1f8b <tty_write+0x60>
    213e:	8b 85 48 04 00 00    	mov    0x448(%ebp),%eax
    2144:	48                   	dec    %eax
    2145:	2b 85 44 04 00 00    	sub    0x444(%ebp),%eax
    214b:	25 ff 03 00 00       	and    $0x3ff,%eax
    2150:	83 f8 7f             	cmp    $0x7f,%eax
    2153:	76 d1                	jbe    2126 <tty_write+0x1fb>
    2155:	8b 7c 24 48          	mov    0x48(%esp),%edi
    2159:	e9 31 fe ff ff       	jmp    1f8f <tty_write+0x64>
    215e:	8b 44 24 44          	mov    0x44(%esp),%eax
    2162:	89 44 24 0c          	mov    %eax,0xc(%esp)
    2166:	eb 1c                	jmp    2184 <tty_write+0x259>
    2168:	b8 ff ff ff ff       	mov    $0xffffffff,%eax
    216d:	eb 1d                	jmp    218c <tty_write+0x261>
    216f:	b8 ff ff ff ff       	mov    $0xffffffff,%eax
    2174:	eb 16                	jmp    218c <tty_write+0x261>
    2176:	89 74 24 0c          	mov    %esi,0xc(%esp)
    217a:	83 ec 0c             	sub    $0xc,%esp
    217d:	55                   	push   %ebp
    217e:	ff 55 2c             	call   *0x2c(%ebp)
    2181:	83 c4 10             	add    $0x10,%esp
    2184:	8b 44 24 0c          	mov    0xc(%esp),%eax
    2188:	2b 44 24 44          	sub    0x44(%esp),%eax
    218c:	83 c4 2c             	add    $0x2c,%esp
    218f:	5b                   	pop    %ebx
    2190:	5e                   	pop    %esi
    2191:	5f                   	pop    %edi
    2192:	5d                   	pop    %ebp
    2193:	c3                   	ret    

00002194 <do_tty_interrupt>:
    2194:	83 ec 18             	sub    $0x18,%esp
    2197:	e8 fc ff ff ff       	call   2198 <do_tty_interrupt+0x4>
    219c:	81 c1 02 00 00 00    	add    $0x2,%ecx
    21a2:	8b 54 24 1c          	mov    0x1c(%esp),%edx
    21a6:	8d 04 12             	lea    (%edx,%edx,1),%eax
    21a9:	01 d0                	add    %edx,%eax
    21ab:	89 c2                	mov    %eax,%edx
    21ad:	c1 e2 05             	shl    $0x5,%edx
    21b0:	01 d0                	add    %edx,%eax
    21b2:	c1 e0 05             	shl    $0x5,%eax
    21b5:	8d 84 01 00 00 00 00 	lea    0x0(%ecx,%eax,1),%eax
    21bc:	50                   	push   %eax
    21bd:	e8 fc ff ff ff       	call   21be <do_tty_interrupt+0x2a>
    21c2:	83 c4 1c             	add    $0x1c,%esp
    21c5:	c3                   	ret    

000021c6 <scrup>:
    21c6:	55                   	push   %ebp
    21c7:	57                   	push   %edi
    21c8:	56                   	push   %esi
    21c9:	53                   	push   %ebx
    21ca:	83 ec 04             	sub    $0x4,%esp
    21cd:	e8 fc ff ff ff       	call   21ce <scrup+0x8>
    21d2:	81 c3 02 00 00 00    	add    $0x2,%ebx
    21d8:	8b 83 a8 04 00 00    	mov    0x4a8(%ebx),%eax
    21de:	85 c0                	test   %eax,%eax
    21e0:	75 09                	jne    21eb <scrup+0x25>
    21e2:	83 bb 00 00 00 00 19 	cmpl   $0x19,0x0(%ebx)
    21e9:	74 40                	je     222b <scrup+0x65>
    21eb:	8d 14 80             	lea    (%eax,%eax,4),%edx
    21ee:	c1 e2 05             	shl    $0x5,%edx
    21f1:	8b b3 08 00 00 00    	mov    0x8(%ebx),%esi
    21f7:	f7 d0                	not    %eax
    21f9:	03 83 00 00 00 00    	add    0x0(%ebx),%eax
    21ff:	8d 0c 80             	lea    (%eax,%eax,4),%ecx
    2202:	c1 e1 04             	shl    $0x4,%ecx
    2205:	d1 e9                	shr    %ecx
    2207:	8d 3c 32             	lea    (%edx,%esi,1),%edi
    220a:	8d b4 16 a0 00 00 00 	lea    0xa0(%esi,%edx,1),%esi
    2211:	b8 20 07 00 00       	mov    $0x720,%eax
    2216:	ba 50 00 00 00       	mov    $0x50,%edx
    221b:	fc                   	cld    
    221c:	f3 a5                	rep movsl %ds:(%esi),%es:(%edi)
    221e:	89 d1                	mov    %edx,%ecx
    2220:	f3 66 ab             	rep stos %ax,%es:(%edi)
    2223:	83 c4 04             	add    $0x4,%esp
    2226:	5b                   	pop    %ebx
    2227:	5e                   	pop    %esi
    2228:	5f                   	pop    %edi
    2229:	5d                   	pop    %ebp
    222a:	c3                   	ret    
    222b:	8b b3 08 00 00 00    	mov    0x8(%ebx),%esi
    2231:	81 c6 a0 00 00 00    	add    $0xa0,%esi
    2237:	89 b3 08 00 00 00    	mov    %esi,0x8(%ebx)
    223d:	8b 83 b4 04 00 00    	mov    0x4b4(%ebx),%eax
    2243:	89 04 24             	mov    %eax,(%esp)
    2246:	05 a0 00 00 00       	add    $0xa0,%eax
    224b:	89 83 b4 04 00 00    	mov    %eax,0x4b4(%ebx)
    2251:	8b ab 04 00 00 00    	mov    0x4(%ebx),%ebp
    2257:	8d 85 a0 00 00 00    	lea    0xa0(%ebp),%eax
    225d:	3d 00 00 0c 00       	cmp    $0xc0000,%eax
    2262:	0f 86 94 00 00 00    	jbe    22fc <scrup+0x136>
    2268:	b8 20 07 00 00       	mov    $0x720,%eax
    226d:	b9 c0 03 00 00       	mov    $0x3c0,%ecx
    2272:	bf 00 80 0b 00       	mov    $0xb8000,%edi
    2277:	ba 50 00 00 00       	mov    $0x50,%edx
    227c:	fc                   	cld    
    227d:	f3 a5                	rep movsl %ds:(%esi),%es:(%edi)
    227f:	89 d1                	mov    %edx,%ecx
    2281:	f3 66 ab             	rep stos %ax,%es:(%edi)
    2284:	81 c5 a0 80 0b 00    	add    $0xb80a0,%ebp
    228a:	29 f5                	sub    %esi,%ebp
    228c:	89 ab 04 00 00 00    	mov    %ebp,0x4(%ebx)
    2292:	8b 04 24             	mov    (%esp),%eax
    2295:	05 a0 80 0b 00       	add    $0xb80a0,%eax
    229a:	29 f0                	sub    %esi,%eax
    229c:	89 83 b4 04 00 00    	mov    %eax,0x4b4(%ebx)
    22a2:	c7 83 08 00 00 00 00 	movl   $0xb8000,0x8(%ebx)
    22a9:	80 0b 00 
    22ac:	fa                   	cli    
    22ad:	be d4 03 00 00       	mov    $0x3d4,%esi
    22b2:	b8 0c 00 00 00       	mov    $0xc,%eax
    22b7:	89 f2                	mov    %esi,%edx
    22b9:	ee                   	out    %al,(%dx)
    22ba:	eb 00                	jmp    22bc <scrup+0xf6>
    22bc:	eb 00                	jmp    22be <scrup+0xf8>
    22be:	8b 8b 08 00 00 00    	mov    0x8(%ebx),%ecx
    22c4:	81 e9 00 80 0b 00    	sub    $0xb8000,%ecx
    22ca:	89 c8                	mov    %ecx,%eax
    22cc:	c1 e8 09             	shr    $0x9,%eax
    22cf:	0f b6 c0             	movzbl %al,%eax
    22d2:	bb d5 03 00 00       	mov    $0x3d5,%ebx
    22d7:	89 da                	mov    %ebx,%edx
    22d9:	ee                   	out    %al,(%dx)
    22da:	eb 00                	jmp    22dc <scrup+0x116>
    22dc:	eb 00                	jmp    22de <scrup+0x118>
    22de:	b8 0d 00 00 00       	mov    $0xd,%eax
    22e3:	89 f2                	mov    %esi,%edx
    22e5:	ee                   	out    %al,(%dx)
    22e6:	eb 00                	jmp    22e8 <scrup+0x122>
    22e8:	eb 00                	jmp    22ea <scrup+0x124>
    22ea:	d1 e9                	shr    %ecx
    22ec:	0f b6 c1             	movzbl %cl,%eax
    22ef:	89 da                	mov    %ebx,%edx
    22f1:	ee                   	out    %al,(%dx)
    22f2:	eb 00                	jmp    22f4 <scrup+0x12e>
    22f4:	eb 00                	jmp    22f6 <scrup+0x130>
    22f6:	fb                   	sti    
    22f7:	e9 27 ff ff ff       	jmp    2223 <scrup+0x5d>
    22fc:	89 83 04 00 00 00    	mov    %eax,0x4(%ebx)
    2302:	b8 20 07 20 07       	mov    $0x7200720,%eax
    2307:	b9 28 00 00 00       	mov    $0x28,%ecx
    230c:	89 ef                	mov    %ebp,%edi
    230e:	fc                   	cld    
    230f:	f3 ab                	rep stos %eax,%es:(%edi)
    2311:	eb 99                	jmp    22ac <scrup+0xe6>

00002313 <scrdown>:
    2313:	57                   	push   %edi
    2314:	56                   	push   %esi
    2315:	e8 fc ff ff ff       	call   2316 <scrdown+0x3>
    231a:	81 c1 02 00 00 00    	add    $0x2,%ecx
    2320:	8b b9 00 00 00 00    	mov    0x0(%ecx),%edi
    2326:	8d 57 ff             	lea    -0x1(%edi),%edx
    2329:	8b b1 08 00 00 00    	mov    0x8(%ecx),%esi
    232f:	8d 46 fc             	lea    -0x4(%esi),%eax
    2332:	89 d6                	mov    %edx,%esi
    2334:	2b b1 a8 04 00 00    	sub    0x4a8(%ecx),%esi
    233a:	8d 0c b6             	lea    (%esi,%esi,4),%ecx
    233d:	c1 e1 04             	shl    $0x4,%ecx
    2340:	d1 e9                	shr    %ecx
    2342:	8d 3c bf             	lea    (%edi,%edi,4),%edi
    2345:	c1 e7 05             	shl    $0x5,%edi
    2348:	01 c7                	add    %eax,%edi
    234a:	8d 34 92             	lea    (%edx,%edx,4),%esi
    234d:	c1 e6 05             	shl    $0x5,%esi
    2350:	01 c6                	add    %eax,%esi
    2352:	b8 20 07 00 00       	mov    $0x720,%eax
    2357:	ba 50 00 00 00       	mov    $0x50,%edx
    235c:	fd                   	std    
    235d:	f3 a5                	rep movsl %ds:(%esi),%es:(%edi)
    235f:	83 c7 02             	add    $0x2,%edi
    2362:	89 d1                	mov    %edx,%ecx
    2364:	f3 66 ab             	rep stos %ax,%es:(%edi)
    2367:	5e                   	pop    %esi
    2368:	5f                   	pop    %edi
    2369:	c3                   	ret    

0000236a <lf>:
    236a:	e8 fc ff ff ff       	call   236b <lf+0x1>
    236f:	05 01 00 00 00       	add    $0x1,%eax
    2374:	8b 90 ac 04 00 00    	mov    0x4ac(%eax),%edx
    237a:	42                   	inc    %edx
    237b:	3b 90 00 00 00 00    	cmp    0x0(%eax),%edx
    2381:	73 11                	jae    2394 <lf+0x2a>
    2383:	89 90 ac 04 00 00    	mov    %edx,0x4ac(%eax)
    2389:	81 80 b4 04 00 00 a0 	addl   $0xa0,0x4b4(%eax)
    2390:	00 00 00 
    2393:	c3                   	ret    
    2394:	e8 2d fe ff ff       	call   21c6 <scrup>
    2399:	c3                   	ret    

0000239a <restore_cur>:
    239a:	53                   	push   %ebx
    239b:	e8 fc ff ff ff       	call   239c <restore_cur+0x2>
    23a0:	81 c2 02 00 00 00    	add    $0x2,%edx
    23a6:	8b 9a 44 04 00 00    	mov    0x444(%edx),%ebx
    23ac:	89 9a b0 04 00 00    	mov    %ebx,0x4b0(%edx)
    23b2:	8b 8a 40 04 00 00    	mov    0x440(%edx),%ecx
    23b8:	89 8a ac 04 00 00    	mov    %ecx,0x4ac(%edx)
    23be:	8d 04 89             	lea    (%ecx,%ecx,4),%eax
    23c1:	c1 e0 04             	shl    $0x4,%eax
    23c4:	01 d8                	add    %ebx,%eax
    23c6:	01 c0                	add    %eax,%eax
    23c8:	03 82 08 00 00 00    	add    0x8(%edx),%eax
    23ce:	89 82 b4 04 00 00    	mov    %eax,0x4b4(%edx)
    23d4:	5b                   	pop    %ebx
    23d5:	c3                   	ret    

000023d6 <csi_m>:
    23d6:	e8 fc ff ff ff       	call   23d7 <csi_m+0x1>
    23db:	05 01 00 00 00       	add    $0x1,%eax
    23e0:	8b 90 a0 04 00 00    	mov    0x4a0(%eax),%edx
    23e6:	42                   	inc    %edx
    23e7:	b8 00 00 00 00       	mov    $0x0,%eax
    23ec:	40                   	inc    %eax
    23ed:	39 c2                	cmp    %eax,%edx
    23ef:	75 fb                	jne    23ec <csi_m+0x16>
    23f1:	c3                   	ret    

000023f2 <con_write>:
    23f2:	55                   	push   %ebp
    23f3:	57                   	push   %edi
    23f4:	56                   	push   %esi
    23f5:	53                   	push   %ebx
    23f6:	83 ec 1c             	sub    $0x1c,%esp
    23f9:	e8 fc ff ff ff       	call   23fa <con_write+0x8>
    23fe:	81 c3 02 00 00 00    	add    $0x2,%ebx
    2404:	8b 6c 24 30          	mov    0x30(%esp),%ebp
    2408:	8b 85 44 04 00 00    	mov    0x444(%ebp),%eax
    240e:	2b 85 48 04 00 00    	sub    0x448(%ebp),%eax
    2414:	25 ff 03 00 00       	and    $0x3ff,%eax
    2419:	89 04 24             	mov    %eax,(%esp)

0000241c <.L19>:
    241c:	ff 0c 24             	decl   (%esp)
    241f:	8b 04 24             	mov    (%esp),%eax
    2422:	83 f8 ff             	cmp    $0xffffffff,%eax
    2425:	0f 84 76 08 00 00    	je     2ca1 <.L64+0xa>
    242b:	8b 85 48 04 00 00    	mov    0x448(%ebp),%eax
    2431:	0f b6 b4 05 50 04 00 	movzbl 0x450(%ebp,%eax,1),%esi
    2438:	00 
    2439:	40                   	inc    %eax
    243a:	25 ff 03 00 00       	and    $0x3ff,%eax
    243f:	89 85 48 04 00 00    	mov    %eax,0x448(%ebp)
    2445:	83 bb a4 04 00 00 04 	cmpl   $0x4,0x4a4(%ebx)
    244c:	77 ce                	ja     241c <.L19>
    244e:	8b 83 a4 04 00 00    	mov    0x4a4(%ebx),%eax
    2454:	89 df                	mov    %ebx,%edi
    2456:	03 bc 83 10 01 00 00 	add    0x110(%ebx,%eax,4),%edi
    245d:	ff e7                	jmp    *%edi

0000245f <.L21>:
    245f:	8d 46 e0             	lea    -0x20(%esi),%eax
    2462:	3c 5e                	cmp    $0x5e,%al
    2464:	77 47                	ja     24ad <.L21+0x4e>
    2466:	8b 83 b0 04 00 00    	mov    0x4b0(%ebx),%eax
    246c:	83 f8 4f             	cmp    $0x4f,%eax
    246f:	77 22                	ja     2493 <.L21+0x34>
    2471:	8b 93 b4 04 00 00    	mov    0x4b4(%ebx),%edx
    2477:	89 f0                	mov    %esi,%eax
    2479:	8a 25 00 00 00 00    	mov    0x0,%ah
    247f:	66 89 02             	mov    %ax,(%edx)
    2482:	83 c2 02             	add    $0x2,%edx
    2485:	89 93 b4 04 00 00    	mov    %edx,0x4b4(%ebx)
    248b:	ff 83 b0 04 00 00    	incl   0x4b0(%ebx)
    2491:	eb 89                	jmp    241c <.L19>
    2493:	83 e8 50             	sub    $0x50,%eax
    2496:	89 83 b0 04 00 00    	mov    %eax,0x4b0(%ebx)
    249c:	81 ab b4 04 00 00 a0 	subl   $0xa0,0x4b4(%ebx)
    24a3:	00 00 00 
    24a6:	e8 bf fe ff ff       	call   236a <lf>
    24ab:	eb c4                	jmp    2471 <.L21+0x12>
    24ad:	89 f0                	mov    %esi,%eax
    24af:	3c 1b                	cmp    $0x1b,%al
    24b1:	0f 84 85 00 00 00    	je     253c <.L21+0xdd>
    24b7:	8d 46 f6             	lea    -0xa(%esi),%eax
    24ba:	3c 02                	cmp    $0x2,%al
    24bc:	0f 86 89 00 00 00    	jbe    254b <.L21+0xec>
    24c2:	89 f0                	mov    %esi,%eax
    24c4:	3c 0d                	cmp    $0xd,%al
    24c6:	0f 84 89 00 00 00    	je     2555 <.L21+0xf6>
    24cc:	0f be c0             	movsbl %al,%eax
    24cf:	0f b6 55 13          	movzbl 0x13(%ebp),%edx
    24d3:	39 d0                	cmp    %edx,%eax
    24d5:	0f 84 97 00 00 00    	je     2572 <.L21+0x113>
    24db:	89 f0                	mov    %esi,%eax
    24dd:	3c 08                	cmp    $0x8,%al
    24df:	0f 84 bc 00 00 00    	je     25a1 <.L21+0x142>
    24e5:	3c 09                	cmp    $0x9,%al
    24e7:	0f 85 2f ff ff ff    	jne    241c <.L19>
    24ed:	8b 93 b0 04 00 00    	mov    0x4b0(%ebx),%edx
    24f3:	88 d1                	mov    %dl,%cl
    24f5:	83 e1 07             	and    $0x7,%ecx
    24f8:	b0 08                	mov    $0x8,%al
    24fa:	29 c8                	sub    %ecx,%eax
    24fc:	0f be c0             	movsbl %al,%eax
    24ff:	01 c2                	add    %eax,%edx
    2501:	89 93 b0 04 00 00    	mov    %edx,0x4b0(%ebx)
    2507:	01 c0                	add    %eax,%eax
    2509:	03 83 b4 04 00 00    	add    0x4b4(%ebx),%eax
    250f:	89 83 b4 04 00 00    	mov    %eax,0x4b4(%ebx)
    2515:	83 fa 50             	cmp    $0x50,%edx
    2518:	0f 86 fe fe ff ff    	jbe    241c <.L19>
    251e:	83 ea 50             	sub    $0x50,%edx
    2521:	89 93 b0 04 00 00    	mov    %edx,0x4b0(%ebx)
    2527:	2d a0 00 00 00       	sub    $0xa0,%eax
    252c:	89 83 b4 04 00 00    	mov    %eax,0x4b4(%ebx)
    2532:	e8 33 fe ff ff       	call   236a <lf>
    2537:	e9 e0 fe ff ff       	jmp    241c <.L19>
    253c:	c7 83 a4 04 00 00 01 	movl   $0x1,0x4a4(%ebx)
    2543:	00 00 00 
    2546:	e9 d1 fe ff ff       	jmp    241c <.L19>
    254b:	e8 1a fe ff ff       	call   236a <lf>
    2550:	e9 c7 fe ff ff       	jmp    241c <.L19>
    2555:	8b 83 b0 04 00 00    	mov    0x4b0(%ebx),%eax
    255b:	01 c0                	add    %eax,%eax
    255d:	29 83 b4 04 00 00    	sub    %eax,0x4b4(%ebx)
    2563:	c7 83 b0 04 00 00 00 	movl   $0x0,0x4b0(%ebx)
    256a:	00 00 00 
    256d:	e9 aa fe ff ff       	jmp    241c <.L19>
    2572:	8b 83 b0 04 00 00    	mov    0x4b0(%ebx),%eax
    2578:	85 c0                	test   %eax,%eax
    257a:	0f 84 9c fe ff ff    	je     241c <.L19>
    2580:	8b 93 b4 04 00 00    	mov    0x4b4(%ebx),%edx
    2586:	8d 4a fe             	lea    -0x2(%edx),%ecx
    2589:	89 8b b4 04 00 00    	mov    %ecx,0x4b4(%ebx)
    258f:	48                   	dec    %eax
    2590:	89 83 b0 04 00 00    	mov    %eax,0x4b0(%ebx)
    2596:	66 c7 42 fe 20 07    	movw   $0x720,-0x2(%edx)
    259c:	e9 7b fe ff ff       	jmp    241c <.L19>
    25a1:	8b 83 b0 04 00 00    	mov    0x4b0(%ebx),%eax
    25a7:	85 c0                	test   %eax,%eax
    25a9:	0f 84 6d fe ff ff    	je     241c <.L19>
    25af:	48                   	dec    %eax
    25b0:	89 83 b0 04 00 00    	mov    %eax,0x4b0(%ebx)
    25b6:	83 ab b4 04 00 00 02 	subl   $0x2,0x4b4(%ebx)
    25bd:	e9 5a fe ff ff       	jmp    241c <.L19>

000025c2 <.L23>:
    25c2:	c7 83 a4 04 00 00 00 	movl   $0x0,0x4a4(%ebx)
    25c9:	00 00 00 
    25cc:	89 f0                	mov    %esi,%eax
    25ce:	3c 5b                	cmp    $0x5b,%al
    25d0:	74 3a                	je     260c <.L23+0x4a>
    25d2:	3c 45                	cmp    $0x45,%al
    25d4:	74 45                	je     261b <.L23+0x59>
    25d6:	3c 4d                	cmp    $0x4d,%al
    25d8:	74 78                	je     2652 <.L23+0x90>
    25da:	3c 44                	cmp    $0x44,%al
    25dc:	0f 84 9e 00 00 00    	je     2680 <.L23+0xbe>
    25e2:	3c 5a                	cmp    $0x5a,%al
    25e4:	0f 84 a0 00 00 00    	je     268a <.L23+0xc8>
    25ea:	8b 83 b0 04 00 00    	mov    0x4b0(%ebx),%eax
    25f0:	83 f8 37             	cmp    $0x37,%eax
    25f3:	0f 84 c3 00 00 00    	je     26bc <.L23+0xfa>
    25f9:	83 f8 38             	cmp    $0x38,%eax
    25fc:	0f 85 1a fe ff ff    	jne    241c <.L19>
    2602:	e8 93 fd ff ff       	call   239a <restore_cur>
    2607:	e9 10 fe ff ff       	jmp    241c <.L19>
    260c:	c7 83 a4 04 00 00 02 	movl   $0x2,0x4a4(%ebx)
    2613:	00 00 00 
    2616:	e9 01 fe ff ff       	jmp    241c <.L19>
    261b:	8b 83 ac 04 00 00    	mov    0x4ac(%ebx),%eax
    2621:	40                   	inc    %eax
    2622:	83 f8 18             	cmp    $0x18,%eax
    2625:	0f 87 f1 fd ff ff    	ja     241c <.L19>
    262b:	c7 83 b0 04 00 00 00 	movl   $0x0,0x4b0(%ebx)
    2632:	00 00 00 
    2635:	89 83 ac 04 00 00    	mov    %eax,0x4ac(%ebx)
    263b:	8d 04 80             	lea    (%eax,%eax,4),%eax
    263e:	c1 e0 05             	shl    $0x5,%eax
    2641:	03 83 08 00 00 00    	add    0x8(%ebx),%eax
    2647:	89 83 b4 04 00 00    	mov    %eax,0x4b4(%ebx)
    264d:	e9 ca fd ff ff       	jmp    241c <.L19>
    2652:	8b 83 ac 04 00 00    	mov    0x4ac(%ebx),%eax
    2658:	3b 83 a8 04 00 00    	cmp    0x4a8(%ebx),%eax
    265e:	76 16                	jbe    2676 <.L23+0xb4>
    2660:	48                   	dec    %eax
    2661:	89 83 ac 04 00 00    	mov    %eax,0x4ac(%ebx)
    2667:	81 ab b4 04 00 00 a0 	subl   $0xa0,0x4b4(%ebx)
    266e:	00 00 00 
    2671:	e9 a6 fd ff ff       	jmp    241c <.L19>
    2676:	e8 98 fc ff ff       	call   2313 <scrdown>
    267b:	e9 9c fd ff ff       	jmp    241c <.L19>
    2680:	e8 e5 fc ff ff       	call   236a <lf>
    2685:	e9 92 fd ff ff       	jmp    241c <.L19>
    268a:	fa                   	cli    
    268b:	8b 45 34             	mov    0x34(%ebp),%eax
    268e:	8d 8b 00 00 00 00    	lea    0x0(%ebx),%ecx
    2694:	b2 1b                	mov    $0x1b,%dl
    2696:	88 54 05 40          	mov    %dl,0x40(%ebp,%eax,1)
    269a:	40                   	inc    %eax
    269b:	25 ff 03 00 00       	and    $0x3ff,%eax
    26a0:	41                   	inc    %ecx
    26a1:	8a 11                	mov    (%ecx),%dl
    26a3:	84 d2                	test   %dl,%dl
    26a5:	75 ef                	jne    2696 <.L23+0xd4>
    26a7:	89 45 34             	mov    %eax,0x34(%ebp)
    26aa:	fb                   	sti    
    26ab:	83 ec 0c             	sub    $0xc,%esp
    26ae:	55                   	push   %ebp
    26af:	e8 fc ff ff ff       	call   26b0 <.L23+0xee>
    26b4:	83 c4 10             	add    $0x10,%esp
    26b7:	e9 60 fd ff ff       	jmp    241c <.L19>
    26bc:	c7 83 44 04 00 00 37 	movl   $0x37,0x444(%ebx)
    26c3:	00 00 00 
    26c6:	8b 83 ac 04 00 00    	mov    0x4ac(%ebx),%eax
    26cc:	89 83 40 04 00 00    	mov    %eax,0x440(%ebx)
    26d2:	e9 45 fd ff ff       	jmp    241c <.L19>

000026d7 <.L24>:
    26d7:	8d 83 60 04 00 00    	lea    0x460(%ebx),%eax
    26dd:	8d 93 a0 04 00 00    	lea    0x4a0(%ebx),%edx
    26e3:	c7 00 00 00 00 00    	movl   $0x0,(%eax)
    26e9:	83 c0 04             	add    $0x4,%eax
    26ec:	39 c2                	cmp    %eax,%edx
    26ee:	75 f3                	jne    26e3 <.L24+0xc>
    26f0:	c7 83 a0 04 00 00 00 	movl   $0x0,0x4a0(%ebx)
    26f7:	00 00 00 
    26fa:	c7 83 a4 04 00 00 03 	movl   $0x3,0x4a4(%ebx)
    2701:	00 00 00 
    2704:	89 f0                	mov    %esi,%eax
    2706:	3c 3f                	cmp    $0x3f,%al
    2708:	0f 84 0e fd ff ff    	je     241c <.L19>
    270e:	3c 3b                	cmp    $0x3b,%al
    2710:	75 17                	jne    2729 <.L25+0x6>
    2712:	b8 00 00 00 00       	mov    $0x0,%eax
    2717:	40                   	inc    %eax
    2718:	89 83 a0 04 00 00    	mov    %eax,0x4a0(%ebx)
    271e:	e9 f9 fc ff ff       	jmp    241c <.L19>

00002723 <.L25>:
    2723:	89 f0                	mov    %esi,%eax
    2725:	3c 3b                	cmp    $0x3b,%al
    2727:	74 2c                	je     2755 <.L25+0x32>
    2729:	8d 46 d0             	lea    -0x30(%esi),%eax
    272c:	3c 09                	cmp    $0x9,%al
    272e:	77 3f                	ja     276f <.L26>
    2730:	8b bb a0 04 00 00    	mov    0x4a0(%ebx),%edi
    2736:	8d 83 60 04 00 00    	lea    0x460(%ebx),%eax
    273c:	8b 0c b8             	mov    (%eax,%edi,4),%ecx
    273f:	8d 0c 89             	lea    (%ecx,%ecx,4),%ecx
    2742:	8d 4c 09 d0          	lea    -0x30(%ecx,%ecx,1),%ecx
    2746:	89 f2                	mov    %esi,%edx
    2748:	0f be f2             	movsbl %dl,%esi
    274b:	01 ce                	add    %ecx,%esi
    274d:	89 34 b8             	mov    %esi,(%eax,%edi,4)
    2750:	e9 c7 fc ff ff       	jmp    241c <.L19>
    2755:	8b 83 a0 04 00 00    	mov    0x4a0(%ebx),%eax
    275b:	83 f8 0e             	cmp    $0xe,%eax
    275e:	76 b7                	jbe    2717 <.L24+0x40>
    2760:	c7 83 a4 04 00 00 00 	movl   $0x0,0x4a4(%ebx)
    2767:	00 00 00 
    276a:	e9 ad fc ff ff       	jmp    241c <.L19>

0000276f <.L26>:
    276f:	c7 83 a4 04 00 00 00 	movl   $0x0,0x4a4(%ebx)
    2776:	00 00 00 
    2779:	8d 46 c0             	lea    -0x40(%esi),%eax
    277c:	3c 35                	cmp    $0x35,%al
    277e:	0f 87 98 fc ff ff    	ja     241c <.L19>
    2784:	0f b6 c0             	movzbl %al,%eax
    2787:	89 d9                	mov    %ebx,%ecx
    2789:	03 8c 83 24 01 00 00 	add    0x124(%ebx,%eax,4),%ecx
    2790:	ff e1                	jmp    *%ecx

00002792 <.L54>:
    2792:	8b 83 60 04 00 00    	mov    0x460(%ebx),%eax
    2798:	85 c0                	test   %eax,%eax
    279a:	0f 84 54 05 00 00    	je     2cf4 <.L64+0x5d>
    27a0:	48                   	dec    %eax
    27a1:	89 83 60 04 00 00    	mov    %eax,0x460(%ebx)
    27a7:	83 f8 4f             	cmp    $0x4f,%eax
    27aa:	0f 87 6c fc ff ff    	ja     241c <.L19>
    27b0:	8b 93 ac 04 00 00    	mov    0x4ac(%ebx),%edx
    27b6:	e9 3f 05 00 00       	jmp    2cfa <.L64+0x63>

000027bb <.L48>:
    27bb:	83 bb 60 04 00 00 00 	cmpl   $0x0,0x460(%ebx)
    27c2:	75 0a                	jne    27ce <.L48+0x13>
    27c4:	c7 83 60 04 00 00 01 	movl   $0x1,0x460(%ebx)
    27cb:	00 00 00 
    27ce:	8b 93 b0 04 00 00    	mov    0x4b0(%ebx),%edx
    27d4:	83 fa 4f             	cmp    $0x4f,%edx
    27d7:	0f 87 3f fc ff ff    	ja     241c <.L19>
    27dd:	8b 83 ac 04 00 00    	mov    0x4ac(%ebx),%eax
    27e3:	2b 83 60 04 00 00    	sub    0x460(%ebx),%eax
    27e9:	83 f8 18             	cmp    $0x18,%eax
    27ec:	0f 87 2a fc ff ff    	ja     241c <.L19>
    27f2:	89 83 ac 04 00 00    	mov    %eax,0x4ac(%ebx)
    27f8:	8d 04 80             	lea    (%eax,%eax,4),%eax
    27fb:	c1 e0 04             	shl    $0x4,%eax
    27fe:	01 c2                	add    %eax,%edx
    2800:	01 d2                	add    %edx,%edx
    2802:	89 d0                	mov    %edx,%eax
    2804:	03 83 08 00 00 00    	add    0x8(%ebx),%eax
    280a:	89 83 b4 04 00 00    	mov    %eax,0x4b4(%ebx)
    2810:	e9 07 fc ff ff       	jmp    241c <.L19>

00002815 <.L49>:
    2815:	83 bb 60 04 00 00 00 	cmpl   $0x0,0x460(%ebx)
    281c:	75 0a                	jne    2828 <.L49+0x13>
    281e:	c7 83 60 04 00 00 01 	movl   $0x1,0x460(%ebx)
    2825:	00 00 00 
    2828:	8b 93 b0 04 00 00    	mov    0x4b0(%ebx),%edx
    282e:	83 fa 4f             	cmp    $0x4f,%edx
    2831:	0f 87 e5 fb ff ff    	ja     241c <.L19>
    2837:	8b 83 ac 04 00 00    	mov    0x4ac(%ebx),%eax
    283d:	03 83 60 04 00 00    	add    0x460(%ebx),%eax
    2843:	83 f8 18             	cmp    $0x18,%eax
    2846:	0f 87 d0 fb ff ff    	ja     241c <.L19>
    284c:	89 83 ac 04 00 00    	mov    %eax,0x4ac(%ebx)
    2852:	8d 04 80             	lea    (%eax,%eax,4),%eax
    2855:	c1 e0 04             	shl    $0x4,%eax
    2858:	01 c2                	add    %eax,%edx
    285a:	01 d2                	add    %edx,%edx
    285c:	89 d0                	mov    %edx,%eax
    285e:	03 83 08 00 00 00    	add    0x8(%ebx),%eax
    2864:	89 83 b4 04 00 00    	mov    %eax,0x4b4(%ebx)
    286a:	e9 ad fb ff ff       	jmp    241c <.L19>

0000286f <.L50>:
    286f:	83 bb 60 04 00 00 00 	cmpl   $0x0,0x460(%ebx)
    2876:	75 0a                	jne    2882 <.L50+0x13>
    2878:	c7 83 60 04 00 00 01 	movl   $0x1,0x460(%ebx)
    287f:	00 00 00 
    2882:	8b 83 b0 04 00 00    	mov    0x4b0(%ebx),%eax
    2888:	03 83 60 04 00 00    	add    0x460(%ebx),%eax
    288e:	83 f8 4f             	cmp    $0x4f,%eax
    2891:	0f 87 85 fb ff ff    	ja     241c <.L19>
    2897:	8b 93 ac 04 00 00    	mov    0x4ac(%ebx),%edx
    289d:	83 fa 18             	cmp    $0x18,%edx
    28a0:	0f 87 76 fb ff ff    	ja     241c <.L19>
    28a6:	89 83 b0 04 00 00    	mov    %eax,0x4b0(%ebx)
    28ac:	8d 14 92             	lea    (%edx,%edx,4),%edx
    28af:	c1 e2 04             	shl    $0x4,%edx
    28b2:	01 d0                	add    %edx,%eax
    28b4:	01 c0                	add    %eax,%eax
    28b6:	03 83 08 00 00 00    	add    0x8(%ebx),%eax
    28bc:	89 83 b4 04 00 00    	mov    %eax,0x4b4(%ebx)
    28c2:	e9 55 fb ff ff       	jmp    241c <.L19>

000028c7 <.L51>:
    28c7:	83 bb 60 04 00 00 00 	cmpl   $0x0,0x460(%ebx)
    28ce:	75 0a                	jne    28da <.L51+0x13>
    28d0:	c7 83 60 04 00 00 01 	movl   $0x1,0x460(%ebx)
    28d7:	00 00 00 
    28da:	8b 83 b0 04 00 00    	mov    0x4b0(%ebx),%eax
    28e0:	2b 83 60 04 00 00    	sub    0x460(%ebx),%eax
    28e6:	83 f8 4f             	cmp    $0x4f,%eax
    28e9:	0f 87 2d fb ff ff    	ja     241c <.L19>
    28ef:	8b 93 ac 04 00 00    	mov    0x4ac(%ebx),%edx
    28f5:	83 fa 18             	cmp    $0x18,%edx
    28f8:	0f 87 1e fb ff ff    	ja     241c <.L19>
    28fe:	89 83 b0 04 00 00    	mov    %eax,0x4b0(%ebx)
    2904:	8d 14 92             	lea    (%edx,%edx,4),%edx
    2907:	c1 e2 04             	shl    $0x4,%edx
    290a:	01 d0                	add    %edx,%eax
    290c:	01 c0                	add    %eax,%eax
    290e:	03 83 08 00 00 00    	add    0x8(%ebx),%eax
    2914:	89 83 b4 04 00 00    	mov    %eax,0x4b4(%ebx)
    291a:	e9 fd fa ff ff       	jmp    241c <.L19>

0000291f <.L52>:
    291f:	83 bb 60 04 00 00 00 	cmpl   $0x0,0x460(%ebx)
    2926:	75 0a                	jne    2932 <.L52+0x13>
    2928:	c7 83 60 04 00 00 01 	movl   $0x1,0x460(%ebx)
    292f:	00 00 00 
    2932:	8b 83 ac 04 00 00    	mov    0x4ac(%ebx),%eax
    2938:	03 83 60 04 00 00    	add    0x460(%ebx),%eax
    293e:	83 f8 18             	cmp    $0x18,%eax
    2941:	0f 87 d5 fa ff ff    	ja     241c <.L19>
    2947:	c7 83 b0 04 00 00 00 	movl   $0x0,0x4b0(%ebx)
    294e:	00 00 00 
    2951:	89 83 ac 04 00 00    	mov    %eax,0x4ac(%ebx)
    2957:	8d 04 80             	lea    (%eax,%eax,4),%eax
    295a:	c1 e0 05             	shl    $0x5,%eax
    295d:	03 83 08 00 00 00    	add    0x8(%ebx),%eax
    2963:	89 83 b4 04 00 00    	mov    %eax,0x4b4(%ebx)
    2969:	e9 ae fa ff ff       	jmp    241c <.L19>

0000296e <.L53>:
    296e:	83 bb 60 04 00 00 00 	cmpl   $0x0,0x460(%ebx)
    2975:	75 0a                	jne    2981 <.L53+0x13>
    2977:	c7 83 60 04 00 00 01 	movl   $0x1,0x460(%ebx)
    297e:	00 00 00 
    2981:	8b 83 ac 04 00 00    	mov    0x4ac(%ebx),%eax
    2987:	2b 83 60 04 00 00    	sub    0x460(%ebx),%eax
    298d:	83 f8 18             	cmp    $0x18,%eax
    2990:	0f 87 86 fa ff ff    	ja     241c <.L19>
    2996:	c7 83 b0 04 00 00 00 	movl   $0x0,0x4b0(%ebx)
    299d:	00 00 00 
    29a0:	89 83 ac 04 00 00    	mov    %eax,0x4ac(%ebx)
    29a6:	8d 04 80             	lea    (%eax,%eax,4),%eax
    29a9:	c1 e0 05             	shl    $0x5,%eax
    29ac:	03 83 08 00 00 00    	add    0x8(%ebx),%eax
    29b2:	89 83 b4 04 00 00    	mov    %eax,0x4b4(%ebx)
    29b8:	e9 5f fa ff ff       	jmp    241c <.L19>

000029bd <.L61>:
    29bd:	8b 83 60 04 00 00    	mov    0x460(%ebx),%eax
    29c3:	85 c0                	test   %eax,%eax
    29c5:	0f 84 59 03 00 00    	je     2d24 <.L64+0x8d>
    29cb:	48                   	dec    %eax
    29cc:	89 83 60 04 00 00    	mov    %eax,0x460(%ebx)
    29d2:	8b 93 b0 04 00 00    	mov    0x4b0(%ebx),%edx
    29d8:	83 fa 4f             	cmp    $0x4f,%edx
    29db:	0f 87 3b fa ff ff    	ja     241c <.L19>
    29e1:	83 f8 18             	cmp    $0x18,%eax
    29e4:	0f 87 32 fa ff ff    	ja     241c <.L19>
    29ea:	e9 44 03 00 00       	jmp    2d33 <.L64+0x9c>

000029ef <.L55>:
    29ef:	8b 83 60 04 00 00    	mov    0x460(%ebx),%eax
    29f5:	85 c0                	test   %eax,%eax
    29f7:	74 07                	je     2a00 <.L55+0x11>
    29f9:	48                   	dec    %eax
    29fa:	89 83 60 04 00 00    	mov    %eax,0x460(%ebx)
    2a00:	8b 83 64 04 00 00    	mov    0x464(%ebx),%eax
    2a06:	85 c0                	test   %eax,%eax
    2a08:	0f 84 48 03 00 00    	je     2d56 <.L64+0xbf>
    2a0e:	48                   	dec    %eax
    2a0f:	89 83 64 04 00 00    	mov    %eax,0x464(%ebx)
    2a15:	83 f8 4f             	cmp    $0x4f,%eax
    2a18:	0f 87 fe f9 ff ff    	ja     241c <.L19>
    2a1e:	8b 93 60 04 00 00    	mov    0x460(%ebx),%edx
    2a24:	e9 33 03 00 00       	jmp    2d5c <.L64+0xc5>

00002a29 <.L56>:
    2a29:	8b 83 60 04 00 00    	mov    0x460(%ebx),%eax
    2a2f:	83 f8 01             	cmp    $0x1,%eax
    2a32:	74 39                	je     2a6d <.L56+0x44>
    2a34:	83 f8 01             	cmp    $0x1,%eax
    2a37:	72 16                	jb     2a4f <.L56+0x26>
    2a39:	83 f8 02             	cmp    $0x2,%eax
    2a3c:	0f 85 da f9 ff ff    	jne    241c <.L19>
    2a42:	8b bb 08 00 00 00    	mov    0x8(%ebx),%edi
    2a48:	b9 d0 07 00 00       	mov    $0x7d0,%ecx
    2a4d:	eb 10                	jmp    2a5f <.L56+0x36>
    2a4f:	8b bb b4 04 00 00    	mov    0x4b4(%ebx),%edi
    2a55:	8b 8b 04 00 00 00    	mov    0x4(%ebx),%ecx
    2a5b:	29 f9                	sub    %edi,%ecx
    2a5d:	d1 e9                	shr    %ecx
    2a5f:	b8 20 07 00 00       	mov    $0x720,%eax
    2a64:	fc                   	cld    
    2a65:	f3 66 ab             	rep stos %ax,%es:(%edi)
    2a68:	e9 af f9 ff ff       	jmp    241c <.L19>
    2a6d:	8b bb 08 00 00 00    	mov    0x8(%ebx),%edi
    2a73:	8b 8b b4 04 00 00    	mov    0x4b4(%ebx),%ecx
    2a79:	29 f9                	sub    %edi,%ecx
    2a7b:	d1 e9                	shr    %ecx
    2a7d:	eb e0                	jmp    2a5f <.L56+0x36>

00002a7f <.L57>:
    2a7f:	8b 83 60 04 00 00    	mov    0x460(%ebx),%eax
    2a85:	83 f8 01             	cmp    $0x1,%eax
    2a88:	74 4f                	je     2ad9 <.L57+0x5a>
    2a8a:	83 f8 01             	cmp    $0x1,%eax
    2a8d:	72 2c                	jb     2abb <.L57+0x3c>
    2a8f:	83 f8 02             	cmp    $0x2,%eax
    2a92:	0f 85 84 f9 ff ff    	jne    241c <.L19>
    2a98:	8b 83 b0 04 00 00    	mov    0x4b0(%ebx),%eax
    2a9e:	01 c0                	add    %eax,%eax
    2aa0:	8b bb b4 04 00 00    	mov    0x4b4(%ebx),%edi
    2aa6:	29 c7                	sub    %eax,%edi
    2aa8:	b9 50 00 00 00       	mov    $0x50,%ecx
    2aad:	b8 20 07 00 00       	mov    $0x720,%eax
    2ab2:	fc                   	cld    
    2ab3:	f3 66 ab             	rep stos %ax,%es:(%edi)
    2ab6:	e9 61 f9 ff ff       	jmp    241c <.L19>
    2abb:	8b 83 b0 04 00 00    	mov    0x4b0(%ebx),%eax
    2ac1:	83 f8 4f             	cmp    $0x4f,%eax
    2ac4:	0f 87 52 f9 ff ff    	ja     241c <.L19>
    2aca:	b9 50 00 00 00       	mov    $0x50,%ecx
    2acf:	29 c1                	sub    %eax,%ecx
    2ad1:	8b bb b4 04 00 00    	mov    0x4b4(%ebx),%edi
    2ad7:	eb d4                	jmp    2aad <.L57+0x2e>
    2ad9:	8b 83 b0 04 00 00    	mov    0x4b0(%ebx),%eax
    2adf:	8d 14 00             	lea    (%eax,%eax,1),%edx
    2ae2:	8b bb b4 04 00 00    	mov    0x4b4(%ebx),%edi
    2ae8:	29 d7                	sub    %edx,%edi
    2aea:	89 c1                	mov    %eax,%ecx
    2aec:	83 f8 50             	cmp    $0x50,%eax
    2aef:	76 bc                	jbe    2aad <.L57+0x2e>
    2af1:	b9 50 00 00 00       	mov    $0x50,%ecx
    2af6:	eb b5                	jmp    2aad <.L57+0x2e>

00002af8 <.L58>:
    2af8:	8b 83 60 04 00 00    	mov    0x460(%ebx),%eax
    2afe:	83 f8 19             	cmp    $0x19,%eax
    2b01:	0f 87 85 02 00 00    	ja     2d8c <.L64+0xf5>
    2b07:	89 c2                	mov    %eax,%edx
    2b09:	85 c0                	test   %eax,%eax
    2b0b:	0f 85 80 02 00 00    	jne    2d91 <.L64+0xfa>
    2b11:	ba 01 00 00 00       	mov    $0x1,%edx
    2b16:	e9 76 02 00 00       	jmp    2d91 <.L64+0xfa>

00002b1b <.L59>:
    2b1b:	8b 83 60 04 00 00    	mov    0x460(%ebx),%eax
    2b21:	83 f8 19             	cmp    $0x19,%eax
    2b24:	0f 87 b2 02 00 00    	ja     2ddc <.L64+0x145>
    2b2a:	89 c2                	mov    %eax,%edx
    2b2c:	85 c0                	test   %eax,%eax
    2b2e:	0f 85 ad 02 00 00    	jne    2de1 <.L64+0x14a>
    2b34:	ba 01 00 00 00       	mov    $0x1,%edx
    2b39:	e9 a3 02 00 00       	jmp    2de1 <.L64+0x14a>

00002b3e <.L60>:
    2b3e:	8b 83 60 04 00 00    	mov    0x460(%ebx),%eax
    2b44:	83 f8 50             	cmp    $0x50,%eax
    2b47:	77 0d                	ja     2b56 <.L60+0x18>
    2b49:	89 c1                	mov    %eax,%ecx
    2b4b:	85 c0                	test   %eax,%eax
    2b4d:	75 0c                	jne    2b5b <.L60+0x1d>
    2b4f:	b9 01 00 00 00       	mov    $0x1,%ecx
    2b54:	eb 05                	jmp    2b5b <.L60+0x1d>
    2b56:	b9 50 00 00 00       	mov    $0x50,%ecx
    2b5b:	8b 83 b4 04 00 00    	mov    0x4b4(%ebx),%eax
    2b61:	89 44 24 0c          	mov    %eax,0xc(%esp)
    2b65:	8b b3 b0 04 00 00    	mov    0x4b0(%ebx),%esi
    2b6b:	8d 7e 01             	lea    0x1(%esi),%edi
    2b6e:	89 7c 24 08          	mov    %edi,0x8(%esp)
    2b72:	eb 09                	jmp    2b7d <.L60+0x3f>
    2b74:	8b 44 24 0c          	mov    0xc(%esp),%eax
    2b78:	66 c7 00 20 07       	movw   $0x720,(%eax)
    2b7d:	49                   	dec    %ecx
    2b7e:	83 f9 ff             	cmp    $0xffffffff,%ecx
    2b81:	0f 84 95 f8 ff ff    	je     241c <.L19>
    2b87:	83 fe 4f             	cmp    $0x4f,%esi
    2b8a:	77 f1                	ja     2b7d <.L60+0x3f>
    2b8c:	83 7c 24 08 4f       	cmpl   $0x4f,0x8(%esp)
    2b91:	77 e1                	ja     2b74 <.L60+0x36>
    2b93:	89 fa                	mov    %edi,%edx
    2b95:	8b 44 24 0c          	mov    0xc(%esp),%eax
    2b99:	89 4c 24 04          	mov    %ecx,0x4(%esp)
    2b9d:	66 8b 48 02          	mov    0x2(%eax),%cx
    2ba1:	66 89 08             	mov    %cx,(%eax)
    2ba4:	83 c0 02             	add    $0x2,%eax
    2ba7:	42                   	inc    %edx
    2ba8:	83 fa 4f             	cmp    $0x4f,%edx
    2bab:	76 f0                	jbe    2b9d <.L60+0x5f>
    2bad:	8b 4c 24 04          	mov    0x4(%esp),%ecx
    2bb1:	eb c5                	jmp    2b78 <.L60+0x3a>

00002bb3 <.L46>:
    2bb3:	8b 83 60 04 00 00    	mov    0x460(%ebx),%eax
    2bb9:	83 f8 50             	cmp    $0x50,%eax
    2bbc:	77 3e                	ja     2bfc <.L46+0x49>
    2bbe:	89 c7                	mov    %eax,%edi
    2bc0:	85 c0                	test   %eax,%eax
    2bc2:	75 3d                	jne    2c01 <.L46+0x4e>
    2bc4:	bf 01 00 00 00       	mov    $0x1,%edi
    2bc9:	eb 36                	jmp    2c01 <.L46+0x4e>
    2bcb:	66 8b 30             	mov    (%eax),%si
    2bce:	66 89 08             	mov    %cx,(%eax)
    2bd1:	83 c0 02             	add    $0x2,%eax
    2bd4:	42                   	inc    %edx
    2bd5:	89 f1                	mov    %esi,%ecx
    2bd7:	83 fa 4f             	cmp    $0x4f,%edx
    2bda:	76 ef                	jbe    2bcb <.L46+0x18>
    2bdc:	4f                   	dec    %edi
    2bdd:	83 ff ff             	cmp    $0xffffffff,%edi
    2be0:	0f 84 36 f8 ff ff    	je     241c <.L19>
    2be6:	8b 44 24 04          	mov    0x4(%esp),%eax
    2bea:	83 f8 4f             	cmp    $0x4f,%eax
    2bed:	77 ed                	ja     2bdc <.L46+0x29>
    2bef:	89 c2                	mov    %eax,%edx
    2bf1:	8b 44 24 08          	mov    0x8(%esp),%eax
    2bf5:	b9 20 07 00 00       	mov    $0x720,%ecx
    2bfa:	eb cf                	jmp    2bcb <.L46+0x18>
    2bfc:	bf 50 00 00 00       	mov    $0x50,%edi
    2c01:	8b 83 b0 04 00 00    	mov    0x4b0(%ebx),%eax
    2c07:	89 44 24 04          	mov    %eax,0x4(%esp)
    2c0b:	8b 83 b4 04 00 00    	mov    0x4b4(%ebx),%eax
    2c11:	89 44 24 08          	mov    %eax,0x8(%esp)
    2c15:	eb c5                	jmp    2bdc <.L46+0x29>

00002c17 <.L62>:
    2c17:	8b 83 60 04 00 00    	mov    0x460(%ebx),%eax
    2c1d:	85 c0                	test   %eax,%eax
    2c1f:	74 07                	je     2c28 <.L62+0x11>
    2c21:	48                   	dec    %eax
    2c22:	89 83 60 04 00 00    	mov    %eax,0x460(%ebx)
    2c28:	8b 83 64 04 00 00    	mov    0x464(%ebx),%eax
    2c2e:	85 c0                	test   %eax,%eax
    2c30:	75 2f                	jne    2c61 <.L62+0x4a>
    2c32:	c7 83 64 04 00 00 19 	movl   $0x19,0x464(%ebx)
    2c39:	00 00 00 
    2c3c:	8b 93 60 04 00 00    	mov    0x460(%ebx),%edx
    2c42:	83 fa 18             	cmp    $0x18,%edx
    2c45:	0f 87 d1 f7 ff ff    	ja     241c <.L19>
    2c4b:	b8 19 00 00 00       	mov    $0x19,%eax
    2c50:	89 93 a8 04 00 00    	mov    %edx,0x4a8(%ebx)
    2c56:	89 83 00 00 00 00    	mov    %eax,0x0(%ebx)
    2c5c:	e9 bb f7 ff ff       	jmp    241c <.L19>
    2c61:	8b 93 60 04 00 00    	mov    0x460(%ebx),%edx
    2c67:	39 d0                	cmp    %edx,%eax
    2c69:	0f 86 ad f7 ff ff    	jbe    241c <.L19>
    2c6f:	83 f8 19             	cmp    $0x19,%eax
    2c72:	0f 87 a4 f7 ff ff    	ja     241c <.L19>
    2c78:	eb d6                	jmp    2c50 <.L62+0x39>

00002c7a <.L63>:
    2c7a:	8b 83 b0 04 00 00    	mov    0x4b0(%ebx),%eax
    2c80:	89 83 44 04 00 00    	mov    %eax,0x444(%ebx)
    2c86:	8b 83 ac 04 00 00    	mov    0x4ac(%ebx),%eax
    2c8c:	89 83 40 04 00 00    	mov    %eax,0x440(%ebx)
    2c92:	e9 85 f7 ff ff       	jmp    241c <.L19>

00002c97 <.L64>:
    2c97:	e8 fe f6 ff ff       	call   239a <restore_cur>
    2c9c:	e9 7b f7 ff ff       	jmp    241c <.L19>
    2ca1:	fa                   	cli    
    2ca2:	be d4 03 00 00       	mov    $0x3d4,%esi
    2ca7:	b8 0e 00 00 00       	mov    $0xe,%eax
    2cac:	89 f2                	mov    %esi,%edx
    2cae:	ee                   	out    %al,(%dx)
    2caf:	eb 00                	jmp    2cb1 <.L64+0x1a>
    2cb1:	eb 00                	jmp    2cb3 <.L64+0x1c>
    2cb3:	8b 8b b4 04 00 00    	mov    0x4b4(%ebx),%ecx
    2cb9:	81 e9 00 80 0b 00    	sub    $0xb8000,%ecx
    2cbf:	89 c8                	mov    %ecx,%eax
    2cc1:	c1 e8 09             	shr    $0x9,%eax
    2cc4:	0f b6 c0             	movzbl %al,%eax
    2cc7:	bb d5 03 00 00       	mov    $0x3d5,%ebx
    2ccc:	89 da                	mov    %ebx,%edx
    2cce:	ee                   	out    %al,(%dx)
    2ccf:	eb 00                	jmp    2cd1 <.L64+0x3a>
    2cd1:	eb 00                	jmp    2cd3 <.L64+0x3c>
    2cd3:	b8 0f 00 00 00       	mov    $0xf,%eax
    2cd8:	89 f2                	mov    %esi,%edx
    2cda:	ee                   	out    %al,(%dx)
    2cdb:	eb 00                	jmp    2cdd <.L64+0x46>
    2cdd:	eb 00                	jmp    2cdf <.L64+0x48>
    2cdf:	d1 e9                	shr    %ecx
    2ce1:	0f b6 c1             	movzbl %cl,%eax
    2ce4:	89 da                	mov    %ebx,%edx
    2ce6:	ee                   	out    %al,(%dx)
    2ce7:	eb 00                	jmp    2ce9 <.L64+0x52>
    2ce9:	eb 00                	jmp    2ceb <.L64+0x54>
    2ceb:	fb                   	sti    
    2cec:	83 c4 1c             	add    $0x1c,%esp
    2cef:	5b                   	pop    %ebx
    2cf0:	5e                   	pop    %esi
    2cf1:	5f                   	pop    %edi
    2cf2:	5d                   	pop    %ebp
    2cf3:	c3                   	ret    
    2cf4:	8b 93 ac 04 00 00    	mov    0x4ac(%ebx),%edx
    2cfa:	83 fa 18             	cmp    $0x18,%edx
    2cfd:	0f 87 19 f7 ff ff    	ja     241c <.L19>
    2d03:	89 83 b0 04 00 00    	mov    %eax,0x4b0(%ebx)
    2d09:	8d 14 92             	lea    (%edx,%edx,4),%edx
    2d0c:	c1 e2 04             	shl    $0x4,%edx
    2d0f:	01 d0                	add    %edx,%eax
    2d11:	01 c0                	add    %eax,%eax
    2d13:	03 83 08 00 00 00    	add    0x8(%ebx),%eax
    2d19:	89 83 b4 04 00 00    	mov    %eax,0x4b4(%ebx)
    2d1f:	e9 f8 f6 ff ff       	jmp    241c <.L19>
    2d24:	8b 93 b0 04 00 00    	mov    0x4b0(%ebx),%edx
    2d2a:	83 fa 4f             	cmp    $0x4f,%edx
    2d2d:	0f 87 e9 f6 ff ff    	ja     241c <.L19>
    2d33:	89 83 ac 04 00 00    	mov    %eax,0x4ac(%ebx)
    2d39:	8d 04 80             	lea    (%eax,%eax,4),%eax
    2d3c:	c1 e0 04             	shl    $0x4,%eax
    2d3f:	01 c2                	add    %eax,%edx
    2d41:	01 d2                	add    %edx,%edx
    2d43:	89 d0                	mov    %edx,%eax
    2d45:	03 83 08 00 00 00    	add    0x8(%ebx),%eax
    2d4b:	89 83 b4 04 00 00    	mov    %eax,0x4b4(%ebx)
    2d51:	e9 c6 f6 ff ff       	jmp    241c <.L19>
    2d56:	8b 93 60 04 00 00    	mov    0x460(%ebx),%edx
    2d5c:	83 fa 18             	cmp    $0x18,%edx
    2d5f:	0f 87 b7 f6 ff ff    	ja     241c <.L19>
    2d65:	89 83 b0 04 00 00    	mov    %eax,0x4b0(%ebx)
    2d6b:	89 93 ac 04 00 00    	mov    %edx,0x4ac(%ebx)
    2d71:	8d 14 92             	lea    (%edx,%edx,4),%edx
    2d74:	c1 e2 04             	shl    $0x4,%edx
    2d77:	01 d0                	add    %edx,%eax
    2d79:	01 c0                	add    %eax,%eax
    2d7b:	03 83 08 00 00 00    	add    0x8(%ebx),%eax
    2d81:	89 83 b4 04 00 00    	mov    %eax,0x4b4(%ebx)
    2d87:	e9 90 f6 ff ff       	jmp    241c <.L19>
    2d8c:	ba 19 00 00 00       	mov    $0x19,%edx
    2d91:	8d 42 ff             	lea    -0x1(%edx),%eax
    2d94:	89 c6                	mov    %eax,%esi
    2d96:	89 6c 24 30          	mov    %ebp,0x30(%esp)
    2d9a:	8b ab a8 04 00 00    	mov    0x4a8(%ebx),%ebp
    2da0:	8b bb 00 00 00 00    	mov    0x0(%ebx),%edi
    2da6:	8b 83 ac 04 00 00    	mov    0x4ac(%ebx),%eax
    2dac:	89 83 a8 04 00 00    	mov    %eax,0x4a8(%ebx)
    2db2:	c7 83 00 00 00 00 19 	movl   $0x19,0x0(%ebx)
    2db9:	00 00 00 
    2dbc:	e8 52 f5 ff ff       	call   2313 <scrdown>
    2dc1:	89 ab a8 04 00 00    	mov    %ebp,0x4a8(%ebx)
    2dc7:	89 bb 00 00 00 00    	mov    %edi,0x0(%ebx)
    2dcd:	4e                   	dec    %esi
    2dce:	83 fe ff             	cmp    $0xffffffff,%esi
    2dd1:	75 c7                	jne    2d9a <.L64+0x103>
    2dd3:	8b 6c 24 30          	mov    0x30(%esp),%ebp
    2dd7:	e9 40 f6 ff ff       	jmp    241c <.L19>
    2ddc:	ba 19 00 00 00       	mov    $0x19,%edx
    2de1:	8d 42 ff             	lea    -0x1(%edx),%eax
    2de4:	89 c6                	mov    %eax,%esi
    2de6:	89 6c 24 30          	mov    %ebp,0x30(%esp)
    2dea:	8b ab a8 04 00 00    	mov    0x4a8(%ebx),%ebp
    2df0:	8b bb 00 00 00 00    	mov    0x0(%ebx),%edi
    2df6:	8b 83 ac 04 00 00    	mov    0x4ac(%ebx),%eax
    2dfc:	89 83 a8 04 00 00    	mov    %eax,0x4a8(%ebx)
    2e02:	c7 83 00 00 00 00 19 	movl   $0x19,0x0(%ebx)
    2e09:	00 00 00 
    2e0c:	e8 b5 f3 ff ff       	call   21c6 <scrup>
    2e11:	89 ab a8 04 00 00    	mov    %ebp,0x4a8(%ebx)
    2e17:	89 bb 00 00 00 00    	mov    %edi,0x0(%ebx)
    2e1d:	4e                   	dec    %esi
    2e1e:	83 fe ff             	cmp    $0xffffffff,%esi
    2e21:	75 c7                	jne    2dea <.L64+0x153>
    2e23:	8b 6c 24 30          	mov    0x30(%esp),%ebp
    2e27:	e9 f0 f5 ff ff       	jmp    241c <.L19>

00002e2c <con_init>:
    2e2c:	e8 fc ff ff ff       	call   2e2d <con_init+0x1>
    2e31:	05 01 00 00 00       	add    $0x1,%eax
    2e36:	0f b6 0d fe 01 09 00 	movzbl 0x901fe,%ecx
    2e3d:	83 f9 4f             	cmp    $0x4f,%ecx
    2e40:	77 2e                	ja     2e70 <con_init+0x44>
    2e42:	0f b6 15 ff 01 09 00 	movzbl 0x901ff,%edx
    2e49:	83 fa 18             	cmp    $0x18,%edx
    2e4c:	77 22                	ja     2e70 <con_init+0x44>
    2e4e:	89 88 b0 04 00 00    	mov    %ecx,0x4b0(%eax)
    2e54:	89 90 ac 04 00 00    	mov    %edx,0x4ac(%eax)
    2e5a:	8d 14 92             	lea    (%edx,%edx,4),%edx
    2e5d:	c1 e2 04             	shl    $0x4,%edx
    2e60:	01 ca                	add    %ecx,%edx
    2e62:	01 d2                	add    %edx,%edx
    2e64:	03 90 08 00 00 00    	add    0x8(%eax),%edx
    2e6a:	89 90 b4 04 00 00    	mov    %edx,0x4b4(%eax)
    2e70:	8b 88 00 00 00 00    	mov    0x0(%eax),%ecx
    2e76:	8b 90 00 00 00 00    	mov    0x0(%eax),%edx
    2e7c:	b8 00 00 08 00       	mov    $0x80000,%eax
    2e81:	66 89 d0             	mov    %dx,%ax
    2e84:	66 ba 00 8f          	mov    $0x8f00,%dx
    2e88:	89 81 08 01 00 00    	mov    %eax,0x108(%ecx)
    2e8e:	89 91 0c 01 00 00    	mov    %edx,0x10c(%ecx)
    2e94:	ba 21 00 00 00       	mov    $0x21,%edx
    2e99:	ec                   	in     (%dx),%al
    2e9a:	eb 00                	jmp    2e9c <con_init+0x70>
    2e9c:	eb 00                	jmp    2e9e <con_init+0x72>
    2e9e:	25 fd 00 00 00       	and    $0xfd,%eax
    2ea3:	ee                   	out    %al,(%dx)
    2ea4:	eb 00                	jmp    2ea6 <con_init+0x7a>
    2ea6:	eb 00                	jmp    2ea8 <con_init+0x7c>
    2ea8:	ba 61 00 00 00       	mov    $0x61,%edx
    2ead:	ec                   	in     (%dx),%al
    2eae:	eb 00                	jmp    2eb0 <con_init+0x84>
    2eb0:	eb 00                	jmp    2eb2 <con_init+0x86>
    2eb2:	88 c1                	mov    %al,%cl
    2eb4:	83 c8 80             	or     $0xffffff80,%eax
    2eb7:	0f b6 c0             	movzbl %al,%eax
    2eba:	ee                   	out    %al,(%dx)
    2ebb:	eb 00                	jmp    2ebd <con_init+0x91>
    2ebd:	eb 00                	jmp    2ebf <con_init+0x93>
    2ebf:	88 c8                	mov    %cl,%al
    2ec1:	ee                   	out    %al,(%dx)
    2ec2:	c3                   	ret    

00002ec3 <mode>:
	...

00002ec4 <leds>:
    2ec4:	02                   	.byte 0x2

00002ec5 <e0>:
	...

00002ec6 <keyboard_interrupt>:
    2ec6:	50                   	push   %eax
    2ec7:	53                   	push   %ebx
    2ec8:	51                   	push   %ecx
    2ec9:	52                   	push   %edx
    2eca:	1e                   	push   %ds
    2ecb:	06                   	push   %es
    2ecc:	b8 10 00 00 00       	mov    $0x10,%eax
    2ed1:	8e d8                	mov    %eax,%ds
    2ed3:	8e c0                	mov    %eax,%es
    2ed5:	31 c0                	xor    %eax,%eax
    2ed7:	e4 60                	in     $0x60,%al
    2ed9:	3c e0                	cmp    $0xe0,%al
    2edb:	74 3d                	je     2f1a <set_e0>
    2edd:	3c e1                	cmp    $0xe1,%al
    2edf:	74 42                	je     2f23 <set_e1>
    2ee1:	ff 14 85 7d 32 00 00 	call   *0x327d(,%eax,4)
    2ee8:	c6 05 c5 2e 00 00 00 	movb   $0x0,0x2ec5

00002eef <e0_e1>:
    2eef:	e4 61                	in     $0x61,%al
    2ef1:	eb 00                	jmp    2ef3 <e0_e1+0x4>
    2ef3:	eb 00                	jmp    2ef5 <e0_e1+0x6>
    2ef5:	0c 80                	or     $0x80,%al
    2ef7:	eb 00                	jmp    2ef9 <e0_e1+0xa>
    2ef9:	eb 00                	jmp    2efb <e0_e1+0xc>
    2efb:	e6 61                	out    %al,$0x61
    2efd:	eb 00                	jmp    2eff <e0_e1+0x10>
    2eff:	eb 00                	jmp    2f01 <e0_e1+0x12>
    2f01:	24 7f                	and    $0x7f,%al
    2f03:	e6 61                	out    %al,$0x61
    2f05:	b0 20                	mov    $0x20,%al
    2f07:	e6 20                	out    %al,$0x20
    2f09:	6a 00                	push   $0x0
    2f0b:	e8 fc ff ff ff       	call   2f0c <e0_e1+0x1d>
    2f10:	83 c4 04             	add    $0x4,%esp
    2f13:	07                   	pop    %es
    2f14:	1f                   	pop    %ds
    2f15:	5a                   	pop    %edx
    2f16:	59                   	pop    %ecx
    2f17:	5b                   	pop    %ebx
    2f18:	58                   	pop    %eax
    2f19:	cf                   	iret   

00002f1a <set_e0>:
    2f1a:	c6 05 c5 2e 00 00 01 	movb   $0x1,0x2ec5
    2f21:	eb cc                	jmp    2eef <e0_e1>

00002f23 <set_e1>:
    2f23:	c6 05 c5 2e 00 00 02 	movb   $0x2,0x2ec5
    2f2a:	eb c3                	jmp    2eef <e0_e1>

00002f2c <put_queue>:
    2f2c:	51                   	push   %ecx
    2f2d:	52                   	push   %edx
    2f2e:	8b 15 00 00 00 00    	mov    0x0,%edx
    2f34:	8b 4a 04             	mov    0x4(%edx),%ecx
    2f37:	88 44 0a 10          	mov    %al,0x10(%edx,%ecx,1)
    2f3b:	41                   	inc    %ecx
    2f3c:	81 e1 ff 03 00 00    	and    $0x3ff,%ecx
    2f42:	3b 4a 08             	cmp    0x8(%edx),%ecx
    2f45:	74 1b                	je     2f62 <put_queue+0x36>
    2f47:	0f ac d8 08          	shrd   $0x8,%ebx,%eax
    2f4b:	74 05                	je     2f52 <put_queue+0x26>
    2f4d:	c1 eb 08             	shr    $0x8,%ebx
    2f50:	eb e5                	jmp    2f37 <put_queue+0xb>
    2f52:	89 4a 04             	mov    %ecx,0x4(%edx)
    2f55:	8b 4a 0c             	mov    0xc(%edx),%ecx
    2f58:	85 c9                	test   %ecx,%ecx
    2f5a:	74 06                	je     2f62 <put_queue+0x36>
    2f5c:	c7 01 00 00 00 00    	movl   $0x0,(%ecx)
    2f62:	5a                   	pop    %edx
    2f63:	59                   	pop    %ecx
    2f64:	c3                   	ret    

00002f65 <ctrl>:
    2f65:	b0 04                	mov    $0x4,%al
    2f67:	eb 02                	jmp    2f6b <alt+0x2>

00002f69 <alt>:
    2f69:	b0 10                	mov    $0x10,%al
    2f6b:	80 3d c5 2e 00 00 00 	cmpb   $0x0,0x2ec5
    2f72:	74 02                	je     2f76 <alt+0xd>
    2f74:	00 c0                	add    %al,%al
    2f76:	08 05 c3 2e 00 00    	or     %al,0x2ec3
    2f7c:	c3                   	ret    

00002f7d <unctrl>:
    2f7d:	b0 04                	mov    $0x4,%al
    2f7f:	eb 02                	jmp    2f83 <unalt+0x2>

00002f81 <unalt>:
    2f81:	b0 10                	mov    $0x10,%al
    2f83:	80 3d c5 2e 00 00 00 	cmpb   $0x0,0x2ec5
    2f8a:	74 02                	je     2f8e <unalt+0xd>
    2f8c:	00 c0                	add    %al,%al
    2f8e:	f6 d0                	not    %al
    2f90:	20 05 c3 2e 00 00    	and    %al,0x2ec3
    2f96:	c3                   	ret    

00002f97 <lshift>:
    2f97:	80 0d c3 2e 00 00 01 	orb    $0x1,0x2ec3
    2f9e:	c3                   	ret    

00002f9f <unlshift>:
    2f9f:	80 25 c3 2e 00 00 fe 	andb   $0xfe,0x2ec3
    2fa6:	c3                   	ret    

00002fa7 <rshift>:
    2fa7:	80 0d c3 2e 00 00 02 	orb    $0x2,0x2ec3
    2fae:	c3                   	ret    

00002faf <unrshift>:
    2faf:	80 25 c3 2e 00 00 fd 	andb   $0xfd,0x2ec3
    2fb6:	c3                   	ret    

00002fb7 <caps>:
    2fb7:	f6 05 c3 2e 00 00 80 	testb  $0x80,0x2ec3
    2fbe:	0f 85 8d 00 00 00    	jne    3051 <cur2+0x28>
    2fc4:	80 35 c4 2e 00 00 04 	xorb   $0x4,0x2ec4
    2fcb:	80 35 c3 2e 00 00 40 	xorb   $0x40,0x2ec3
    2fd2:	80 0d c3 2e 00 00 80 	orb    $0x80,0x2ec3

00002fd9 <set_leds>:
    2fd9:	e8 9f 06 00 00       	call   367d <kb_wait>
    2fde:	b0 ed                	mov    $0xed,%al
    2fe0:	e6 60                	out    %al,$0x60
    2fe2:	e8 96 06 00 00       	call   367d <kb_wait>
    2fe7:	a0 c4 2e 00 00       	mov    0x2ec4,%al
    2fec:	e6 60                	out    %al,$0x60
    2fee:	c3                   	ret    

00002fef <uncaps>:
    2fef:	80 25 c3 2e 00 00 7f 	andb   $0x7f,0x2ec3
    2ff6:	c3                   	ret    

00002ff7 <scroll>:
    2ff7:	80 35 c4 2e 00 00 01 	xorb   $0x1,0x2ec4
    2ffe:	eb d9                	jmp    2fd9 <set_leds>

00003000 <num>:
    3000:	80 35 c4 2e 00 00 02 	xorb   $0x2,0x2ec4
    3007:	eb d0                	jmp    2fd9 <set_leds>

00003009 <cursor>:
    3009:	2c 47                	sub    $0x47,%al
    300b:	72 44                	jb     3051 <cur2+0x28>
    300d:	3c 0c                	cmp    $0xc,%al
    300f:	77 40                	ja     3051 <cur2+0x28>
    3011:	75 16                	jne    3029 <cur2>
    3013:	f6 05 c3 2e 00 00 0c 	testb  $0xc,0x2ec3
    301a:	74 0d                	je     3029 <cur2>
    301c:	f6 05 c3 2e 00 00 30 	testb  $0x30,0x2ec3
    3023:	0f 85 5d 06 00 00    	jne    3686 <reboot>

00003029 <cur2>:
    3029:	80 3d c5 2e 00 00 01 	cmpb   $0x1,0x2ec5
    3030:	74 20                	je     3052 <cur>
    3032:	f6 05 c4 2e 00 00 02 	testb  $0x2,0x2ec4
    3039:	74 17                	je     3052 <cur>
    303b:	f6 05 c3 2e 00 00 03 	testb  $0x3,0x2ec3
    3042:	75 0e                	jne    3052 <cur>
    3044:	31 db                	xor    %ebx,%ebx
    3046:	8a 80 6c 30 00 00    	mov    0x306c(%eax),%al
    304c:	e9 db fe ff ff       	jmp    2f2c <put_queue>
    3051:	c3                   	ret    

00003052 <cur>:
    3052:	8a 80 79 30 00 00    	mov    0x3079(%eax),%al
    3058:	3c 39                	cmp    $0x39,%al
    305a:	77 02                	ja     305e <ok_cur>
    305c:	b4 7e                	mov    $0x7e,%ah

0000305e <ok_cur>:
    305e:	c1 e0 10             	shl    $0x10,%eax
    3061:	66 b8 1b 5b          	mov    $0x5b1b,%ax
    3065:	31 db                	xor    %ebx,%ebx
    3067:	e9 c0 fe ff ff       	jmp    2f2c <put_queue>

0000306c <num_table>:
    306c:	37                   	aaa    
    306d:	38 39                	cmp    %bh,(%ecx)
    306f:	20 34 35 36 20 31 32 	and    %dh,0x32312036(,%esi,1)
    3076:	33 30                	xor    (%eax),%esi
    3078:	2c                   	.byte 0x2c

00003079 <cur_table>:
    3079:	48                   	dec    %eax
    307a:	41                   	inc    %ecx
    307b:	35 20 44 47 43       	xor    $0x43474420,%eax
    3080:	20 59 42             	and    %bl,0x42(%ecx)
    3083:	36 32 33             	xor    %ss:(%ebx),%dh

00003086 <func>:
    3086:	2c 3b                	sub    $0x3b,%al
    3088:	72 21                	jb     30ab <end_func>
    308a:	3c 09                	cmp    $0x9,%al
    308c:	76 0a                	jbe    3098 <ok_func>
    308e:	2c 12                	sub    $0x12,%al
    3090:	3c 0a                	cmp    $0xa,%al
    3092:	72 17                	jb     30ab <end_func>
    3094:	3c 0b                	cmp    $0xb,%al
    3096:	77 13                	ja     30ab <end_func>

00003098 <ok_func>:
    3098:	83 f9 04             	cmp    $0x4,%ecx
    309b:	7c 0e                	jl     30ab <end_func>
    309d:	8b 04 85 ac 30 00 00 	mov    0x30ac(,%eax,4),%eax
    30a4:	31 db                	xor    %ebx,%ebx
    30a6:	e9 81 fe ff ff       	jmp    2f2c <put_queue>

000030ab <end_func>:
    30ab:	c3                   	ret    

000030ac <func_table>:
    30ac:	1b 5b 5b             	sbb    0x5b(%ebx),%ebx
    30af:	41                   	inc    %ecx
    30b0:	1b 5b 5b             	sbb    0x5b(%ebx),%ebx
    30b3:	42                   	inc    %edx
    30b4:	1b 5b 5b             	sbb    0x5b(%ebx),%ebx
    30b7:	43                   	inc    %ebx
    30b8:	1b 5b 5b             	sbb    0x5b(%ebx),%ebx
    30bb:	44                   	inc    %esp
    30bc:	1b 5b 5b             	sbb    0x5b(%ebx),%ebx
    30bf:	45                   	inc    %ebp
    30c0:	1b 5b 5b             	sbb    0x5b(%ebx),%ebx
    30c3:	46                   	inc    %esi
    30c4:	1b 5b 5b             	sbb    0x5b(%ebx),%ebx
    30c7:	47                   	inc    %edi
    30c8:	1b 5b 5b             	sbb    0x5b(%ebx),%ebx
    30cb:	48                   	dec    %eax
    30cc:	1b 5b 5b             	sbb    0x5b(%ebx),%ebx
    30cf:	49                   	dec    %ecx
    30d0:	1b 5b 5b             	sbb    0x5b(%ebx),%ebx
    30d3:	4a                   	dec    %edx
    30d4:	1b 5b 5b             	sbb    0x5b(%ebx),%ebx
    30d7:	4b                   	dec    %ebx
    30d8:	1b 5b 5b             	sbb    0x5b(%ebx),%ebx
    30db:	4c                   	dec    %esp

000030dc <key_map>:
    30dc:	00 1b                	add    %bl,(%ebx)
    30de:	31 32                	xor    %esi,(%edx)
    30e0:	33 34 35 36 37 38 39 	xor    0x39383736(,%esi,1),%esi
    30e7:	30 2b                	xor    %ch,(%ebx)
    30e9:	27                   	daa    
    30ea:	7f 09                	jg     30f5 <key_map+0x19>
    30ec:	71 77                	jno    3165 <shift_map+0x28>
    30ee:	65 72 74             	gs jb  3165 <shift_map+0x28>
    30f1:	79 75                	jns    3168 <shift_map+0x2b>
    30f3:	69 6f 70 7d 00 0a 00 	imul   $0xa007d,0x70(%edi),%ebp
    30fa:	61                   	popa   
    30fb:	73 64                	jae    3161 <shift_map+0x24>
    30fd:	66 67 68 6a 6b       	addr16 pushw $0x6b6a
    3102:	6c                   	insb   (%dx),%es:(%edi)
    3103:	7c 7b                	jl     3180 <shift_map+0x43>
    3105:	00 00                	add    %al,(%eax)
    3107:	27                   	daa    
    3108:	7a 78                	jp     3182 <shift_map+0x45>
    310a:	63 76 62             	arpl   %si,0x62(%esi)
    310d:	6e                   	outsb  %ds:(%esi),(%dx)
    310e:	6d                   	insl   (%dx),%es:(%edi)
    310f:	2c 2e                	sub    $0x2e,%al
    3111:	2d 00 2a 00 20       	sub    $0x20002a00,%eax
	...
    3126:	2d 00 00 00 2b       	sub    $0x2b000000,%eax
    312b:	00 00                	add    %al,(%eax)
    312d:	00 00                	add    %al,(%eax)
    312f:	00 00                	add    %al,(%eax)
    3131:	00 3c 00             	add    %bh,(%eax,%eax,1)
	...

0000313d <shift_map>:
    313d:	00 1b                	add    %bl,(%ebx)
    313f:	21 22                	and    %esp,(%edx)
    3141:	23 24 25 26 2f 28 29 	and    0x29282f26(,%eiz,1),%esp
    3148:	3d 3f 60 7f 09       	cmp    $0x97f603f,%eax
    314d:	51                   	push   %ecx
    314e:	57                   	push   %edi
    314f:	45                   	inc    %ebp
    3150:	52                   	push   %edx
    3151:	54                   	push   %esp
    3152:	59                   	pop    %ecx
    3153:	55                   	push   %ebp
    3154:	49                   	dec    %ecx
    3155:	4f                   	dec    %edi
    3156:	50                   	push   %eax
    3157:	5d                   	pop    %ebp
    3158:	5e                   	pop    %esi
    3159:	0a 00                	or     (%eax),%al
    315b:	41                   	inc    %ecx
    315c:	53                   	push   %ebx
    315d:	44                   	inc    %esp
    315e:	46                   	inc    %esi
    315f:	47                   	inc    %edi
    3160:	48                   	dec    %eax
    3161:	4a                   	dec    %edx
    3162:	4b                   	dec    %ebx
    3163:	4c                   	dec    %esp
    3164:	5c                   	pop    %esp
    3165:	5b                   	pop    %ebx
    3166:	00 00                	add    %al,(%eax)
    3168:	2a 5a 58             	sub    0x58(%edx),%bl
    316b:	43                   	inc    %ebx
    316c:	56                   	push   %esi
    316d:	42                   	inc    %edx
    316e:	4e                   	dec    %esi
    316f:	4d                   	dec    %ebp
    3170:	3b 3a                	cmp    (%edx),%edi
    3172:	5f                   	pop    %edi
    3173:	00 2a                	add    %ch,(%edx)
    3175:	00 20                	add    %ah,(%eax)
	...
    3187:	2d 00 00 00 2b       	sub    $0x2b000000,%eax
    318c:	00 00                	add    %al,(%eax)
    318e:	00 00                	add    %al,(%eax)
    3190:	00 00                	add    %al,(%eax)
    3192:	00 3e                	add    %bh,(%esi)
	...

0000319e <alt_map>:
    319e:	00 00                	add    %al,(%eax)
    31a0:	00 40 00             	add    %al,0x0(%eax)
    31a3:	24 00                	and    $0x0,%al
    31a5:	00 7b 5b             	add    %bh,0x5b(%ebx)
    31a8:	5d                   	pop    %ebp
    31a9:	7d 5c                	jge    3207 <do_self+0x8>
	...
    31b7:	00 00                	add    %al,(%eax)
    31b9:	7e 0a                	jle    31c5 <alt_map+0x27>
	...
    31f3:	00 7c 00 00          	add    %bh,0x0(%eax,%eax,1)
	...

000031ff <do_self>:
    31ff:	8d 1d 9e 31 00 00    	lea    0x319e,%ebx
    3205:	f6 05 c3 2e 00 00 20 	testb  $0x20,0x2ec3
    320c:	75 15                	jne    3223 <do_self+0x24>
    320e:	8d 1d 3d 31 00 00    	lea    0x313d,%ebx
    3214:	f6 05 c3 2e 00 00 03 	testb  $0x3,0x2ec3
    321b:	75 06                	jne    3223 <do_self+0x24>
    321d:	8d 1d dc 30 00 00    	lea    0x30dc,%ebx
    3223:	8a 04 03             	mov    (%ebx,%eax,1),%al
    3226:	08 c0                	or     %al,%al
    3228:	74 3d                	je     3267 <none>
    322a:	f6 05 c3 2e 00 00 4c 	testb  $0x4c,0x2ec3
    3231:	74 0a                	je     323d <do_self+0x3e>
    3233:	3c 61                	cmp    $0x61,%al
    3235:	72 06                	jb     323d <do_self+0x3e>
    3237:	3c 7a                	cmp    $0x7a,%al
    3239:	77 02                	ja     323d <do_self+0x3e>
    323b:	2c 20                	sub    $0x20,%al
    323d:	f6 05 c3 2e 00 00 0c 	testb  $0xc,0x2ec3
    3244:	74 0a                	je     3250 <do_self+0x51>
    3246:	3c 40                	cmp    $0x40,%al
    3248:	72 06                	jb     3250 <do_self+0x51>
    324a:	3c 60                	cmp    $0x60,%al
    324c:	73 02                	jae    3250 <do_self+0x51>
    324e:	2c 40                	sub    $0x40,%al
    3250:	f6 05 c3 2e 00 00 10 	testb  $0x10,0x2ec3
    3257:	74 02                	je     325b <do_self+0x5c>
    3259:	0c 80                	or     $0x80,%al
    325b:	25 ff 00 00 00       	and    $0xff,%eax
    3260:	31 db                	xor    %ebx,%ebx
    3262:	e8 c5 fc ff ff       	call   2f2c <put_queue>

00003267 <none>:
    3267:	c3                   	ret    

00003268 <minus>:
    3268:	80 3d c5 2e 00 00 01 	cmpb   $0x1,0x2ec5
    326f:	75 8e                	jne    31ff <do_self>
    3271:	b8 2f 00 00 00       	mov    $0x2f,%eax
    3276:	31 db                	xor    %ebx,%ebx
    3278:	e9 af fc ff ff       	jmp    2f2c <put_queue>

0000327d <key_table>:
    327d:	67 32 00             	xor    (%bx,%si),%al
    3280:	00 ff                	add    %bh,%bh
    3282:	31 00                	xor    %eax,(%eax)
    3284:	00 ff                	add    %bh,%bh
    3286:	31 00                	xor    %eax,(%eax)
    3288:	00 ff                	add    %bh,%bh
    328a:	31 00                	xor    %eax,(%eax)
    328c:	00 ff                	add    %bh,%bh
    328e:	31 00                	xor    %eax,(%eax)
    3290:	00 ff                	add    %bh,%bh
    3292:	31 00                	xor    %eax,(%eax)
    3294:	00 ff                	add    %bh,%bh
    3296:	31 00                	xor    %eax,(%eax)
    3298:	00 ff                	add    %bh,%bh
    329a:	31 00                	xor    %eax,(%eax)
    329c:	00 ff                	add    %bh,%bh
    329e:	31 00                	xor    %eax,(%eax)
    32a0:	00 ff                	add    %bh,%bh
    32a2:	31 00                	xor    %eax,(%eax)
    32a4:	00 ff                	add    %bh,%bh
    32a6:	31 00                	xor    %eax,(%eax)
    32a8:	00 ff                	add    %bh,%bh
    32aa:	31 00                	xor    %eax,(%eax)
    32ac:	00 ff                	add    %bh,%bh
    32ae:	31 00                	xor    %eax,(%eax)
    32b0:	00 ff                	add    %bh,%bh
    32b2:	31 00                	xor    %eax,(%eax)
    32b4:	00 ff                	add    %bh,%bh
    32b6:	31 00                	xor    %eax,(%eax)
    32b8:	00 ff                	add    %bh,%bh
    32ba:	31 00                	xor    %eax,(%eax)
    32bc:	00 ff                	add    %bh,%bh
    32be:	31 00                	xor    %eax,(%eax)
    32c0:	00 ff                	add    %bh,%bh
    32c2:	31 00                	xor    %eax,(%eax)
    32c4:	00 ff                	add    %bh,%bh
    32c6:	31 00                	xor    %eax,(%eax)
    32c8:	00 ff                	add    %bh,%bh
    32ca:	31 00                	xor    %eax,(%eax)
    32cc:	00 ff                	add    %bh,%bh
    32ce:	31 00                	xor    %eax,(%eax)
    32d0:	00 ff                	add    %bh,%bh
    32d2:	31 00                	xor    %eax,(%eax)
    32d4:	00 ff                	add    %bh,%bh
    32d6:	31 00                	xor    %eax,(%eax)
    32d8:	00 ff                	add    %bh,%bh
    32da:	31 00                	xor    %eax,(%eax)
    32dc:	00 ff                	add    %bh,%bh
    32de:	31 00                	xor    %eax,(%eax)
    32e0:	00 ff                	add    %bh,%bh
    32e2:	31 00                	xor    %eax,(%eax)
    32e4:	00 ff                	add    %bh,%bh
    32e6:	31 00                	xor    %eax,(%eax)
    32e8:	00 ff                	add    %bh,%bh
    32ea:	31 00                	xor    %eax,(%eax)
    32ec:	00 ff                	add    %bh,%bh
    32ee:	31 00                	xor    %eax,(%eax)
    32f0:	00 65 2f             	add    %ah,0x2f(%ebp)
    32f3:	00 00                	add    %al,(%eax)
    32f5:	ff 31                	pushl  (%ecx)
    32f7:	00 00                	add    %al,(%eax)
    32f9:	ff 31                	pushl  (%ecx)
    32fb:	00 00                	add    %al,(%eax)
    32fd:	ff 31                	pushl  (%ecx)
    32ff:	00 00                	add    %al,(%eax)
    3301:	ff 31                	pushl  (%ecx)
    3303:	00 00                	add    %al,(%eax)
    3305:	ff 31                	pushl  (%ecx)
    3307:	00 00                	add    %al,(%eax)
    3309:	ff 31                	pushl  (%ecx)
    330b:	00 00                	add    %al,(%eax)
    330d:	ff 31                	pushl  (%ecx)
    330f:	00 00                	add    %al,(%eax)
    3311:	ff 31                	pushl  (%ecx)
    3313:	00 00                	add    %al,(%eax)
    3315:	ff 31                	pushl  (%ecx)
    3317:	00 00                	add    %al,(%eax)
    3319:	ff 31                	pushl  (%ecx)
    331b:	00 00                	add    %al,(%eax)
    331d:	ff 31                	pushl  (%ecx)
    331f:	00 00                	add    %al,(%eax)
    3321:	ff 31                	pushl  (%ecx)
    3323:	00 00                	add    %al,(%eax)
    3325:	97                   	xchg   %eax,%edi
    3326:	2f                   	das    
    3327:	00 00                	add    %al,(%eax)
    3329:	ff 31                	pushl  (%ecx)
    332b:	00 00                	add    %al,(%eax)
    332d:	ff 31                	pushl  (%ecx)
    332f:	00 00                	add    %al,(%eax)
    3331:	ff 31                	pushl  (%ecx)
    3333:	00 00                	add    %al,(%eax)
    3335:	ff 31                	pushl  (%ecx)
    3337:	00 00                	add    %al,(%eax)
    3339:	ff 31                	pushl  (%ecx)
    333b:	00 00                	add    %al,(%eax)
    333d:	ff 31                	pushl  (%ecx)
    333f:	00 00                	add    %al,(%eax)
    3341:	ff 31                	pushl  (%ecx)
    3343:	00 00                	add    %al,(%eax)
    3345:	ff 31                	pushl  (%ecx)
    3347:	00 00                	add    %al,(%eax)
    3349:	ff 31                	pushl  (%ecx)
    334b:	00 00                	add    %al,(%eax)
    334d:	ff 31                	pushl  (%ecx)
    334f:	00 00                	add    %al,(%eax)
    3351:	68 32 00 00 a7       	push   $0xa7000032
    3356:	2f                   	das    
    3357:	00 00                	add    %al,(%eax)
    3359:	ff 31                	pushl  (%ecx)
    335b:	00 00                	add    %al,(%eax)
    335d:	69 2f 00 00 ff 31    	imul   $0x31ff0000,(%edi),%ebp
    3363:	00 00                	add    %al,(%eax)
    3365:	b7 2f                	mov    $0x2f,%bh
    3367:	00 00                	add    %al,(%eax)
    3369:	86 30                	xchg   %dh,(%eax)
    336b:	00 00                	add    %al,(%eax)
    336d:	86 30                	xchg   %dh,(%eax)
    336f:	00 00                	add    %al,(%eax)
    3371:	86 30                	xchg   %dh,(%eax)
    3373:	00 00                	add    %al,(%eax)
    3375:	86 30                	xchg   %dh,(%eax)
    3377:	00 00                	add    %al,(%eax)
    3379:	86 30                	xchg   %dh,(%eax)
    337b:	00 00                	add    %al,(%eax)
    337d:	86 30                	xchg   %dh,(%eax)
    337f:	00 00                	add    %al,(%eax)
    3381:	86 30                	xchg   %dh,(%eax)
    3383:	00 00                	add    %al,(%eax)
    3385:	86 30                	xchg   %dh,(%eax)
    3387:	00 00                	add    %al,(%eax)
    3389:	86 30                	xchg   %dh,(%eax)
    338b:	00 00                	add    %al,(%eax)
    338d:	86 30                	xchg   %dh,(%eax)
    338f:	00 00                	add    %al,(%eax)
    3391:	00 30                	add    %dh,(%eax)
    3393:	00 00                	add    %al,(%eax)
    3395:	f7 2f                	imull  (%edi)
    3397:	00 00                	add    %al,(%eax)
    3399:	09 30                	or     %esi,(%eax)
    339b:	00 00                	add    %al,(%eax)
    339d:	09 30                	or     %esi,(%eax)
    339f:	00 00                	add    %al,(%eax)
    33a1:	09 30                	or     %esi,(%eax)
    33a3:	00 00                	add    %al,(%eax)
    33a5:	ff 31                	pushl  (%ecx)
    33a7:	00 00                	add    %al,(%eax)
    33a9:	09 30                	or     %esi,(%eax)
    33ab:	00 00                	add    %al,(%eax)
    33ad:	09 30                	or     %esi,(%eax)
    33af:	00 00                	add    %al,(%eax)
    33b1:	09 30                	or     %esi,(%eax)
    33b3:	00 00                	add    %al,(%eax)
    33b5:	ff 31                	pushl  (%ecx)
    33b7:	00 00                	add    %al,(%eax)
    33b9:	09 30                	or     %esi,(%eax)
    33bb:	00 00                	add    %al,(%eax)
    33bd:	09 30                	or     %esi,(%eax)
    33bf:	00 00                	add    %al,(%eax)
    33c1:	09 30                	or     %esi,(%eax)
    33c3:	00 00                	add    %al,(%eax)
    33c5:	09 30                	or     %esi,(%eax)
    33c7:	00 00                	add    %al,(%eax)
    33c9:	09 30                	or     %esi,(%eax)
    33cb:	00 00                	add    %al,(%eax)
    33cd:	67 32 00             	xor    (%bx,%si),%al
    33d0:	00 67 32             	add    %ah,0x32(%edi)
    33d3:	00 00                	add    %al,(%eax)
    33d5:	ff 31                	pushl  (%ecx)
    33d7:	00 00                	add    %al,(%eax)
    33d9:	86 30                	xchg   %dh,(%eax)
    33db:	00 00                	add    %al,(%eax)
    33dd:	86 30                	xchg   %dh,(%eax)
    33df:	00 00                	add    %al,(%eax)
    33e1:	67 32 00             	xor    (%bx,%si),%al
    33e4:	00 67 32             	add    %ah,0x32(%edi)
    33e7:	00 00                	add    %al,(%eax)
    33e9:	67 32 00             	xor    (%bx,%si),%al
    33ec:	00 67 32             	add    %ah,0x32(%edi)
    33ef:	00 00                	add    %al,(%eax)
    33f1:	67 32 00             	xor    (%bx,%si),%al
    33f4:	00 67 32             	add    %ah,0x32(%edi)
    33f7:	00 00                	add    %al,(%eax)
    33f9:	67 32 00             	xor    (%bx,%si),%al
    33fc:	00 67 32             	add    %ah,0x32(%edi)
    33ff:	00 00                	add    %al,(%eax)
    3401:	67 32 00             	xor    (%bx,%si),%al
    3404:	00 67 32             	add    %ah,0x32(%edi)
    3407:	00 00                	add    %al,(%eax)
    3409:	67 32 00             	xor    (%bx,%si),%al
    340c:	00 67 32             	add    %ah,0x32(%edi)
    340f:	00 00                	add    %al,(%eax)
    3411:	67 32 00             	xor    (%bx,%si),%al
    3414:	00 67 32             	add    %ah,0x32(%edi)
    3417:	00 00                	add    %al,(%eax)
    3419:	67 32 00             	xor    (%bx,%si),%al
    341c:	00 67 32             	add    %ah,0x32(%edi)
    341f:	00 00                	add    %al,(%eax)
    3421:	67 32 00             	xor    (%bx,%si),%al
    3424:	00 67 32             	add    %ah,0x32(%edi)
    3427:	00 00                	add    %al,(%eax)
    3429:	67 32 00             	xor    (%bx,%si),%al
    342c:	00 67 32             	add    %ah,0x32(%edi)
    342f:	00 00                	add    %al,(%eax)
    3431:	67 32 00             	xor    (%bx,%si),%al
    3434:	00 67 32             	add    %ah,0x32(%edi)
    3437:	00 00                	add    %al,(%eax)
    3439:	67 32 00             	xor    (%bx,%si),%al
    343c:	00 67 32             	add    %ah,0x32(%edi)
    343f:	00 00                	add    %al,(%eax)
    3441:	67 32 00             	xor    (%bx,%si),%al
    3444:	00 67 32             	add    %ah,0x32(%edi)
    3447:	00 00                	add    %al,(%eax)
    3449:	67 32 00             	xor    (%bx,%si),%al
    344c:	00 67 32             	add    %ah,0x32(%edi)
    344f:	00 00                	add    %al,(%eax)
    3451:	67 32 00             	xor    (%bx,%si),%al
    3454:	00 67 32             	add    %ah,0x32(%edi)
    3457:	00 00                	add    %al,(%eax)
    3459:	67 32 00             	xor    (%bx,%si),%al
    345c:	00 67 32             	add    %ah,0x32(%edi)
    345f:	00 00                	add    %al,(%eax)
    3461:	67 32 00             	xor    (%bx,%si),%al
    3464:	00 67 32             	add    %ah,0x32(%edi)
    3467:	00 00                	add    %al,(%eax)
    3469:	67 32 00             	xor    (%bx,%si),%al
    346c:	00 67 32             	add    %ah,0x32(%edi)
    346f:	00 00                	add    %al,(%eax)
    3471:	67 32 00             	xor    (%bx,%si),%al
    3474:	00 67 32             	add    %ah,0x32(%edi)
    3477:	00 00                	add    %al,(%eax)
    3479:	67 32 00             	xor    (%bx,%si),%al
    347c:	00 67 32             	add    %ah,0x32(%edi)
    347f:	00 00                	add    %al,(%eax)
    3481:	67 32 00             	xor    (%bx,%si),%al
    3484:	00 67 32             	add    %ah,0x32(%edi)
    3487:	00 00                	add    %al,(%eax)
    3489:	67 32 00             	xor    (%bx,%si),%al
    348c:	00 67 32             	add    %ah,0x32(%edi)
    348f:	00 00                	add    %al,(%eax)
    3491:	67 32 00             	xor    (%bx,%si),%al
    3494:	00 67 32             	add    %ah,0x32(%edi)
    3497:	00 00                	add    %al,(%eax)
    3499:	67 32 00             	xor    (%bx,%si),%al
    349c:	00 67 32             	add    %ah,0x32(%edi)
    349f:	00 00                	add    %al,(%eax)
    34a1:	67 32 00             	xor    (%bx,%si),%al
    34a4:	00 67 32             	add    %ah,0x32(%edi)
    34a7:	00 00                	add    %al,(%eax)
    34a9:	67 32 00             	xor    (%bx,%si),%al
    34ac:	00 67 32             	add    %ah,0x32(%edi)
    34af:	00 00                	add    %al,(%eax)
    34b1:	67 32 00             	xor    (%bx,%si),%al
    34b4:	00 67 32             	add    %ah,0x32(%edi)
    34b7:	00 00                	add    %al,(%eax)
    34b9:	67 32 00             	xor    (%bx,%si),%al
    34bc:	00 67 32             	add    %ah,0x32(%edi)
    34bf:	00 00                	add    %al,(%eax)
    34c1:	67 32 00             	xor    (%bx,%si),%al
    34c4:	00 67 32             	add    %ah,0x32(%edi)
    34c7:	00 00                	add    %al,(%eax)
    34c9:	67 32 00             	xor    (%bx,%si),%al
    34cc:	00 67 32             	add    %ah,0x32(%edi)
    34cf:	00 00                	add    %al,(%eax)
    34d1:	67 32 00             	xor    (%bx,%si),%al
    34d4:	00 67 32             	add    %ah,0x32(%edi)
    34d7:	00 00                	add    %al,(%eax)
    34d9:	67 32 00             	xor    (%bx,%si),%al
    34dc:	00 67 32             	add    %ah,0x32(%edi)
    34df:	00 00                	add    %al,(%eax)
    34e1:	67 32 00             	xor    (%bx,%si),%al
    34e4:	00 67 32             	add    %ah,0x32(%edi)
    34e7:	00 00                	add    %al,(%eax)
    34e9:	67 32 00             	xor    (%bx,%si),%al
    34ec:	00 67 32             	add    %ah,0x32(%edi)
    34ef:	00 00                	add    %al,(%eax)
    34f1:	7d 2f                	jge    3522 <key_table+0x2a5>
    34f3:	00 00                	add    %al,(%eax)
    34f5:	67 32 00             	xor    (%bx,%si),%al
    34f8:	00 67 32             	add    %ah,0x32(%edi)
    34fb:	00 00                	add    %al,(%eax)
    34fd:	67 32 00             	xor    (%bx,%si),%al
    3500:	00 67 32             	add    %ah,0x32(%edi)
    3503:	00 00                	add    %al,(%eax)
    3505:	67 32 00             	xor    (%bx,%si),%al
    3508:	00 67 32             	add    %ah,0x32(%edi)
    350b:	00 00                	add    %al,(%eax)
    350d:	67 32 00             	xor    (%bx,%si),%al
    3510:	00 67 32             	add    %ah,0x32(%edi)
    3513:	00 00                	add    %al,(%eax)
    3515:	67 32 00             	xor    (%bx,%si),%al
    3518:	00 67 32             	add    %ah,0x32(%edi)
    351b:	00 00                	add    %al,(%eax)
    351d:	67 32 00             	xor    (%bx,%si),%al
    3520:	00 67 32             	add    %ah,0x32(%edi)
    3523:	00 00                	add    %al,(%eax)
    3525:	9f                   	lahf   
    3526:	2f                   	das    
    3527:	00 00                	add    %al,(%eax)
    3529:	67 32 00             	xor    (%bx,%si),%al
    352c:	00 67 32             	add    %ah,0x32(%edi)
    352f:	00 00                	add    %al,(%eax)
    3531:	67 32 00             	xor    (%bx,%si),%al
    3534:	00 67 32             	add    %ah,0x32(%edi)
    3537:	00 00                	add    %al,(%eax)
    3539:	67 32 00             	xor    (%bx,%si),%al
    353c:	00 67 32             	add    %ah,0x32(%edi)
    353f:	00 00                	add    %al,(%eax)
    3541:	67 32 00             	xor    (%bx,%si),%al
    3544:	00 67 32             	add    %ah,0x32(%edi)
    3547:	00 00                	add    %al,(%eax)
    3549:	67 32 00             	xor    (%bx,%si),%al
    354c:	00 67 32             	add    %ah,0x32(%edi)
    354f:	00 00                	add    %al,(%eax)
    3551:	67 32 00             	xor    (%bx,%si),%al
    3554:	00 af 2f 00 00 67    	add    %ch,0x6700002f(%edi)
    355a:	32 00                	xor    (%eax),%al
    355c:	00 81 2f 00 00 67    	add    %al,0x6700002f(%ecx)
    3562:	32 00                	xor    (%eax),%al
    3564:	00 ef                	add    %ch,%bh
    3566:	2f                   	das    
    3567:	00 00                	add    %al,(%eax)
    3569:	67 32 00             	xor    (%bx,%si),%al
    356c:	00 67 32             	add    %ah,0x32(%edi)
    356f:	00 00                	add    %al,(%eax)
    3571:	67 32 00             	xor    (%bx,%si),%al
    3574:	00 67 32             	add    %ah,0x32(%edi)
    3577:	00 00                	add    %al,(%eax)
    3579:	67 32 00             	xor    (%bx,%si),%al
    357c:	00 67 32             	add    %ah,0x32(%edi)
    357f:	00 00                	add    %al,(%eax)
    3581:	67 32 00             	xor    (%bx,%si),%al
    3584:	00 67 32             	add    %ah,0x32(%edi)
    3587:	00 00                	add    %al,(%eax)
    3589:	67 32 00             	xor    (%bx,%si),%al
    358c:	00 67 32             	add    %ah,0x32(%edi)
    358f:	00 00                	add    %al,(%eax)
    3591:	67 32 00             	xor    (%bx,%si),%al
    3594:	00 67 32             	add    %ah,0x32(%edi)
    3597:	00 00                	add    %al,(%eax)
    3599:	67 32 00             	xor    (%bx,%si),%al
    359c:	00 67 32             	add    %ah,0x32(%edi)
    359f:	00 00                	add    %al,(%eax)
    35a1:	67 32 00             	xor    (%bx,%si),%al
    35a4:	00 67 32             	add    %ah,0x32(%edi)
    35a7:	00 00                	add    %al,(%eax)
    35a9:	67 32 00             	xor    (%bx,%si),%al
    35ac:	00 67 32             	add    %ah,0x32(%edi)
    35af:	00 00                	add    %al,(%eax)
    35b1:	67 32 00             	xor    (%bx,%si),%al
    35b4:	00 67 32             	add    %ah,0x32(%edi)
    35b7:	00 00                	add    %al,(%eax)
    35b9:	67 32 00             	xor    (%bx,%si),%al
    35bc:	00 67 32             	add    %ah,0x32(%edi)
    35bf:	00 00                	add    %al,(%eax)
    35c1:	67 32 00             	xor    (%bx,%si),%al
    35c4:	00 67 32             	add    %ah,0x32(%edi)
    35c7:	00 00                	add    %al,(%eax)
    35c9:	67 32 00             	xor    (%bx,%si),%al
    35cc:	00 67 32             	add    %ah,0x32(%edi)
    35cf:	00 00                	add    %al,(%eax)
    35d1:	67 32 00             	xor    (%bx,%si),%al
    35d4:	00 67 32             	add    %ah,0x32(%edi)
    35d7:	00 00                	add    %al,(%eax)
    35d9:	67 32 00             	xor    (%bx,%si),%al
    35dc:	00 67 32             	add    %ah,0x32(%edi)
    35df:	00 00                	add    %al,(%eax)
    35e1:	67 32 00             	xor    (%bx,%si),%al
    35e4:	00 67 32             	add    %ah,0x32(%edi)
    35e7:	00 00                	add    %al,(%eax)
    35e9:	67 32 00             	xor    (%bx,%si),%al
    35ec:	00 67 32             	add    %ah,0x32(%edi)
    35ef:	00 00                	add    %al,(%eax)
    35f1:	67 32 00             	xor    (%bx,%si),%al
    35f4:	00 67 32             	add    %ah,0x32(%edi)
    35f7:	00 00                	add    %al,(%eax)
    35f9:	67 32 00             	xor    (%bx,%si),%al
    35fc:	00 67 32             	add    %ah,0x32(%edi)
    35ff:	00 00                	add    %al,(%eax)
    3601:	67 32 00             	xor    (%bx,%si),%al
    3604:	00 67 32             	add    %ah,0x32(%edi)
    3607:	00 00                	add    %al,(%eax)
    3609:	67 32 00             	xor    (%bx,%si),%al
    360c:	00 67 32             	add    %ah,0x32(%edi)
    360f:	00 00                	add    %al,(%eax)
    3611:	67 32 00             	xor    (%bx,%si),%al
    3614:	00 67 32             	add    %ah,0x32(%edi)
    3617:	00 00                	add    %al,(%eax)
    3619:	67 32 00             	xor    (%bx,%si),%al
    361c:	00 67 32             	add    %ah,0x32(%edi)
    361f:	00 00                	add    %al,(%eax)
    3621:	67 32 00             	xor    (%bx,%si),%al
    3624:	00 67 32             	add    %ah,0x32(%edi)
    3627:	00 00                	add    %al,(%eax)
    3629:	67 32 00             	xor    (%bx,%si),%al
    362c:	00 67 32             	add    %ah,0x32(%edi)
    362f:	00 00                	add    %al,(%eax)
    3631:	67 32 00             	xor    (%bx,%si),%al
    3634:	00 67 32             	add    %ah,0x32(%edi)
    3637:	00 00                	add    %al,(%eax)
    3639:	67 32 00             	xor    (%bx,%si),%al
    363c:	00 67 32             	add    %ah,0x32(%edi)
    363f:	00 00                	add    %al,(%eax)
    3641:	67 32 00             	xor    (%bx,%si),%al
    3644:	00 67 32             	add    %ah,0x32(%edi)
    3647:	00 00                	add    %al,(%eax)
    3649:	67 32 00             	xor    (%bx,%si),%al
    364c:	00 67 32             	add    %ah,0x32(%edi)
    364f:	00 00                	add    %al,(%eax)
    3651:	67 32 00             	xor    (%bx,%si),%al
    3654:	00 67 32             	add    %ah,0x32(%edi)
    3657:	00 00                	add    %al,(%eax)
    3659:	67 32 00             	xor    (%bx,%si),%al
    365c:	00 67 32             	add    %ah,0x32(%edi)
    365f:	00 00                	add    %al,(%eax)
    3661:	67 32 00             	xor    (%bx,%si),%al
    3664:	00 67 32             	add    %ah,0x32(%edi)
    3667:	00 00                	add    %al,(%eax)
    3669:	67 32 00             	xor    (%bx,%si),%al
    366c:	00 67 32             	add    %ah,0x32(%edi)
    366f:	00 00                	add    %al,(%eax)
    3671:	67 32 00             	xor    (%bx,%si),%al
    3674:	00 67 32             	add    %ah,0x32(%edi)
    3677:	00 00                	add    %al,(%eax)
    3679:	67 32 00             	xor    (%bx,%si),%al
	...

0000367d <kb_wait>:
    367d:	50                   	push   %eax
    367e:	e4 64                	in     $0x64,%al
    3680:	a8 02                	test   $0x2,%al
    3682:	75 fa                	jne    367e <kb_wait+0x1>
    3684:	58                   	pop    %eax
    3685:	c3                   	ret    

00003686 <reboot>:
    3686:	e8 f2 ff ff ff       	call   367d <kb_wait>
    368b:	66 c7 05 72 04 00 00 	movw   $0x1234,0x472
    3692:	34 12 
    3694:	b0 fc                	mov    $0xfc,%al
    3696:	e6 64                	out    %al,$0x64

00003698 <die>:
    3698:	eb fe                	jmp    3698 <die>

0000369a <rs1_interrupt>:
    369a:	68 08 00 00 00       	push   $0x8
    369f:	eb 06                	jmp    36a7 <rs_int>
    36a1:	90                   	nop

000036a2 <rs2_interrupt>:
    36a2:	68 10 00 00 00       	push   $0x10

000036a7 <rs_int>:
    36a7:	52                   	push   %edx
    36a8:	51                   	push   %ecx
    36a9:	53                   	push   %ebx
    36aa:	50                   	push   %eax
    36ab:	06                   	push   %es
    36ac:	1e                   	push   %ds
    36ad:	6a 10                	push   $0x10
    36af:	1f                   	pop    %ds
    36b0:	6a 10                	push   $0x10
    36b2:	07                   	pop    %es
    36b3:	8b 54 24 18          	mov    0x18(%esp),%edx
    36b7:	8b 12                	mov    (%edx),%edx
    36b9:	8b 12                	mov    (%edx),%edx
    36bb:	83 c2 02             	add    $0x2,%edx

000036be <rep_int>:
    36be:	31 c0                	xor    %eax,%eax
    36c0:	ec                   	in     (%dx),%al
    36c1:	a8 01                	test   $0x1,%al
    36c3:	75 16                	jne    36db <end>
    36c5:	3c 06                	cmp    $0x6,%al
    36c7:	77 12                	ja     36db <end>
    36c9:	8b 4c 24 18          	mov    0x18(%esp),%ecx
    36cd:	52                   	push   %edx
    36ce:	83 ea 02             	sub    $0x2,%edx
    36d1:	ff 14 45 e9 36 00 00 	call   *0x36e9(,%eax,2)
    36d8:	5a                   	pop    %edx
    36d9:	eb e3                	jmp    36be <rep_int>

000036db <end>:
    36db:	b0 20                	mov    $0x20,%al
    36dd:	e6 20                	out    %al,$0x20
    36df:	1f                   	pop    %ds
    36e0:	07                   	pop    %es
    36e1:	58                   	pop    %eax
    36e2:	5b                   	pop    %ebx
    36e3:	59                   	pop    %ecx
    36e4:	5a                   	pop    %edx
    36e5:	83 c4 04             	add    $0x4,%esp
    36e8:	cf                   	iret   

000036e9 <jmp_table>:
    36e9:	fa                   	cli    
    36ea:	36 00 00             	add    %al,%ss:(%eax)
    36ed:	34 37                	xor    $0x37,%al
    36ef:	00 00                	add    %al,(%eax)
    36f1:	06                   	push   %es
    36f2:	37                   	aaa    
    36f3:	00 00                	add    %al,(%eax)
    36f5:	00 37                	add    %dh,(%edi)
    36f7:	00 00                	add    %al,(%eax)
    36f9:	90                   	nop

000036fa <modem_status>:
    36fa:	83 c2 06             	add    $0x6,%edx
    36fd:	ec                   	in     (%dx),%al
    36fe:	c3                   	ret    
    36ff:	90                   	nop

00003700 <line_status>:
    3700:	83 c2 05             	add    $0x5,%edx
    3703:	ec                   	in     (%dx),%al
    3704:	c3                   	ret    
    3705:	90                   	nop

00003706 <read_char>:
    3706:	ec                   	in     (%dx),%al
    3707:	89 ca                	mov    %ecx,%edx
    3709:	81 ea 00 00 00 00    	sub    $0x0,%edx
    370f:	c1 ea 03             	shr    $0x3,%edx
    3712:	8b 09                	mov    (%ecx),%ecx
    3714:	8b 59 04             	mov    0x4(%ecx),%ebx
    3717:	88 44 19 10          	mov    %al,0x10(%ecx,%ebx,1)
    371b:	43                   	inc    %ebx
    371c:	81 e3 ff 03 00 00    	and    $0x3ff,%ebx
    3722:	3b 59 08             	cmp    0x8(%ecx),%ebx
    3725:	74 0c                	je     3733 <read_char+0x2d>
    3727:	89 59 04             	mov    %ebx,0x4(%ecx)
    372a:	52                   	push   %edx
    372b:	e8 fc ff ff ff       	call   372c <read_char+0x26>
    3730:	83 c4 04             	add    $0x4,%esp
    3733:	c3                   	ret    

00003734 <write_char>:
    3734:	8b 49 04             	mov    0x4(%ecx),%ecx
    3737:	8b 59 04             	mov    0x4(%ecx),%ebx
    373a:	2b 59 08             	sub    0x8(%ecx),%ebx
    373d:	81 e3 ff 03 00 00    	and    $0x3ff,%ebx
    3743:	74 2d                	je     3772 <write_buffer_empty>
    3745:	81 fb 00 01 00 00    	cmp    $0x100,%ebx
    374b:	77 0d                	ja     375a <write_char+0x26>
    374d:	8b 59 0c             	mov    0xc(%ecx),%ebx
    3750:	85 db                	test   %ebx,%ebx
    3752:	74 06                	je     375a <write_char+0x26>
    3754:	c7 03 00 00 00 00    	movl   $0x0,(%ebx)
    375a:	8b 59 08             	mov    0x8(%ecx),%ebx
    375d:	8a 44 19 10          	mov    0x10(%ecx,%ebx,1),%al
    3761:	ee                   	out    %al,(%dx)
    3762:	43                   	inc    %ebx
    3763:	81 e3 ff 03 00 00    	and    $0x3ff,%ebx
    3769:	89 59 08             	mov    %ebx,0x8(%ecx)
    376c:	3b 59 04             	cmp    0x4(%ecx),%ebx
    376f:	74 01                	je     3772 <write_buffer_empty>
    3771:	c3                   	ret    

00003772 <write_buffer_empty>:
    3772:	8b 59 0c             	mov    0xc(%ecx),%ebx
    3775:	85 db                	test   %ebx,%ebx
    3777:	74 06                	je     377f <write_buffer_empty+0xd>
    3779:	c7 03 00 00 00 00    	movl   $0x0,(%ebx)
    377f:	42                   	inc    %edx
    3780:	ec                   	in     (%dx),%al
    3781:	eb 00                	jmp    3783 <write_buffer_empty+0x11>
    3783:	eb 00                	jmp    3785 <write_buffer_empty+0x13>
    3785:	24 0d                	and    $0xd,%al
    3787:	ee                   	out    %al,(%dx)
    3788:	c3                   	ret    

00003789 <win_result>:
    3789:	ba f7 01 00 00       	mov    $0x1f7,%edx
    378e:	ec                   	in     (%dx),%al
    378f:	88 c2                	mov    %al,%dl
    3791:	83 e2 f1             	and    $0xfffffff1,%edx
    3794:	80 fa 50             	cmp    $0x50,%dl
    3797:	74 10                	je     37a9 <win_result+0x20>
    3799:	a8 01                	test   $0x1,%al
    379b:	74 12                	je     37af <win_result+0x26>
    379d:	ba f1 01 00 00       	mov    $0x1f1,%edx
    37a2:	ec                   	in     (%dx),%al
    37a3:	b8 01 00 00 00       	mov    $0x1,%eax
    37a8:	c3                   	ret    
    37a9:	b8 00 00 00 00       	mov    $0x0,%eax
    37ae:	c3                   	ret    
    37af:	b8 01 00 00 00       	mov    $0x1,%eax
    37b4:	c3                   	ret    

000037b5 <drive_busy>:
    37b5:	ba f7 01 00 00       	mov    $0x1f7,%edx
    37ba:	ec                   	in     (%dx),%al
    37bb:	83 e0 c0             	and    $0xffffffc0,%eax
    37be:	3c 40                	cmp    $0x40,%al
    37c0:	74 10                	je     37d2 <drive_busy+0x1d>
    37c2:	b9 9f 86 01 00       	mov    $0x1869f,%ecx
    37c7:	ec                   	in     (%dx),%al
    37c8:	83 e0 c0             	and    $0xffffffc0,%eax
    37cb:	3c 40                	cmp    $0x40,%al
    37cd:	74 03                	je     37d2 <drive_busy+0x1d>
    37cf:	49                   	dec    %ecx
    37d0:	75 f5                	jne    37c7 <drive_busy+0x12>
    37d2:	ba f7 01 00 00       	mov    $0x1f7,%edx
    37d7:	ec                   	in     (%dx),%al
    37d8:	b8 00 00 00 00       	mov    $0x0,%eax
    37dd:	c3                   	ret    

000037de <hd_out>:
    37de:	55                   	push   %ebp
    37df:	57                   	push   %edi
    37e0:	56                   	push   %esi
    37e1:	53                   	push   %ebx
    37e2:	83 ec 0c             	sub    $0xc,%esp
    37e5:	e8 fc ff ff ff       	call   37e6 <hd_out+0x8>
    37ea:	81 c3 02 00 00 00    	add    $0x2,%ebx
    37f0:	89 c6                	mov    %eax,%esi
    37f2:	89 d5                	mov    %edx,%ebp
    37f4:	89 cf                	mov    %ecx,%edi
    37f6:	83 f8 01             	cmp    $0x1,%eax
    37f9:	77 07                	ja     3802 <hd_out+0x24>
    37fb:	83 7c 24 20 0f       	cmpl   $0xf,0x20(%esp)
    3800:	76 12                	jbe    3814 <hd_out+0x36>
    3802:	83 ec 0c             	sub    $0xc,%esp
    3805:	8d 83 00 00 00 00    	lea    0x0(%ebx),%eax
    380b:	50                   	push   %eax
    380c:	e8 fc ff ff ff       	call   380d <hd_out+0x2f>
    3811:	83 c4 10             	add    $0x10,%esp
    3814:	b9 e7 03 00 00       	mov    $0x3e7,%ecx
    3819:	ba f7 01 00 00       	mov    $0x1f7,%edx
    381e:	ec                   	in     (%dx),%al
    381f:	83 e0 c0             	and    $0xffffffc0,%eax
    3822:	3c 40                	cmp    $0x40,%al
    3824:	74 15                	je     383b <hd_out+0x5d>
    3826:	49                   	dec    %ecx
    3827:	75 f5                	jne    381e <hd_out+0x40>
    3829:	83 ec 0c             	sub    $0xc,%esp
    382c:	8d 83 00 00 00 00    	lea    0x0(%ebx),%eax
    3832:	50                   	push   %eax
    3833:	e8 fc ff ff ff       	call   3834 <hd_out+0x56>
    3838:	83 c4 10             	add    $0x10,%esp
    383b:	8b 44 24 2c          	mov    0x2c(%esp),%eax
    383f:	89 83 00 00 00 00    	mov    %eax,0x0(%ebx)
    3845:	b8 00 00 00 00       	mov    $0x0,%eax
    384a:	ba f6 03 00 00       	mov    $0x3f6,%edx
    384f:	ee                   	out    %al,(%dx)
    3850:	ba f1 01 00 00       	mov    $0x1f1,%edx
    3855:	b8 4b 00 00 00       	mov    $0x4b,%eax
    385a:	ee                   	out    %al,(%dx)
    385b:	eb 00                	jmp    385d <hd_out+0x7f>
    385d:	eb 00                	jmp    385f <hd_out+0x81>
    385f:	ba f2 01 00 00       	mov    $0x1f2,%edx
    3864:	89 e8                	mov    %ebp,%eax
    3866:	ee                   	out    %al,(%dx)
    3867:	eb 00                	jmp    3869 <hd_out+0x8b>
    3869:	eb 00                	jmp    386b <hd_out+0x8d>
    386b:	ba f3 01 00 00       	mov    $0x1f3,%edx
    3870:	89 f8                	mov    %edi,%eax
    3872:	ee                   	out    %al,(%dx)
    3873:	eb 00                	jmp    3875 <hd_out+0x97>
    3875:	eb 00                	jmp    3877 <hd_out+0x99>
    3877:	ba f4 01 00 00       	mov    $0x1f4,%edx
    387c:	8b 44 24 24          	mov    0x24(%esp),%eax
    3880:	ee                   	out    %al,(%dx)
    3881:	eb 00                	jmp    3883 <hd_out+0xa5>
    3883:	eb 00                	jmp    3885 <hd_out+0xa7>
    3885:	c1 e8 08             	shr    $0x8,%eax
    3888:	ba f5 01 00 00       	mov    $0x1f5,%edx
    388d:	ee                   	out    %al,(%dx)
    388e:	eb 00                	jmp    3890 <hd_out+0xb2>
    3890:	eb 00                	jmp    3892 <hd_out+0xb4>
    3892:	8b 44 24 20          	mov    0x20(%esp),%eax
    3896:	0c a0                	or     $0xa0,%al
    3898:	c1 e6 04             	shl    $0x4,%esi
    389b:	09 f0                	or     %esi,%eax
    389d:	ba f6 01 00 00       	mov    $0x1f6,%edx
    38a2:	ee                   	out    %al,(%dx)
    38a3:	eb 00                	jmp    38a5 <hd_out+0xc7>
    38a5:	eb 00                	jmp    38a7 <hd_out+0xc9>
    38a7:	ba f7 01 00 00       	mov    $0x1f7,%edx
    38ac:	8b 44 24 28          	mov    0x28(%esp),%eax
    38b0:	ee                   	out    %al,(%dx)
    38b1:	83 c4 0c             	add    $0xc,%esp
    38b4:	5b                   	pop    %ebx
    38b5:	5e                   	pop    %esi
    38b6:	5f                   	pop    %edi
    38b7:	5d                   	pop    %ebp
    38b8:	c3                   	ret    

000038b9 <reset_hd>:
    38b9:	57                   	push   %edi
    38ba:	56                   	push   %esi
    38bb:	53                   	push   %ebx
    38bc:	e8 fc ff ff ff       	call   38bd <reset_hd+0x4>
    38c1:	81 c3 02 00 00 00    	add    $0x2,%ebx
    38c7:	89 c7                	mov    %eax,%edi
    38c9:	b8 04 00 00 00       	mov    $0x4,%eax
    38ce:	ba f6 03 00 00       	mov    $0x3f6,%edx
    38d3:	ee                   	out    %al,(%dx)
    38d4:	b8 e8 03 00 00       	mov    $0x3e8,%eax
    38d9:	90                   	nop
    38da:	48                   	dec    %eax
    38db:	75 fc                	jne    38d9 <reset_hd+0x20>
    38dd:	b8 00 00 00 00       	mov    $0x0,%eax
    38e2:	ba f6 03 00 00       	mov    $0x3f6,%edx
    38e7:	ee                   	out    %al,(%dx)
    38e8:	be 10 27 00 00       	mov    $0x2710,%esi
    38ed:	e8 c3 fe ff ff       	call   37b5 <drive_busy>
    38f2:	85 c0                	test   %eax,%eax
    38f4:	74 03                	je     38f9 <reset_hd+0x40>
    38f6:	4e                   	dec    %esi
    38f7:	75 f4                	jne    38ed <reset_hd+0x34>
    38f9:	e8 b7 fe ff ff       	call   37b5 <drive_busy>
    38fe:	85 c0                	test   %eax,%eax
    3900:	75 4c                	jne    394e <reset_hd+0x95>
    3902:	ba 01 00 00 00       	mov    $0x1,%edx
    3907:	ec                   	in     (%dx),%al
    3908:	0f b6 c0             	movzbl %al,%eax
    390b:	83 f8 01             	cmp    $0x1,%eax
    390e:	74 13                	je     3923 <reset_hd+0x6a>
    3910:	83 ec 08             	sub    $0x8,%esp
    3913:	50                   	push   %eax
    3914:	8d 83 00 00 00 00    	lea    0x0(%ebx),%eax
    391a:	50                   	push   %eax
    391b:	e8 fc ff ff ff       	call   391c <reset_hd+0x63>
    3920:	83 c4 10             	add    $0x10,%esp
    3923:	8d 83 62 39 00 00    	lea    0x3962(%ebx),%eax
    3929:	50                   	push   %eax
    392a:	68 91 00 00 00       	push   $0x91
    392f:	68 d1 03 00 00       	push   $0x3d1
    3934:	6a 04                	push   $0x4
    3936:	b9 11 00 00 00       	mov    $0x11,%ecx
    393b:	ba 11 00 00 00       	mov    $0x11,%edx
    3940:	89 f8                	mov    %edi,%eax
    3942:	e8 97 fe ff ff       	call   37de <hd_out>
    3947:	83 c4 10             	add    $0x10,%esp
    394a:	5b                   	pop    %ebx
    394b:	5e                   	pop    %esi
    394c:	5f                   	pop    %edi
    394d:	c3                   	ret    
    394e:	83 ec 0c             	sub    $0xc,%esp
    3951:	8d 83 00 00 00 00    	lea    0x0(%ebx),%eax
    3957:	50                   	push   %eax
    3958:	e8 fc ff ff ff       	call   3959 <reset_hd+0xa0>
    395d:	83 c4 10             	add    $0x10,%esp
    3960:	eb a0                	jmp    3902 <reset_hd+0x49>

00003962 <do_request>:
    3962:	56                   	push   %esi
    3963:	53                   	push   %ebx
    3964:	83 ec 04             	sub    $0x4,%esp
    3967:	e8 fc ff ff ff       	call   3968 <do_request+0x6>
    396c:	81 c3 02 00 00 00    	add    $0x2,%ebx
    3972:	83 bb c8 04 00 00 00 	cmpl   $0x0,0x4c8(%ebx)
    3979:	75 2d                	jne    39a8 <do_request+0x46>
    397b:	8b 83 cc 04 00 00    	mov    0x4cc(%ebx),%eax
    3981:	85 c0                	test   %eax,%eax
    3983:	74 29                	je     39ae <do_request+0x4c>
    3985:	8b 50 14             	mov    0x14(%eax),%edx
    3988:	83 fa 30             	cmp    $0x30,%edx
    398b:	74 2d                	je     39ba <do_request+0x58>
    398d:	83 fa 20             	cmp    $0x20,%edx
    3990:	0f 84 98 00 00 00    	je     3a2e <do_request+0xcc>
    3996:	83 ec 0c             	sub    $0xc,%esp
    3999:	8d 83 00 00 00 00    	lea    0x0(%ebx),%eax
    399f:	50                   	push   %eax
    39a0:	e8 fc ff ff ff       	call   39a1 <do_request+0x3f>
    39a5:	83 c4 10             	add    $0x10,%esp
    39a8:	83 c4 04             	add    $0x4,%esp
    39ab:	5b                   	pop    %ebx
    39ac:	5e                   	pop    %esi
    39ad:	c3                   	ret    
    39ae:	c7 83 00 00 00 00 00 	movl   $0x0,0x0(%ebx)
    39b5:	00 00 00 
    39b8:	eb ee                	jmp    39a8 <do_request+0x46>
    39ba:	8b 48 08             	mov    0x8(%eax),%ecx
    39bd:	8b 50 04             	mov    0x4(%eax),%edx
    39c0:	8d b3 d0 3d 00 00    	lea    0x3dd0(%ebx),%esi
    39c6:	56                   	push   %esi
    39c7:	6a 30                	push   $0x30
    39c9:	ff 70 10             	pushl  0x10(%eax)
    39cc:	ff 70 0c             	pushl  0xc(%eax)
    39cf:	8b 00                	mov    (%eax),%eax
    39d1:	e8 08 fe ff ff       	call   37de <hd_out>
    39d6:	ba f7 01 00 00       	mov    $0x1f7,%edx
    39db:	ec                   	in     (%dx),%al
    39dc:	eb 00                	jmp    39de <do_request+0x7c>
    39de:	eb 00                	jmp    39e0 <do_request+0x7e>
    39e0:	83 c4 10             	add    $0x10,%esp
    39e3:	b9 b7 0b 00 00       	mov    $0xbb7,%ecx
    39e8:	a8 08                	test   $0x8,%al
    39ea:	75 1b                	jne    3a07 <do_request+0xa5>
    39ec:	ec                   	in     (%dx),%al
    39ed:	eb 00                	jmp    39ef <do_request+0x8d>
    39ef:	eb 00                	jmp    39f1 <do_request+0x8f>
    39f1:	a8 08                	test   $0x8,%al
    39f3:	75 12                	jne    3a07 <do_request+0xa5>
    39f5:	49                   	dec    %ecx
    39f6:	75 f4                	jne    39ec <do_request+0x8a>
    39f8:	8b 83 cc 04 00 00    	mov    0x4cc(%ebx),%eax
    39fe:	8b 00                	mov    (%eax),%eax
    3a00:	e8 b4 fe ff ff       	call   38b9 <reset_hd>
    3a05:	eb a1                	jmp    39a8 <do_request+0x46>
    3a07:	8b 83 cc 04 00 00    	mov    0x4cc(%ebx),%eax
    3a0d:	8b 50 1c             	mov    0x1c(%eax),%edx
    3a10:	8b 70 04             	mov    0x4(%eax),%esi
    3a13:	83 e6 01             	and    $0x1,%esi
    3a16:	c1 e6 09             	shl    $0x9,%esi
    3a19:	03 32                	add    (%edx),%esi
    3a1b:	ba f0 01 00 00       	mov    $0x1f0,%edx
    3a20:	b9 00 01 00 00       	mov    $0x100,%ecx
    3a25:	fc                   	cld    
    3a26:	f3 66 6f             	rep outsw %ds:(%esi),(%dx)
    3a29:	e9 7a ff ff ff       	jmp    39a8 <do_request+0x46>
    3a2e:	8b 48 08             	mov    0x8(%eax),%ecx
    3a31:	8b 50 04             	mov    0x4(%eax),%edx
    3a34:	8d 9b 09 3d 00 00    	lea    0x3d09(%ebx),%ebx
    3a3a:	53                   	push   %ebx
    3a3b:	6a 20                	push   $0x20
    3a3d:	ff 70 10             	pushl  0x10(%eax)
    3a40:	ff 70 0c             	pushl  0xc(%eax)
    3a43:	8b 00                	mov    (%eax),%eax
    3a45:	e8 94 fd ff ff       	call   37de <hd_out>
    3a4a:	83 c4 10             	add    $0x10,%esp
    3a4d:	e9 56 ff ff ff       	jmp    39a8 <do_request+0x46>

00003a52 <rw_abs_hd>:
    3a52:	55                   	push   %ebp
    3a53:	57                   	push   %edi
    3a54:	56                   	push   %esi
    3a55:	53                   	push   %ebx
    3a56:	83 ec 1c             	sub    $0x1c,%esp
    3a59:	e8 fc ff ff ff       	call   3a5a <rw_abs_hd+0x8>
    3a5e:	81 c3 02 00 00 00    	add    $0x2,%ebx
    3a64:	89 44 24 04          	mov    %eax,0x4(%esp)
    3a68:	89 d7                	mov    %edx,%edi
    3a6a:	89 cd                	mov    %ecx,%ebp
    3a6c:	83 f8 01             	cmp    $0x1,%eax
    3a6f:	77 1a                	ja     3a8b <rw_abs_hd+0x39>
    3a71:	8b 44 24 38          	mov    0x38(%esp),%eax
    3a75:	80 78 0b 00          	cmpb   $0x0,0xb(%eax)
    3a79:	75 24                	jne    3a9f <rw_abs_hd+0x4d>
    3a7b:	8b 44 24 38          	mov    0x38(%esp),%eax
    3a7f:	c6 40 0b 01          	movb   $0x1,0xb(%eax)
    3a83:	8d b3 60 09 00 00    	lea    0x960(%ebx),%esi
    3a89:	eb 42                	jmp    3acd <rw_abs_hd+0x7b>
    3a8b:	83 ec 0c             	sub    $0xc,%esp
    3a8e:	8d 83 00 00 00 00    	lea    0x0(%ebx),%eax
    3a94:	50                   	push   %eax
    3a95:	e8 fc ff ff ff       	call   3a96 <rw_abs_hd+0x44>
    3a9a:	83 c4 10             	add    $0x10,%esp
    3a9d:	eb d2                	jmp    3a71 <rw_abs_hd+0x1f>
    3a9f:	83 ec 0c             	sub    $0xc,%esp
    3aa2:	8d 83 00 00 00 00    	lea    0x0(%ebx),%eax
    3aa8:	50                   	push   %eax
    3aa9:	e8 fc ff ff ff       	call   3aaa <rw_abs_hd+0x58>
    3aae:	83 c4 10             	add    $0x10,%esp
    3ab1:	eb c8                	jmp    3a7b <rw_abs_hd+0x29>
    3ab3:	39 f0                	cmp    %esi,%eax
    3ab5:	0f 85 4c 01 00 00    	jne    3c07 <rw_abs_hd+0x1b5>
    3abb:	83 ec 0c             	sub    $0xc,%esp
    3abe:	8d 83 c4 04 00 00    	lea    0x4c4(%ebx),%eax
    3ac4:	50                   	push   %eax
    3ac5:	e8 fc ff ff ff       	call   3ac6 <rw_abs_hd+0x74>
    3aca:	83 c4 10             	add    $0x10,%esp
    3acd:	83 bb e0 04 00 00 00 	cmpl   $0x0,0x4e0(%ebx)
    3ad4:	0f 88 27 01 00 00    	js     3c01 <rw_abs_hd+0x1af>
    3ada:	8d 83 04 05 00 00    	lea    0x504(%ebx),%eax
    3ae0:	83 38 00             	cmpl   $0x0,(%eax)
    3ae3:	0f 88 1e 01 00 00    	js     3c07 <rw_abs_hd+0x1b5>
    3ae9:	83 c0 24             	add    $0x24,%eax
    3aec:	39 f0                	cmp    %esi,%eax
    3aee:	72 f0                	jb     3ae0 <rw_abs_hd+0x8e>
    3af0:	eb c1                	jmp    3ab3 <rw_abs_hd+0x61>
    3af2:	89 83 cc 04 00 00    	mov    %eax,0x4cc(%ebx)
    3af8:	e9 bf 00 00 00       	jmp    3bbc <rw_abs_hd+0x16a>
    3afd:	8b 69 10             	mov    0x10(%ecx),%ebp
    3b00:	39 2c 24             	cmp    %ebp,(%esp)
    3b03:	7f 1d                	jg     3b22 <rw_abs_hd+0xd0>
    3b05:	39 2c 24             	cmp    %ebp,(%esp)
    3b08:	75 39                	jne    3b43 <rw_abs_hd+0xf1>
    3b0a:	8b 69 0c             	mov    0xc(%ecx),%ebp
    3b0d:	39 6c 24 08          	cmp    %ebp,0x8(%esp)
    3b11:	7f 0f                	jg     3b22 <rw_abs_hd+0xd0>
    3b13:	39 6c 24 08          	cmp    %ebp,0x8(%esp)
    3b17:	75 2a                	jne    3b43 <rw_abs_hd+0xf1>
    3b19:	8b 6c 24 0c          	mov    0xc(%esp),%ebp
    3b1d:	3b 69 08             	cmp    0x8(%ecx),%ebp
    3b20:	7e 21                	jle    3b43 <rw_abs_hd+0xf1>
    3b22:	8b 3a                	mov    (%edx),%edi
    3b24:	39 fe                	cmp    %edi,%esi
    3b26:	0f 8c 8a 00 00 00    	jl     3bb6 <rw_abs_hd+0x164>
    3b2c:	39 fe                	cmp    %edi,%esi
    3b2e:	74 45                	je     3b75 <rw_abs_hd+0x123>
    3b30:	89 d1                	mov    %edx,%ecx
    3b32:	8b 51 20             	mov    0x20(%ecx),%edx
    3b35:	85 d2                	test   %edx,%edx
    3b37:	74 7d                	je     3bb6 <rw_abs_hd+0x164>
    3b39:	8b 39                	mov    (%ecx),%edi
    3b3b:	39 fe                	cmp    %edi,%esi
    3b3d:	7f e3                	jg     3b22 <rw_abs_hd+0xd0>
    3b3f:	39 fe                	cmp    %edi,%esi
    3b41:	74 ba                	je     3afd <rw_abs_hd+0xab>
    3b43:	8b 2a                	mov    (%edx),%ebp
    3b45:	39 ef                	cmp    %ebp,%edi
    3b47:	7c 5e                	jl     3ba7 <rw_abs_hd+0x155>
    3b49:	39 ef                	cmp    %ebp,%edi
    3b4b:	75 d5                	jne    3b22 <rw_abs_hd+0xd0>
    3b4d:	8b 69 10             	mov    0x10(%ecx),%ebp
    3b50:	8b 7a 10             	mov    0x10(%edx),%edi
    3b53:	39 fd                	cmp    %edi,%ebp
    3b55:	7c 54                	jl     3bab <rw_abs_hd+0x159>
    3b57:	39 fd                	cmp    %edi,%ebp
    3b59:	75 c7                	jne    3b22 <rw_abs_hd+0xd0>
    3b5b:	8b 69 0c             	mov    0xc(%ecx),%ebp
    3b5e:	8b 7a 0c             	mov    0xc(%edx),%edi
    3b61:	39 fd                	cmp    %edi,%ebp
    3b63:	7c 4a                	jl     3baf <rw_abs_hd+0x15d>
    3b65:	39 fd                	cmp    %edi,%ebp
    3b67:	75 b9                	jne    3b22 <rw_abs_hd+0xd0>
    3b69:	8b 7a 08             	mov    0x8(%edx),%edi
    3b6c:	39 79 08             	cmp    %edi,0x8(%ecx)
    3b6f:	7d b1                	jge    3b22 <rw_abs_hd+0xd0>
    3b71:	89 d1                	mov    %edx,%ecx
    3b73:	eb bd                	jmp    3b32 <rw_abs_hd+0xe0>
    3b75:	8b 7a 10             	mov    0x10(%edx),%edi
    3b78:	8b 2c 24             	mov    (%esp),%ebp
    3b7b:	39 fd                	cmp    %edi,%ebp
    3b7d:	7c 37                	jl     3bb6 <rw_abs_hd+0x164>
    3b7f:	39 fd                	cmp    %edi,%ebp
    3b81:	74 04                	je     3b87 <rw_abs_hd+0x135>
    3b83:	89 d1                	mov    %edx,%ecx
    3b85:	eb ab                	jmp    3b32 <rw_abs_hd+0xe0>
    3b87:	8b 7a 0c             	mov    0xc(%edx),%edi
    3b8a:	8b 6c 24 08          	mov    0x8(%esp),%ebp
    3b8e:	39 fd                	cmp    %edi,%ebp
    3b90:	7c 24                	jl     3bb6 <rw_abs_hd+0x164>
    3b92:	39 fd                	cmp    %edi,%ebp
    3b94:	74 04                	je     3b9a <rw_abs_hd+0x148>
    3b96:	89 d1                	mov    %edx,%ecx
    3b98:	eb 98                	jmp    3b32 <rw_abs_hd+0xe0>
    3b9a:	8b 7c 24 0c          	mov    0xc(%esp),%edi
    3b9e:	3b 7a 08             	cmp    0x8(%edx),%edi
    3ba1:	7c 13                	jl     3bb6 <rw_abs_hd+0x164>
    3ba3:	89 d1                	mov    %edx,%ecx
    3ba5:	eb 8b                	jmp    3b32 <rw_abs_hd+0xe0>
    3ba7:	89 d1                	mov    %edx,%ecx
    3ba9:	eb 87                	jmp    3b32 <rw_abs_hd+0xe0>
    3bab:	89 d1                	mov    %edx,%ecx
    3bad:	eb 83                	jmp    3b32 <rw_abs_hd+0xe0>
    3baf:	89 d1                	mov    %edx,%ecx
    3bb1:	e9 7c ff ff ff       	jmp    3b32 <rw_abs_hd+0xe0>
    3bb6:	89 50 20             	mov    %edx,0x20(%eax)
    3bb9:	89 41 20             	mov    %eax,0x20(%ecx)
    3bbc:	c7 83 c8 04 00 00 00 	movl   $0x0,0x4c8(%ebx)
    3bc3:	00 00 00 
    3bc6:	83 bb 00 00 00 00 00 	cmpl   $0x0,0x0(%ebx)
    3bcd:	74 2b                	je     3bfa <rw_abs_hd+0x1a8>
    3bcf:	fa                   	cli    
    3bd0:	8b 44 24 38          	mov    0x38(%esp),%eax
    3bd4:	80 78 0b 00          	cmpb   $0x0,0xb(%eax)
    3bd8:	74 17                	je     3bf1 <rw_abs_hd+0x19f>
    3bda:	8d 70 0c             	lea    0xc(%eax),%esi
    3bdd:	89 c7                	mov    %eax,%edi
    3bdf:	83 ec 0c             	sub    $0xc,%esp
    3be2:	56                   	push   %esi
    3be3:	e8 fc ff ff ff       	call   3be4 <rw_abs_hd+0x192>
    3be8:	83 c4 10             	add    $0x10,%esp
    3beb:	80 7f 0b 00          	cmpb   $0x0,0xb(%edi)
    3bef:	75 ee                	jne    3bdf <rw_abs_hd+0x18d>
    3bf1:	fb                   	sti    
    3bf2:	83 c4 1c             	add    $0x1c,%esp
    3bf5:	5b                   	pop    %ebx
    3bf6:	5e                   	pop    %esi
    3bf7:	5f                   	pop    %edi
    3bf8:	5d                   	pop    %ebp
    3bf9:	c3                   	ret    
    3bfa:	e8 63 fd ff ff       	call   3962 <do_request>
    3bff:	eb ce                	jmp    3bcf <rw_abs_hd+0x17d>
    3c01:	8d 83 e0 04 00 00    	lea    0x4e0(%ebx),%eax
    3c07:	89 fe                	mov    %edi,%esi
    3c09:	89 38                	mov    %edi,(%eax)
    3c0b:	c7 40 04 02 00 00 00 	movl   $0x2,0x4(%eax)
    3c12:	89 6c 24 0c          	mov    %ebp,0xc(%esp)
    3c16:	89 68 08             	mov    %ebp,0x8(%eax)
    3c19:	8b 4c 24 30          	mov    0x30(%esp),%ecx
    3c1d:	89 4c 24 08          	mov    %ecx,0x8(%esp)
    3c21:	89 48 0c             	mov    %ecx,0xc(%eax)
    3c24:	8b 4c 24 34          	mov    0x34(%esp),%ecx
    3c28:	89 0c 24             	mov    %ecx,(%esp)
    3c2b:	89 48 10             	mov    %ecx,0x10(%eax)
    3c2e:	83 7c 24 04 01       	cmpl   $0x1,0x4(%esp)
    3c33:	19 d2                	sbb    %edx,%edx
    3c35:	83 e2 f0             	and    $0xfffffff0,%edx
    3c38:	83 c2 30             	add    $0x30,%edx
    3c3b:	89 50 14             	mov    %edx,0x14(%eax)
    3c3e:	8b 4c 24 38          	mov    0x38(%esp),%ecx
    3c42:	89 48 1c             	mov    %ecx,0x1c(%eax)
    3c45:	c7 40 18 00 00 00 00 	movl   $0x0,0x18(%eax)
    3c4c:	c7 40 20 00 00 00 00 	movl   $0x0,0x20(%eax)
    3c53:	c7 83 c8 04 00 00 01 	movl   $0x1,0x4c8(%ebx)
    3c5a:	00 00 00 
    3c5d:	8b 93 cc 04 00 00    	mov    0x4cc(%ebx),%edx
    3c63:	85 d2                	test   %edx,%edx
    3c65:	0f 84 87 fe ff ff    	je     3af2 <rw_abs_hd+0xa0>
    3c6b:	8b 4a 20             	mov    0x20(%edx),%ecx
    3c6e:	85 c9                	test   %ecx,%ecx
    3c70:	0f 85 bc fe ff ff    	jne    3b32 <rw_abs_hd+0xe0>
    3c76:	89 42 20             	mov    %eax,0x20(%edx)
    3c79:	e9 3e ff ff ff       	jmp    3bbc <rw_abs_hd+0x16a>

00003c7e <bad_rw_intr>:
    3c7e:	57                   	push   %edi
    3c7f:	56                   	push   %esi
    3c80:	53                   	push   %ebx
    3c81:	e8 fc ff ff ff       	call   3c82 <bad_rw_intr+0x4>
    3c86:	81 c3 02 00 00 00    	add    $0x2,%ebx
    3c8c:	8b 83 cc 04 00 00    	mov    0x4cc(%ebx),%eax
    3c92:	8b 30                	mov    (%eax),%esi
    3c94:	8b 50 18             	mov    0x18(%eax),%edx
    3c97:	8d 4a 01             	lea    0x1(%edx),%ecx
    3c9a:	89 48 18             	mov    %ecx,0x18(%eax)
    3c9d:	83 fa 04             	cmp    $0x4,%edx
    3ca0:	7f 0b                	jg     3cad <bad_rw_intr+0x2f>
    3ca2:	89 f0                	mov    %esi,%eax
    3ca4:	e8 10 fc ff ff       	call   38b9 <reset_hd>
    3ca9:	5b                   	pop    %ebx
    3caa:	5e                   	pop    %esi
    3cab:	5f                   	pop    %edi
    3cac:	c3                   	ret    
    3cad:	8b 50 1c             	mov    0x1c(%eax),%edx
    3cb0:	c6 42 08 00          	movb   $0x0,0x8(%edx)
    3cb4:	8b 78 1c             	mov    0x1c(%eax),%edi
    3cb7:	80 7f 0b 00          	cmpb   $0x0,0xb(%edi)
    3cbb:	74 38                	je     3cf5 <bad_rw_intr+0x77>
    3cbd:	c6 47 0b 00          	movb   $0x0,0xb(%edi)
    3cc1:	83 ec 0c             	sub    $0xc,%esp
    3cc4:	83 c7 0c             	add    $0xc,%edi
    3cc7:	57                   	push   %edi
    3cc8:	e8 fc ff ff ff       	call   3cc9 <bad_rw_intr+0x4b>
    3ccd:	8d 83 c4 04 00 00    	lea    0x4c4(%ebx),%eax
    3cd3:	89 04 24             	mov    %eax,(%esp)
    3cd6:	e8 fc ff ff ff       	call   3cd7 <bad_rw_intr+0x59>
    3cdb:	8b 83 cc 04 00 00    	mov    0x4cc(%ebx),%eax
    3ce1:	c7 00 ff ff ff ff    	movl   $0xffffffff,(%eax)
    3ce7:	8b 40 20             	mov    0x20(%eax),%eax
    3cea:	89 83 cc 04 00 00    	mov    %eax,0x4cc(%ebx)
    3cf0:	83 c4 10             	add    $0x10,%esp
    3cf3:	eb ad                	jmp    3ca2 <bad_rw_intr+0x24>
    3cf5:	83 ec 0c             	sub    $0xc,%esp
    3cf8:	8d 83 00 00 00 00    	lea    0x0(%ebx),%eax
    3cfe:	50                   	push   %eax
    3cff:	e8 fc ff ff ff       	call   3d00 <bad_rw_intr+0x82>
    3d04:	83 c4 10             	add    $0x10,%esp
    3d07:	eb b4                	jmp    3cbd <bad_rw_intr+0x3f>

00003d09 <read_intr>:
    3d09:	57                   	push   %edi
    3d0a:	56                   	push   %esi
    3d0b:	53                   	push   %ebx
    3d0c:	e8 fc ff ff ff       	call   3d0d <read_intr+0x4>
    3d11:	81 c3 02 00 00 00    	add    $0x2,%ebx
    3d17:	e8 6d fa ff ff       	call   3789 <win_result>
    3d1c:	85 c0                	test   %eax,%eax
    3d1e:	75 3a                	jne    3d5a <read_intr+0x51>
    3d20:	8b 83 cc 04 00 00    	mov    0x4cc(%ebx),%eax
    3d26:	8b 70 1c             	mov    0x1c(%eax),%esi
    3d29:	8b 78 04             	mov    0x4(%eax),%edi
    3d2c:	83 e7 01             	and    $0x1,%edi
    3d2f:	c1 e7 09             	shl    $0x9,%edi
    3d32:	03 3e                	add    (%esi),%edi
    3d34:	ba f0 01 00 00       	mov    $0x1f0,%edx
    3d39:	b9 00 01 00 00       	mov    $0x100,%ecx
    3d3e:	fc                   	cld    
    3d3f:	f3 66 6d             	rep insw (%dx),%es:(%edi)
    3d42:	c7 40 18 00 00 00 00 	movl   $0x0,0x18(%eax)
    3d49:	8b 48 04             	mov    0x4(%eax),%ecx
    3d4c:	8d 51 ff             	lea    -0x1(%ecx),%edx
    3d4f:	89 50 04             	mov    %edx,0x4(%eax)
    3d52:	85 d2                	test   %edx,%edx
    3d54:	74 0b                	je     3d61 <read_intr+0x58>
    3d56:	5b                   	pop    %ebx
    3d57:	5e                   	pop    %esi
    3d58:	5f                   	pop    %edi
    3d59:	c3                   	ret    
    3d5a:	e8 1f ff ff ff       	call   3c7e <bad_rw_intr>
    3d5f:	eb f5                	jmp    3d56 <read_intr+0x4d>
    3d61:	c6 46 08 01          	movb   $0x1,0x8(%esi)
    3d65:	8b 40 1c             	mov    0x1c(%eax),%eax
    3d68:	c6 40 09 00          	movb   $0x0,0x9(%eax)
    3d6c:	83 ec 0c             	sub    $0xc,%esp
    3d6f:	8d 83 c4 04 00 00    	lea    0x4c4(%ebx),%eax
    3d75:	50                   	push   %eax
    3d76:	e8 fc ff ff ff       	call   3d77 <read_intr+0x6e>
    3d7b:	8b 83 cc 04 00 00    	mov    0x4cc(%ebx),%eax
    3d81:	8b 70 1c             	mov    0x1c(%eax),%esi
    3d84:	83 c4 10             	add    $0x10,%esp
    3d87:	80 7e 0b 00          	cmpb   $0x0,0xb(%esi)
    3d8b:	74 2f                	je     3dbc <read_intr+0xb3>
    3d8d:	c6 46 0b 00          	movb   $0x0,0xb(%esi)
    3d91:	83 ec 0c             	sub    $0xc,%esp
    3d94:	83 c6 0c             	add    $0xc,%esi
    3d97:	56                   	push   %esi
