
system:     file format binary


Disassembly of section .data:

00000000 <.data>:
       0:	b8 10 00 00 00       	mov    $0x10,%eax
       5:	8e d8                	mov    %eax,%ds
       7:	8e c0                	mov    %eax,%es
       9:	8e e0                	mov    %eax,%fs
       b:	8e e8                	mov    %eax,%gs
       d:	8e d0                	mov    %eax,%ss
       f:	bc e0 2b 01 00       	mov    $0x12be0,%esp
      14:	0f b2 25 e0 2b 01 00 	lss    0x12be0,%esp
      1b:	e8 43 00 00 00       	call   0x63
      20:	e8 6e 00 00 00       	call   0x93
      25:	b8 10 00 00 00       	mov    $0x10,%eax
      2a:	8e d8                	mov    %eax,%ds
      2c:	8e c0                	mov    %eax,%es
      2e:	8e e0                	mov    %eax,%fs
      30:	8e e8                	mov    %eax,%gs
      32:	0f b2 25 e0 2b 01 00 	lss    0x12be0,%esp
      39:	31 c0                	xor    %eax,%eax
      3b:	40                   	inc    %eax
      3c:	a3 00 00 00 00       	mov    %eax,0x0
      41:	39 05 00 00 10 00    	cmp    %eax,0x100000
      47:	74 f2                	je     0x3b
      49:	0f 20 c0             	mov    %cr0,%eax
      4c:	25 11 00 00 80       	and    $0x80000011,%eax
      51:	a9 10 00 00 00       	test   $0x10,%eax
      56:	75 03                	jne    0x5b
      58:	83 c8 04             	or     $0x4,%eax
      5b:	0f 22 c0             	mov    %eax,%cr0
      5e:	e9 9d 3f 00 00       	jmp    0x4000
      63:	8d 15 14 40 00 00    	lea    0x4014,%edx
      69:	b8 00 00 08 00       	mov    $0x80000,%eax
      6e:	66 89 d0             	mov    %dx,%ax
      71:	66 ba 00 8e          	mov    $0x8e00,%dx
      75:	8d 3d 78 40 00 00    	lea    0x4078,%edi
      7b:	b9 00 01 00 00       	mov    $0x100,%ecx
      80:	89 07                	mov    %eax,(%edi)
      82:	89 57 04             	mov    %edx,0x4(%edi)
      85:	83 c7 08             	add    $0x8,%edi
      88:	49                   	dec    %ecx
      89:	75 f5                	jne    0x80
      8b:	0f 01 1d 6a 40 00 00 	lidtl  0x406a
      92:	c3                   	ret    
      93:	0f 01 15 72 40 00 00 	lgdtl  0x4072
      9a:	c3                   	ret    
	...
    3fff:	00 6a 00             	add    %ch,0x0(%edx)
    4002:	6a 00                	push   $0x0
    4004:	6a 00                	push   $0x0
    4006:	68 12 40 00 00       	push   $0x4012
    400b:	68 6d 52 00 00       	push   $0x526d
    4010:	eb 10                	jmp    0x4022
    4012:	eb fe                	jmp    0x4012
    4014:	fe 05 a0 80 0b 00    	incb   0xb80a0
    401a:	c6 05 a1 80 0b 00 02 	movb   $0x2,0xb80a1
    4021:	cf                   	iret   
    4022:	b9 00 0c 00 00       	mov    $0xc00,%ecx
    4027:	31 c0                	xor    %eax,%eax
    4029:	31 ff                	xor    %edi,%edi
    402b:	fc                   	cld    
    402c:	f3 ab                	rep stos %eax,%es:(%edi)
    402e:	c7 05 00 00 00 00 07 	movl   $0x1007,0x0
    4035:	10 00 00 
    4038:	c7 05 04 00 00 00 07 	movl   $0x2007,0x4
    403f:	20 00 00 
    4042:	bf fc 2f 00 00       	mov    $0x2ffc,%edi
    4047:	b8 07 f0 7f 00       	mov    $0x7ff007,%eax
    404c:	fd                   	std    
    404d:	ab                   	stos   %eax,%es:(%edi)
    404e:	2d 00 10 00 00       	sub    $0x1000,%eax
    4053:	7d f8                	jge    0x404d
    4055:	31 c0                	xor    %eax,%eax
    4057:	0f 22 d8             	mov    %eax,%cr3
    405a:	0f 20 c0             	mov    %cr0,%eax
    405d:	0d 00 00 00 80       	or     $0x80000000,%eax
    4062:	0f 22 c0             	mov    %eax,%cr0
    4065:	c3                   	ret    
    4066:	66 90                	xchg   %ax,%ax
    4068:	00 00                	add    %al,(%eax)
    406a:	ff 07                	incl   (%edi)
    406c:	78 40                	js     0x40ae
    406e:	00 00                	add    %al,(%eax)
    4070:	00 00                	add    %al,(%eax)
    4072:	ff 07                	incl   (%edi)
    4074:	78 48                	js     0x40be
	...
    487e:	00 00                	add    %al,(%eax)
    4880:	ff 07                	incl   (%edi)
    4882:	00 00                	add    %al,(%eax)
    4884:	00 9a c0 00 ff 07    	add    %bl,0x7ff00c0(%edx)
    488a:	00 00                	add    %al,(%eax)
    488c:	00 92 c0 00 00 00    	add    %dl,0xc0(%edx)
	...
    5076:	00 00                	add    %al,(%eax)
    5078:	53                   	push   %ebx
    5079:	83 ec 0c             	sub    $0xc,%esp
    507c:	8d 44 24 18          	lea    0x18(%esp),%eax
    5080:	50                   	push   %eax
    5081:	ff 74 24 18          	pushl  0x18(%esp)
    5085:	68 00 65 01 00       	push   $0x16500
    508a:	e8 64 16 00 00       	call   0x66f3
    508f:	89 c3                	mov    %eax,%ebx
    5091:	83 c4 0c             	add    $0xc,%esp
    5094:	50                   	push   %eax
    5095:	68 00 65 01 00       	push   $0x16500
    509a:	6a 01                	push   $0x1
    509c:	e8 42 9b 00 00       	call   0xebe3
    50a1:	89 d8                	mov    %ebx,%eax
    50a3:	83 c4 18             	add    $0x18,%esp
    50a6:	5b                   	pop    %ebx
    50a7:	c3                   	ret    
    50a8:	ba 02 00 00 00       	mov    $0x2,%edx
    50ad:	89 d0                	mov    %edx,%eax
    50af:	cd 80                	int    $0x80
    50b1:	89 c2                	mov    %eax,%edx
    50b3:	85 c0                	test   %eax,%eax
    50b5:	78 01                	js     0x50b8
    50b7:	c3                   	ret    
    50b8:	f7 da                	neg    %edx
    50ba:	89 15 04 a2 01 00    	mov    %edx,0x1a204
    50c0:	b8 ff ff ff ff       	mov    $0xffffffff,%eax
    50c5:	eb f0                	jmp    0x50b7
    50c7:	ba 1d 00 00 00       	mov    $0x1d,%edx
    50cc:	89 d0                	mov    %edx,%eax
    50ce:	cd 80                	int    $0x80
    50d0:	89 c2                	mov    %eax,%edx
    50d2:	85 c0                	test   %eax,%eax
    50d4:	78 01                	js     0x50d7
    50d6:	c3                   	ret    
    50d7:	f7 da                	neg    %edx
    50d9:	89 15 04 a2 01 00    	mov    %edx,0x1a204
    50df:	b8 ff ff ff ff       	mov    $0xffffffff,%eax
    50e4:	eb f0                	jmp    0x50d6
    50e6:	ba 00 00 00 00       	mov    $0x0,%edx
    50eb:	89 d0                	mov    %edx,%eax
    50ed:	cd 80                	int    $0x80
    50ef:	89 c2                	mov    %eax,%edx
    50f1:	85 c0                	test   %eax,%eax
    50f3:	78 01                	js     0x50f6
    50f5:	c3                   	ret    
    50f6:	f7 da                	neg    %edx
    50f8:	89 15 04 a2 01 00    	mov    %edx,0x1a204
    50fe:	b8 ff ff ff ff       	mov    $0xffffffff,%eax
    5103:	eb f0                	jmp    0x50f5
    5105:	ba 24 00 00 00       	mov    $0x24,%edx
    510a:	89 d0                	mov    %edx,%eax
    510c:	cd 80                	int    $0x80
    510e:	89 c2                	mov    %eax,%edx
    5110:	85 c0                	test   %eax,%eax
    5112:	78 01                	js     0x5115
    5114:	c3                   	ret    
    5115:	f7 da                	neg    %edx
    5117:	89 15 04 a2 01 00    	mov    %edx,0x1a204
    511d:	b8 ff ff ff ff       	mov    $0xffffffff,%eax
    5122:	eb f0                	jmp    0x5114
    5124:	83 ec 1c             	sub    $0x1c,%esp
    5127:	65 a1 14 00 00 00    	mov    %gs:0x14,%eax
    512d:	89 44 24 0c          	mov    %eax,0xc(%esp)
    5131:	31 c0                	xor    %eax,%eax
    5133:	e8 ae ff ff ff       	call   0x50e6
    5138:	e8 6b ff ff ff       	call   0x50a8
    513d:	85 c0                	test   %eax,%eax
    513f:	75 19                	jne    0x515a
    5141:	83 ec 04             	sub    $0x4,%esp
    5144:	6a 00                	push   $0x0
    5146:	6a 00                	push   $0x0
    5148:	68 c4 f0 00 00       	push   $0xf0c4
    514d:	e8 04 9b 00 00       	call   0xec56
    5152:	89 04 24             	mov    %eax,(%esp)
    5155:	e8 27 9a 00 00       	call   0xeb81
    515a:	83 ec 04             	sub    $0x4,%esp
    515d:	6a 00                	push   $0x0
    515f:	6a 02                	push   $0x2
    5161:	68 d0 f0 00 00       	push   $0xf0d0
    5166:	e8 24 9a 00 00       	call   0xeb8f
    516b:	c7 04 24 00 00 00 00 	movl   $0x0,(%esp)
    5172:	e8 9b 9a 00 00       	call   0xec12
    5177:	c7 04 24 00 00 00 00 	movl   $0x0,(%esp)
    517e:	e8 8f 9a 00 00       	call   0xec12
    5183:	a1 c4 85 01 00       	mov    0x185c4,%eax
    5188:	83 c4 0c             	add    $0xc,%esp
    518b:	89 c2                	mov    %eax,%edx
    518d:	c1 e2 0a             	shl    $0xa,%edx
    5190:	52                   	push   %edx
    5191:	50                   	push   %eax
    5192:	68 f4 f6 00 00       	push   $0xf6f4
    5197:	e8 dc fe ff ff       	call   0x5078
    519c:	c7 04 24 da f0 00 00 	movl   $0xf0da,(%esp)
    51a3:	e8 d0 fe ff ff       	call   0x5078
    51a8:	e8 fb fe ff ff       	call   0x50a8
    51ad:	89 44 24 18          	mov    %eax,0x18(%esp)
    51b1:	83 c4 10             	add    $0x10,%esp
    51b4:	85 c0                	test   %eax,%eax
    51b6:	78 34                	js     0x51ec
    51b8:	85 c0                	test   %eax,%eax
    51ba:	74 42                	je     0x51fe
    51bc:	83 ec 0c             	sub    $0xc,%esp
    51bf:	8d 44 24 14          	lea    0x14(%esp),%eax
    51c3:	50                   	push   %eax
    51c4:	e8 eb 9a 00 00       	call   0xecb4
    51c9:	83 c4 0c             	add    $0xc,%esp
    51cc:	ff 74 24 0c          	pushl  0xc(%esp)
    51d0:	50                   	push   %eax
    51d1:	68 ff f0 00 00       	push   $0xf0ff
    51d6:	e8 9d fe ff ff       	call   0x5078
    51db:	e8 25 ff ff ff       	call   0x5105
    51e0:	c7 04 24 00 00 00 00 	movl   $0x0,(%esp)
    51e7:	e8 95 99 00 00       	call   0xeb81
    51ec:	83 ec 0c             	sub    $0xc,%esp
    51ef:	68 e1 f0 00 00       	push   $0xf0e1
    51f4:	e8 7f fe ff ff       	call   0x5078
    51f9:	83 c4 10             	add    $0x10,%esp
    51fc:	eb be                	jmp    0x51bc
    51fe:	83 ec 0c             	sub    $0xc,%esp
    5201:	6a 00                	push   $0x0
    5203:	e8 b6 99 00 00       	call   0xebbe
    5208:	c7 04 24 01 00 00 00 	movl   $0x1,(%esp)
    520f:	e8 aa 99 00 00       	call   0xebbe
    5214:	c7 04 24 02 00 00 00 	movl   $0x2,(%esp)
    521b:	e8 9e 99 00 00       	call   0xebbe
    5220:	e8 12 9a 00 00       	call   0xec37
    5225:	83 c4 0c             	add    $0xc,%esp
    5228:	6a 00                	push   $0x0
    522a:	6a 02                	push   $0x2
    522c:	68 d0 f0 00 00       	push   $0xf0d0
    5231:	e8 59 99 00 00       	call   0xeb8f
    5236:	c7 04 24 00 00 00 00 	movl   $0x0,(%esp)
    523d:	e8 d0 99 00 00       	call   0xec12
    5242:	c7 04 24 00 00 00 00 	movl   $0x0,(%esp)
    5249:	e8 c4 99 00 00       	call   0xec12
    524e:	83 c4 0c             	add    $0xc,%esp
    5251:	68 c0 2b 01 00       	push   $0x12bc0
    5256:	68 c8 2b 01 00       	push   $0x12bc8
    525b:	68 f7 f0 00 00       	push   $0xf0f7
    5260:	e8 f1 99 00 00       	call   0xec56
    5265:	89 04 24             	mov    %eax,(%esp)
    5268:	e8 14 99 00 00       	call   0xeb81
    526d:	8d 4c 24 04          	lea    0x4(%esp),%ecx
    5271:	83 e4 f0             	and    $0xfffffff0,%esp
    5274:	ff 71 fc             	pushl  -0x4(%ecx)
    5277:	55                   	push   %ebp
    5278:	89 e5                	mov    %esp,%ebp
    527a:	57                   	push   %edi
    527b:	56                   	push   %esi
    527c:	53                   	push   %ebx
    527d:	51                   	push   %ecx
    527e:	83 ec 48             	sub    $0x48,%esp
    5281:	65 a1 14 00 00 00    	mov    %gs:0x14,%eax
    5287:	89 45 e4             	mov    %eax,-0x1c(%ebp)
    528a:	31 c0                	xor    %eax,%eax
    528c:	b8 80 00 00 00       	mov    $0x80,%eax
    5291:	ba 70 00 00 00       	mov    $0x70,%edx
    5296:	ee                   	out    %al,(%dx)
    5297:	eb 00                	jmp    0x5299
    5299:	eb 00                	jmp    0x529b
    529b:	ba 71 00 00 00       	mov    $0x71,%edx
    52a0:	ec                   	in     (%dx),%al
    52a1:	eb 00                	jmp    0x52a3
    52a3:	eb 00                	jmp    0x52a5
    52a5:	89 c6                	mov    %eax,%esi
    52a7:	0f b6 d8             	movzbl %al,%ebx
    52aa:	b8 82 00 00 00       	mov    $0x82,%eax
    52af:	ba 70 00 00 00       	mov    $0x70,%edx
    52b4:	ee                   	out    %al,(%dx)
    52b5:	eb 00                	jmp    0x52b7
    52b7:	eb 00                	jmp    0x52b9
    52b9:	ba 71 00 00 00       	mov    $0x71,%edx
    52be:	ec                   	in     (%dx),%al
    52bf:	eb 00                	jmp    0x52c1
    52c1:	eb 00                	jmp    0x52c3
    52c3:	88 c1                	mov    %al,%cl
    52c5:	b8 84 00 00 00       	mov    $0x84,%eax
    52ca:	ba 70 00 00 00       	mov    $0x70,%edx
    52cf:	ee                   	out    %al,(%dx)
    52d0:	eb 00                	jmp    0x52d2
    52d2:	eb 00                	jmp    0x52d4
    52d4:	ba 71 00 00 00       	mov    $0x71,%edx
    52d9:	ec                   	in     (%dx),%al
    52da:	eb 00                	jmp    0x52dc
    52dc:	eb 00                	jmp    0x52de
    52de:	88 45 b7             	mov    %al,-0x49(%ebp)
    52e1:	b8 87 00 00 00       	mov    $0x87,%eax
    52e6:	ba 70 00 00 00       	mov    $0x70,%edx
    52eb:	ee                   	out    %al,(%dx)
    52ec:	eb 00                	jmp    0x52ee
    52ee:	eb 00                	jmp    0x52f0
    52f0:	ba 71 00 00 00       	mov    $0x71,%edx
    52f5:	ec                   	in     (%dx),%al
    52f6:	eb 00                	jmp    0x52f8
    52f8:	eb 00                	jmp    0x52fa
    52fa:	89 c7                	mov    %eax,%edi
    52fc:	b8 88 00 00 00       	mov    $0x88,%eax
    5301:	ba 70 00 00 00       	mov    $0x70,%edx
    5306:	ee                   	out    %al,(%dx)
    5307:	eb 00                	jmp    0x5309
    5309:	eb 00                	jmp    0x530b
    530b:	ba 71 00 00 00       	mov    $0x71,%edx
    5310:	ec                   	in     (%dx),%al
    5311:	eb 00                	jmp    0x5313
    5313:	eb 00                	jmp    0x5315
    5315:	88 45 b6             	mov    %al,-0x4a(%ebp)
    5318:	b8 89 00 00 00       	mov    $0x89,%eax
    531d:	ba 70 00 00 00       	mov    $0x70,%edx
    5322:	ee                   	out    %al,(%dx)
    5323:	eb 00                	jmp    0x5325
    5325:	eb 00                	jmp    0x5327
    5327:	ba 71 00 00 00       	mov    $0x71,%edx
    532c:	ec                   	in     (%dx),%al
    532d:	eb 00                	jmp    0x532f
    532f:	eb 00                	jmp    0x5331
    5331:	88 45 b5             	mov    %al,-0x4b(%ebp)
    5334:	b8 80 00 00 00       	mov    $0x80,%eax
    5339:	ba 70 00 00 00       	mov    $0x70,%edx
    533e:	ee                   	out    %al,(%dx)
    533f:	eb 00                	jmp    0x5341
    5341:	eb 00                	jmp    0x5343
    5343:	ba 71 00 00 00       	mov    $0x71,%edx
    5348:	ec                   	in     (%dx),%al
    5349:	eb 00                	jmp    0x534b
    534b:	eb 00                	jmp    0x534d
    534d:	0f b6 c0             	movzbl %al,%eax
    5350:	39 c3                	cmp    %eax,%ebx
    5352:	0f 85 34 ff ff ff    	jne    0x528c
    5358:	0f b6 45 b6          	movzbl -0x4a(%ebp),%eax
    535c:	48                   	dec    %eax
    535d:	c1 fb 04             	sar    $0x4,%ebx
    5360:	8d 14 9b             	lea    (%ebx,%ebx,4),%edx
    5363:	01 d2                	add    %edx,%edx
    5365:	89 f3                	mov    %esi,%ebx
    5367:	83 e3 0f             	and    $0xf,%ebx
    536a:	01 da                	add    %ebx,%edx
    536c:	89 55 c0             	mov    %edx,-0x40(%ebp)
    536f:	0f b6 d1             	movzbl %cl,%edx
    5372:	c1 fa 04             	sar    $0x4,%edx
    5375:	8d 14 92             	lea    (%edx,%edx,4),%edx
    5378:	01 d2                	add    %edx,%edx
    537a:	83 e1 0f             	and    $0xf,%ecx
    537d:	01 ca                	add    %ecx,%edx
    537f:	89 55 c4             	mov    %edx,-0x3c(%ebp)
    5382:	8a 5d b7             	mov    -0x49(%ebp),%bl
    5385:	0f b6 d3             	movzbl %bl,%edx
    5388:	c1 fa 04             	sar    $0x4,%edx
    538b:	8d 14 92             	lea    (%edx,%edx,4),%edx
    538e:	01 d2                	add    %edx,%edx
    5390:	89 d9                	mov    %ebx,%ecx
    5392:	83 e1 0f             	and    $0xf,%ecx
    5395:	01 ca                	add    %ecx,%edx
    5397:	89 55 c8             	mov    %edx,-0x38(%ebp)
    539a:	89 fb                	mov    %edi,%ebx
    539c:	0f b6 d3             	movzbl %bl,%edx
    539f:	c1 fa 04             	sar    $0x4,%edx
    53a2:	8d 14 92             	lea    (%edx,%edx,4),%edx
    53a5:	01 d2                	add    %edx,%edx
    53a7:	89 f9                	mov    %edi,%ecx
    53a9:	83 e1 0f             	and    $0xf,%ecx
    53ac:	01 ca                	add    %ecx,%edx
    53ae:	89 55 cc             	mov    %edx,-0x34(%ebp)
    53b1:	89 c2                	mov    %eax,%edx
    53b3:	c1 fa 04             	sar    $0x4,%edx
    53b6:	8d 14 92             	lea    (%edx,%edx,4),%edx
    53b9:	01 d2                	add    %edx,%edx
    53bb:	83 e0 0f             	and    $0xf,%eax
    53be:	01 d0                	add    %edx,%eax
    53c0:	89 45 d0             	mov    %eax,-0x30(%ebp)
    53c3:	8a 4d b5             	mov    -0x4b(%ebp),%cl
    53c6:	0f b6 c1             	movzbl %cl,%eax
    53c9:	c1 f8 04             	sar    $0x4,%eax
    53cc:	8d 04 80             	lea    (%eax,%eax,4),%eax
    53cf:	01 c0                	add    %eax,%eax
    53d1:	89 ca                	mov    %ecx,%edx
    53d3:	83 e2 0f             	and    $0xf,%edx
    53d6:	01 d0                	add    %edx,%eax
    53d8:	89 45 d4             	mov    %eax,-0x2c(%ebp)
    53db:	83 ec 0c             	sub    $0xc,%esp
    53de:	8d 45 c0             	lea    -0x40(%ebp),%eax
    53e1:	50                   	push   %eax
    53e2:	e8 3a 46 00 00       	call   0x9a21
    53e7:	a3 04 69 01 00       	mov    %eax,0x16904
    53ec:	e8 5c 16 00 00       	call   0x6a4d
    53f1:	e8 9d 09 00 00       	call   0x5d93
    53f6:	e8 9b 03 00 00       	call   0x5796
    53fb:	e8 95 61 00 00       	call   0xb595
    5400:	e8 c1 3b 00 00       	call   0x8fc6
    5405:	fb                   	sti    
    5406:	89 e0                	mov    %esp,%eax
    5408:	6a 17                	push   $0x17
    540a:	50                   	push   %eax
    540b:	9c                   	pushf  
    540c:	6a 0f                	push   $0xf
    540e:	68 14 54 00 00       	push   $0x5414
    5413:	cf                   	iret   
    5414:	b8 17 00 00 00       	mov    $0x17,%eax
    5419:	8e d8                	mov    %eax,%ds
    541b:	8e c0                	mov    %eax,%es
    541d:	8e e0                	mov    %eax,%fs
    541f:	8e e8                	mov    %eax,%gs
    5421:	e8 82 fc ff ff       	call   0x50a8
    5426:	83 c4 10             	add    $0x10,%esp
    5429:	85 c0                	test   %eax,%eax
    542b:	75 05                	jne    0x5432
    542d:	e8 f2 fc ff ff       	call   0x5124
    5432:	e8 90 fc ff ff       	call   0x50c7
    5437:	eb f9                	jmp    0x5432
    5439:	90                   	nop
    543a:	8b 44 24 04          	mov    0x4(%esp),%eax
    543e:	85 c0                	test   %eax,%eax
    5440:	7e 1c                	jle    0x545e
    5442:	8b 0d 08 69 01 00    	mov    0x16908,%ecx
    5448:	8d 14 80             	lea    (%eax,%eax,4),%edx
    544b:	8d 14 92             	lea    (%edx,%edx,4),%edx
    544e:	8d 0c 91             	lea    (%ecx,%edx,4),%ecx
    5451:	8b 15 00 2d 01 00    	mov    0x12d00,%edx
    5457:	89 8a c8 00 00 00    	mov    %ecx,0xc8(%edx)
    545d:	c3                   	ret    
    545e:	b9 00 00 00 00       	mov    $0x0,%ecx
    5463:	eb ec                	jmp    0x5451
    5465:	a1 00 2d 01 00       	mov    0x12d00,%eax
    546a:	8b 80 a8 00 00 00    	mov    0xa8(%eax),%eax
    5470:	c3                   	ret    
    5471:	a1 00 2d 01 00       	mov    0x12d00,%eax
    5476:	8b 80 ac 00 00 00    	mov    0xac(%eax),%eax
    547c:	c3                   	ret    
    547d:	a1 00 2d 01 00       	mov    0x12d00,%eax
    5482:	0f b7 80 bc 00 00 00 	movzwl 0xbc(%eax),%eax
    5489:	c3                   	ret    
    548a:	a1 00 2d 01 00       	mov    0x12d00,%eax
    548f:	0f b7 80 be 00 00 00 	movzwl 0xbe(%eax),%eax
    5496:	c3                   	ret    
    5497:	a1 00 2d 01 00       	mov    0x12d00,%eax
    549c:	0f b7 80 c2 00 00 00 	movzwl 0xc2(%eax),%eax
    54a3:	c3                   	ret    
    54a4:	a1 00 2d 01 00       	mov    0x12d00,%eax
    54a9:	0f b7 80 c4 00 00 00 	movzwl 0xc4(%eax),%eax
    54b0:	c3                   	ret    
    54b1:	8b 15 00 2d 01 00    	mov    0x12d00,%edx
    54b7:	8b 42 08             	mov    0x8(%edx),%eax
    54ba:	2b 44 24 04          	sub    0x4(%esp),%eax
    54be:	85 c0                	test   %eax,%eax
    54c0:	7e 03                	jle    0x54c5
    54c2:	89 42 08             	mov    %eax,0x8(%edx)
    54c5:	b8 00 00 00 00       	mov    $0x0,%eax
    54ca:	c3                   	ret    
    54cb:	53                   	push   %ebx
    54cc:	8b 44 24 08          	mov    0x8(%esp),%eax
    54d0:	83 f8 11             	cmp    $0x11,%eax
    54d3:	77 23                	ja     0x54f8
    54d5:	ff 24 85 00 ed 00 00 	jmp    *0xed00(,%eax,4)
    54dc:	8b 15 00 2d 01 00    	mov    0x12d00,%edx
    54e2:	8d 0c 82             	lea    (%edx,%eax,4),%ecx
    54e5:	8b 41 10             	mov    0x10(%ecx),%eax
    54e8:	8b 5c 24 0c          	mov    0xc(%esp),%ebx
    54ec:	89 59 10             	mov    %ebx,0x10(%ecx)
    54ef:	8b 4c 24 10          	mov    0x10(%esp),%ecx
    54f3:	89 4a 10             	mov    %ecx,0x10(%edx)
    54f6:	5b                   	pop    %ebx
    54f7:	c3                   	ret    
    54f8:	b8 ff ff ff ff       	mov    $0xffffffff,%eax
    54fd:	eb f7                	jmp    0x54f6
    54ff:	a1 00 69 01 00       	mov    0x16900,%eax
    5504:	85 c0                	test   %eax,%eax
    5506:	74 06                	je     0x550e
    5508:	dd b0 c8 01 00 00    	fnsave 0x1c8(%eax)
    550e:	a1 00 2d 01 00       	mov    0x12d00,%eax
    5513:	66 83 b8 e0 00 00 00 	cmpw   $0x0,0xe0(%eax)
    551a:	00 
    551b:	75 11                	jne    0x552e
    551d:	db e3                	fninit 
    551f:	66 c7 80 e0 00 00 00 	movw   $0x1,0xe0(%eax)
    5526:	01 00 
    5528:	a3 00 69 01 00       	mov    %eax,0x16900
    552d:	c3                   	ret    
    552e:	dd a0 c8 01 00 00    	frstor 0x1c8(%eax)
    5534:	eb f2                	jmp    0x5528
    5536:	57                   	push   %edi
    5537:	56                   	push   %esi
    5538:	53                   	push   %ebx
    5539:	83 ec 10             	sub    $0x10,%esp
    553c:	65 a1 14 00 00 00    	mov    %gs:0x14,%eax
    5542:	89 44 24 0c          	mov    %eax,0xc(%esp)
    5546:	31 c0                	xor    %eax,%eax
    5548:	b8 fc 2c 01 00       	mov    $0x12cfc,%eax
    554d:	eb 17                	jmp    0x5566
    554f:	8b 10                	mov    (%eax),%edx
    5551:	83 7a 0c 00          	cmpl   $0x0,0xc(%edx)
    5555:	74 05                	je     0x555c
    5557:	83 3a 01             	cmpl   $0x1,(%edx)
    555a:	74 39                	je     0x5595
    555c:	83 e8 04             	sub    $0x4,%eax
    555f:	3d 00 2c 01 00       	cmp    $0x12c00,%eax
    5564:	76 37                	jbe    0x559d
    5566:	8b 10                	mov    (%eax),%edx
    5568:	85 d2                	test   %edx,%edx
    556a:	74 f0                	je     0x555c
    556c:	8b 8a c8 00 00 00    	mov    0xc8(%edx),%ecx
    5572:	85 c9                	test   %ecx,%ecx
    5574:	74 d9                	je     0x554f
    5576:	8b 1d 08 69 01 00    	mov    0x16908,%ebx
    557c:	39 d9                	cmp    %ebx,%ecx
    557e:	7d cf                	jge    0x554f
    5580:	81 4a 0c 00 20 00 00 	orl    $0x2000,0xc(%edx)
    5587:	8b 10                	mov    (%eax),%edx
    5589:	c7 82 c8 00 00 00 00 	movl   $0x0,0xc8(%edx)
    5590:	00 00 00 
    5593:	eb ba                	jmp    0x554f
    5595:	c7 02 00 00 00 00    	movl   $0x0,(%edx)
    559b:	eb bf                	jmp    0x555c
    559d:	be ff ff ff ff       	mov    $0xffffffff,%esi
    55a2:	bb 00 00 00 00       	mov    $0x0,%ebx
    55a7:	b8 3f 00 00 00       	mov    $0x3f,%eax
    55ac:	89 f1                	mov    %esi,%ecx
    55ae:	89 df                	mov    %ebx,%edi
    55b0:	eb 03                	jmp    0x55b5
    55b2:	48                   	dec    %eax
    55b3:	74 1d                	je     0x55d2
    55b5:	8b 14 85 00 2c 01 00 	mov    0x12c00(,%eax,4),%edx
    55bc:	85 d2                	test   %edx,%edx
    55be:	74 f2                	je     0x55b2
    55c0:	83 3a 00             	cmpl   $0x0,(%edx)
    55c3:	75 ed                	jne    0x55b2
    55c5:	8b 52 04             	mov    0x4(%edx),%edx
    55c8:	39 ca                	cmp    %ecx,%edx
    55ca:	7e e6                	jle    0x55b2
    55cc:	89 d1                	mov    %edx,%ecx
    55ce:	89 c7                	mov    %eax,%edi
    55d0:	eb e0                	jmp    0x55b2
    55d2:	85 c9                	test   %ecx,%ecx
    55d4:	75 25                	jne    0x55fb
    55d6:	b9 fc 2c 01 00       	mov    $0x12cfc,%ecx
    55db:	eb 0b                	jmp    0x55e8
    55dd:	83 e9 04             	sub    $0x4,%ecx
    55e0:	81 f9 00 2c 01 00    	cmp    $0x12c00,%ecx
    55e6:	76 bf                	jbe    0x55a7
    55e8:	8b 11                	mov    (%ecx),%edx
    55ea:	85 d2                	test   %edx,%edx
    55ec:	74 ef                	je     0x55dd
    55ee:	8b 42 04             	mov    0x4(%edx),%eax
    55f1:	d1 f8                	sar    %eax
    55f3:	03 42 08             	add    0x8(%edx),%eax
    55f6:	89 42 04             	mov    %eax,0x4(%edx)
    55f9:	eb e2                	jmp    0x55dd
    55fb:	89 fa                	mov    %edi,%edx
    55fd:	c1 e2 04             	shl    $0x4,%edx
    5600:	83 c2 20             	add    $0x20,%edx
    5603:	8b 0c bd 00 2c 01 00 	mov    0x12c00(,%edi,4),%ecx
    560a:	39 0d 00 2d 01 00    	cmp    %ecx,0x12d00
    5610:	74 19                	je     0x562b
    5612:	87 0d 00 2d 01 00    	xchg   %ecx,0x12d00
    5618:	66 89 54 24 08       	mov    %dx,0x8(%esp)
    561d:	ff 6c 24 04          	ljmp   *0x4(%esp)
    5621:	39 0d 00 69 01 00    	cmp    %ecx,0x16900
    5627:	75 02                	jne    0x562b
    5629:	0f 06                	clts   
    562b:	8b 44 24 0c          	mov    0xc(%esp),%eax
    562f:	65 33 05 14 00 00 00 	xor    %gs:0x14,%eax
    5636:	75 07                	jne    0x563f
    5638:	83 c4 10             	add    $0x10,%esp
    563b:	5b                   	pop    %ebx
    563c:	5e                   	pop    %esi
    563d:	5f                   	pop    %edi
    563e:	c3                   	ret    
    563f:	e8 62 0e 00 00       	call   0x64a6
    5644:	83 ec 0c             	sub    $0xc,%esp
    5647:	a1 00 2d 01 00       	mov    0x12d00,%eax
    564c:	c7 00 01 00 00 00    	movl   $0x1,(%eax)
    5652:	e8 df fe ff ff       	call   0x5536
    5657:	b8 00 00 00 00       	mov    $0x0,%eax
    565c:	83 c4 0c             	add    $0xc,%esp
    565f:	c3                   	ret    
    5660:	56                   	push   %esi
    5661:	53                   	push   %ebx
    5662:	83 ec 04             	sub    $0x4,%esp
    5665:	8b 5c 24 10          	mov    0x10(%esp),%ebx
    5669:	85 db                	test   %ebx,%ebx
    566b:	74 2f                	je     0x569c
    566d:	81 3d 00 2d 01 00 20 	cmpl   $0x12d20,0x12d00
    5674:	2d 01 00 
    5677:	74 29                	je     0x56a2
    5679:	8b 33                	mov    (%ebx),%esi
    567b:	a1 00 2d 01 00       	mov    0x12d00,%eax
    5680:	89 03                	mov    %eax,(%ebx)
    5682:	a1 00 2d 01 00       	mov    0x12d00,%eax
    5687:	c7 00 02 00 00 00    	movl   $0x2,(%eax)
    568d:	e8 a4 fe ff ff       	call   0x5536
    5692:	85 f6                	test   %esi,%esi
    5694:	74 06                	je     0x569c
    5696:	c7 06 00 00 00 00    	movl   $0x0,(%esi)
    569c:	83 c4 04             	add    $0x4,%esp
    569f:	5b                   	pop    %ebx
    56a0:	5e                   	pop    %esi
    56a1:	c3                   	ret    
    56a2:	83 ec 0c             	sub    $0xc,%esp
    56a5:	68 2e f1 00 00       	push   $0xf12e
    56aa:	e8 d4 0d 00 00       	call   0x6483
    56af:	83 c4 10             	add    $0x10,%esp
    56b2:	eb c5                	jmp    0x5679
    56b4:	56                   	push   %esi
    56b5:	53                   	push   %ebx
    56b6:	83 ec 04             	sub    $0x4,%esp
    56b9:	8b 5c 24 10          	mov    0x10(%esp),%ebx
    56bd:	85 db                	test   %ebx,%ebx
    56bf:	74 5d                	je     0x571e
    56c1:	81 3d 00 2d 01 00 20 	cmpl   $0x12d20,0x12d00
    56c8:	2d 01 00 
    56cb:	74 2f                	je     0x56fc
    56cd:	8b 33                	mov    (%ebx),%esi
    56cf:	a1 00 2d 01 00       	mov    0x12d00,%eax
    56d4:	89 03                	mov    %eax,(%ebx)
    56d6:	a1 00 2d 01 00       	mov    0x12d00,%eax
    56db:	c7 00 01 00 00 00    	movl   $0x1,(%eax)
    56e1:	e8 50 fe ff ff       	call   0x5536
    56e6:	8b 03                	mov    (%ebx),%eax
    56e8:	85 c0                	test   %eax,%eax
    56ea:	74 22                	je     0x570e
    56ec:	3b 05 00 2d 01 00    	cmp    0x12d00,%eax
    56f2:	74 1a                	je     0x570e
    56f4:	c7 00 00 00 00 00    	movl   $0x0,(%eax)
    56fa:	eb da                	jmp    0x56d6
    56fc:	83 ec 0c             	sub    $0xc,%esp
    56ff:	68 2e f1 00 00       	push   $0xf12e
    5704:	e8 7a 0d 00 00       	call   0x6483
    5709:	83 c4 10             	add    $0x10,%esp
    570c:	eb bf                	jmp    0x56cd
    570e:	c7 03 00 00 00 00    	movl   $0x0,(%ebx)
    5714:	85 f6                	test   %esi,%esi
    5716:	74 06                	je     0x571e
    5718:	c7 06 00 00 00 00    	movl   $0x0,(%esi)
    571e:	83 c4 04             	add    $0x4,%esp
    5721:	5b                   	pop    %ebx
    5722:	5e                   	pop    %esi
    5723:	c3                   	ret    
    5724:	8b 44 24 04          	mov    0x4(%esp),%eax
    5728:	85 c0                	test   %eax,%eax
    572a:	74 12                	je     0x573e
    572c:	8b 10                	mov    (%eax),%edx
    572e:	85 d2                	test   %edx,%edx
    5730:	74 0c                	je     0x573e
    5732:	c7 02 00 00 00 00    	movl   $0x0,(%edx)
    5738:	c7 00 00 00 00 00    	movl   $0x0,(%eax)
    573e:	c3                   	ret    
    573f:	83 ec 0c             	sub    $0xc,%esp
    5742:	83 7c 24 10 00       	cmpl   $0x0,0x10(%esp)
    5747:	74 1c                	je     0x5765
    5749:	a1 00 2d 01 00       	mov    0x12d00,%eax
    574e:	ff 80 cc 00 00 00    	incl   0xcc(%eax)
    5754:	8b 48 04             	mov    0x4(%eax),%ecx
    5757:	8d 51 ff             	lea    -0x1(%ecx),%edx
    575a:	85 d2                	test   %edx,%edx
    575c:	7e 2a                	jle    0x5788
    575e:	89 50 04             	mov    %edx,0x4(%eax)
    5761:	83 c4 0c             	add    $0xc,%esp
    5764:	c3                   	ret    
    5765:	a1 00 2d 01 00       	mov    0x12d00,%eax
    576a:	ff 80 d0 00 00 00    	incl   0xd0(%eax)
    5770:	8b 48 04             	mov    0x4(%eax),%ecx
    5773:	8d 51 ff             	lea    -0x1(%ecx),%edx
    5776:	85 d2                	test   %edx,%edx
    5778:	7f 09                	jg     0x5783
    577a:	c7 40 04 00 00 00 00 	movl   $0x0,0x4(%eax)
    5781:	eb de                	jmp    0x5761
    5783:	89 50 04             	mov    %edx,0x4(%eax)
    5786:	eb d9                	jmp    0x5761
    5788:	c7 40 04 00 00 00 00 	movl   $0x0,0x4(%eax)
    578f:	e8 a2 fd ff ff       	call   0x5536
    5794:	eb cb                	jmp    0x5761
    5796:	b8 80 2e 01 00       	mov    $0x12e80,%eax
    579b:	66 c7 05 98 48 00 00 	movw   $0x68,0x4898
    57a2:	68 00 
    57a4:	66 a3 9a 48 00 00    	mov    %ax,0x489a
    57aa:	c1 c8 10             	ror    $0x10,%eax
    57ad:	a2 9c 48 00 00       	mov    %al,0x489c
    57b2:	c6 05 9d 48 00 00 89 	movb   $0x89,0x489d
    57b9:	c6 05 9e 48 00 00 00 	movb   $0x0,0x489e
    57c0:	88 25 9f 48 00 00    	mov    %ah,0x489f
    57c6:	c1 c8 10             	ror    $0x10,%eax
    57c9:	b8 68 2e 01 00       	mov    $0x12e68,%eax
    57ce:	66 c7 05 a0 48 00 00 	movw   $0x68,0x48a0
    57d5:	68 00 
    57d7:	66 a3 a2 48 00 00    	mov    %ax,0x48a2
    57dd:	c1 c8 10             	ror    $0x10,%eax
    57e0:	a2 a4 48 00 00       	mov    %al,0x48a4
    57e5:	c6 05 a5 48 00 00 82 	movb   $0x82,0x48a5
    57ec:	c6 05 a6 48 00 00 00 	movb   $0x0,0x48a6
    57f3:	88 25 a7 48 00 00    	mov    %ah,0x48a7
    57f9:	c1 c8 10             	ror    $0x10,%eax
    57fc:	b8 00 00 00 00       	mov    $0x0,%eax
    5801:	c7 80 04 2c 01 00 00 	movl   $0x0,0x12c04(%eax)
    5808:	00 00 00 
    580b:	c7 04 85 ac 48 00 00 	movl   $0x0,0x48ac(,%eax,4)
    5812:	00 00 00 00 
    5816:	c7 04 85 a8 48 00 00 	movl   $0x0,0x48a8(,%eax,4)
    581d:	00 00 00 00 
    5821:	c7 04 85 b4 48 00 00 	movl   $0x0,0x48b4(,%eax,4)
    5828:	00 00 00 00 
    582c:	c7 04 85 b0 48 00 00 	movl   $0x0,0x48b0(,%eax,4)
    5833:	00 00 00 00 
    5837:	83 c0 04             	add    $0x4,%eax
    583a:	3d fc 00 00 00       	cmp    $0xfc,%eax
    583f:	75 c0                	jne    0x5801
    5841:	b8 20 00 00 00       	mov    $0x20,%eax
    5846:	0f 00 d8             	ltr    %ax
    5849:	b8 28 00 00 00       	mov    $0x28,%eax
    584e:	0f 00 d0             	lldt   %ax
    5851:	b8 36 00 00 00       	mov    $0x36,%eax
    5856:	ba 43 00 00 00       	mov    $0x43,%edx
    585b:	ee                   	out    %al,(%dx)
    585c:	eb 00                	jmp    0x585e
    585e:	eb 00                	jmp    0x5860
    5860:	ba 40 00 00 00       	mov    $0x40,%edx
    5865:	b8 9b 00 00 00       	mov    $0x9b,%eax
    586a:	ee                   	out    %al,(%dx)
    586b:	eb 00                	jmp    0x586d
    586d:	eb 00                	jmp    0x586f
    586f:	b8 2e 00 00 00       	mov    $0x2e,%eax
    5874:	ee                   	out    %al,(%dx)
    5875:	b9 00 00 08 00       	mov    $0x80000,%ecx
    587a:	ba ae 59 00 00       	mov    $0x59ae,%edx
    587f:	89 c8                	mov    %ecx,%eax
    5881:	66 89 d0             	mov    %dx,%ax
    5884:	66 ba 00 8e          	mov    $0x8e00,%dx
    5888:	a3 78 41 00 00       	mov    %eax,0x4178
    588d:	89 15 7c 41 00 00    	mov    %edx,0x417c
    5893:	ba 21 00 00 00       	mov    $0x21,%edx
    5898:	ec                   	in     (%dx),%al
    5899:	eb 00                	jmp    0x589b
    589b:	eb 00                	jmp    0x589d
    589d:	25 fe 00 00 00       	and    $0xfe,%eax
    58a2:	ee                   	out    %al,(%dx)
    58a3:	ba ce 58 00 00       	mov    $0x58ce,%edx
    58a8:	89 c8                	mov    %ecx,%eax
    58aa:	66 89 d0             	mov    %dx,%ax
    58ad:	66 ba 00 ef          	mov    $0xef00,%dx
    58b1:	a3 78 44 00 00       	mov    %eax,0x4478
    58b6:	89 15 7c 44 00 00    	mov    %edx,0x447c
    58bc:	c3                   	ret    
    58bd:	90                   	nop
    58be:	b8 ff ff ff ff       	mov    $0xffffffff,%eax
    58c3:	cf                   	iret   
    58c4:	68 02 59 00 00       	push   $0x5902
    58c9:	e9 68 fc ff ff       	jmp    0x5536
    58ce:	83 f8 42             	cmp    $0x42,%eax
    58d1:	77 eb                	ja     0x58be
    58d3:	1e                   	push   %ds
    58d4:	06                   	push   %es
    58d5:	0f a0                	push   %fs
    58d7:	52                   	push   %edx
    58d8:	51                   	push   %ecx
    58d9:	53                   	push   %ebx
    58da:	ba 10 00 00 00       	mov    $0x10,%edx
    58df:	8e da                	mov    %edx,%ds
    58e1:	8e c2                	mov    %edx,%es
    58e3:	ba 17 00 00 00       	mov    $0x17,%edx
    58e8:	8e e2                	mov    %edx,%fs
    58ea:	ff 14 85 20 3d 01 00 	call   *0x13d20(,%eax,4)
    58f1:	50                   	push   %eax
    58f2:	a1 00 2d 01 00       	mov    0x12d00,%eax
    58f7:	83 38 00             	cmpl   $0x0,(%eax)
    58fa:	75 c8                	jne    0x58c4
    58fc:	83 78 04 00          	cmpl   $0x0,0x4(%eax)
    5900:	74 c2                	je     0x58c4
    5902:	a1 00 2d 01 00       	mov    0x12d00,%eax
    5907:	3b 05 00 2c 01 00    	cmp    0x12c00,%eax
    590d:	0f 84 80 00 00 00    	je     0x5993
    5913:	8b 5c 24 20          	mov    0x20(%esp),%ebx
    5917:	f7 c3 03 00 00 00    	test   $0x3,%ebx
    591d:	74 74                	je     0x5993
    591f:	66 83 7c 24 2c 17    	cmpw   $0x17,0x2c(%esp)
    5925:	75 6c                	jne    0x5993
    5927:	8b 58 0c             	mov    0xc(%eax),%ebx
    592a:	0f bc cb             	bsf    %ebx,%ecx
    592d:	74 64                	je     0x5993
    592f:	0f b3 cb             	btr    %ecx,%ebx
    5932:	89 58 0c             	mov    %ebx,0xc(%eax)
    5935:	8b 5c 88 14          	mov    0x14(%eax,%ecx,4),%ebx
    5939:	83 fb 01             	cmp    $0x1,%ebx
    593c:	72 5e                	jb     0x599c
    593e:	74 e7                	je     0x5927
    5940:	c7 44 88 14 00 00 00 	movl   $0x0,0x14(%eax,%ecx,4)
    5947:	00 
    5948:	41                   	inc    %ecx
    5949:	87 5c 24 1c          	xchg   %ebx,0x1c(%esp)
    594d:	83 6c 24 28 1c       	subl   $0x1c,0x28(%esp)
    5952:	8b 54 24 28          	mov    0x28(%esp),%edx
    5956:	50                   	push   %eax
    5957:	51                   	push   %ecx
    5958:	6a 1c                	push   $0x1c
    595a:	52                   	push   %edx
    595b:	e8 e9 06 00 00       	call   0x6049
    5960:	5a                   	pop    %edx
    5961:	83 c4 04             	add    $0x4,%esp
    5964:	59                   	pop    %ecx
    5965:	58                   	pop    %eax
    5966:	8b 40 10             	mov    0x10(%eax),%eax
    5969:	64 89 02             	mov    %eax,%fs:(%edx)
    596c:	64 89 4a 04          	mov    %ecx,%fs:0x4(%edx)
    5970:	8b 04 24             	mov    (%esp),%eax
    5973:	64 89 42 08          	mov    %eax,%fs:0x8(%edx)
    5977:	8b 44 24 08          	mov    0x8(%esp),%eax
    597b:	64 89 42 0c          	mov    %eax,%fs:0xc(%edx)
    597f:	8b 44 24 0c          	mov    0xc(%esp),%eax
    5983:	64 89 42 10          	mov    %eax,%fs:0x10(%edx)
    5987:	8b 44 24 24          	mov    0x24(%esp),%eax
    598b:	64 89 42 14          	mov    %eax,%fs:0x14(%edx)
    598f:	64 89 5a 18          	mov    %ebx,%fs:0x18(%edx)
    5993:	58                   	pop    %eax
    5994:	5b                   	pop    %ebx
    5995:	59                   	pop    %ecx
    5996:	5a                   	pop    %edx
    5997:	0f a1                	pop    %fs
    5999:	07                   	pop    %es
    599a:	1f                   	pop    %ds
    599b:	cf                   	iret   
    599c:	41                   	inc    %ecx
    599d:	83 f9 11             	cmp    $0x11,%ecx
    59a0:	74 85                	je     0x5927
    59a2:	51                   	push   %ecx
    59a3:	e8 cc 3c 00 00       	call   0x9674
    59a8:	83 c4 04             	add    $0x4,%esp
    59ab:	eb e6                	jmp    0x5993
    59ad:	90                   	nop
    59ae:	1e                   	push   %ds
    59af:	06                   	push   %es
    59b0:	0f a0                	push   %fs
    59b2:	52                   	push   %edx
    59b3:	51                   	push   %ecx
    59b4:	53                   	push   %ebx
    59b5:	50                   	push   %eax
    59b6:	b8 10 00 00 00       	mov    $0x10,%eax
    59bb:	8e d8                	mov    %eax,%ds
    59bd:	8e c0                	mov    %eax,%es
    59bf:	b8 17 00 00 00       	mov    $0x17,%eax
    59c4:	8e e0                	mov    %eax,%fs
    59c6:	ff 05 08 69 01 00    	incl   0x16908
    59cc:	b0 20                	mov    $0x20,%al
    59ce:	e6 20                	out    %al,$0x20
    59d0:	8b 44 24 20          	mov    0x20(%esp),%eax
    59d4:	83 e0 03             	and    $0x3,%eax
    59d7:	50                   	push   %eax
    59d8:	e8 62 fd ff ff       	call   0x573f
    59dd:	83 c4 04             	add    $0x4,%esp
    59e0:	e9 1d ff ff ff       	jmp    0x5902
    59e5:	90                   	nop
    59e6:	8d 44 24 1c          	lea    0x1c(%esp),%eax
    59ea:	50                   	push   %eax
    59eb:	e8 7a 6a 00 00       	call   0xc46a
    59f0:	83 c4 04             	add    $0x4,%esp
    59f3:	c3                   	ret    
    59f4:	e8 1c 0a 00 00       	call   0x6415
    59f9:	85 c0                	test   %eax,%eax
    59fb:	78 0e                	js     0x5a0b
    59fd:	0f a8                	push   %gs
    59ff:	56                   	push   %esi
    5a00:	57                   	push   %edi
    5a01:	55                   	push   %ebp
    5a02:	50                   	push   %eax
    5a03:	e8 87 07 00 00       	call   0x618f
    5a08:	83 c4 14             	add    $0x14,%esp
    5a0b:	c3                   	ret    
    5a0c:	50                   	push   %eax
    5a0d:	51                   	push   %ecx
    5a0e:	52                   	push   %edx
    5a0f:	1e                   	push   %ds
    5a10:	06                   	push   %es
    5a11:	0f a0                	push   %fs
    5a13:	b8 10 00 00 00       	mov    $0x10,%eax
    5a18:	8e d8                	mov    %eax,%ds
    5a1a:	8e c0                	mov    %eax,%es
    5a1c:	b8 17 00 00 00       	mov    $0x17,%eax
    5a21:	8e e0                	mov    %eax,%fs
    5a23:	b0 20                	mov    $0x20,%al
    5a25:	e6 20                	out    %al,$0x20
    5a27:	eb 00                	jmp    0x5a29
    5a29:	eb 00                	jmp    0x5a2b
    5a2b:	e6 a0                	out    %al,$0xa0
    5a2d:	a1 c0 6d 01 00       	mov    0x16dc0,%eax
    5a32:	85 c0                	test   %eax,%eax
    5a34:	75 05                	jne    0x5a3b
    5a36:	b8 b5 8f 00 00       	mov    $0x8fb5,%eax
    5a3b:	ff d0                	call   *%eax
    5a3d:	0f a1                	pop    %fs
    5a3f:	07                   	pop    %es
    5a40:	1f                   	pop    %ds
    5a41:	5a                   	pop    %edx
    5a42:	59                   	pop    %ecx
    5a43:	58                   	pop    %eax
    5a44:	cf                   	iret   
    5a45:	57                   	push   %edi
    5a46:	56                   	push   %esi
    5a47:	53                   	push   %ebx
    5a48:	89 d3                	mov    %edx,%ebx
    5a4a:	89 d6                	mov    %edx,%esi
    5a4c:	83 ec 04             	sub    $0x4,%esp
    5a4f:	0f b7 c9             	movzwl %cx,%ecx
    5a52:	51                   	push   %ecx
    5a53:	50                   	push   %eax
    5a54:	68 46 f1 00 00       	push   $0xf146
    5a59:	e8 50 0a 00 00       	call   0x64ae
    5a5e:	83 c4 08             	add    $0x8,%esp
    5a61:	ff 73 0c             	pushl  0xc(%ebx)
    5a64:	ff 73 10             	pushl  0x10(%ebx)
    5a67:	ff 73 08             	pushl  0x8(%ebx)
    5a6a:	ff 33                	pushl  (%ebx)
    5a6c:	ff 73 04             	pushl  0x4(%ebx)
    5a6f:	68 1c f7 00 00       	push   $0xf71c
    5a74:	e8 35 0a 00 00       	call   0x64ae
    5a79:	66 8c e0             	mov    %fs,%ax
    5a7c:	83 c4 18             	add    $0x18,%esp
    5a7f:	0f b7 c0             	movzwl %ax,%eax
    5a82:	50                   	push   %eax
    5a83:	68 51 f1 00 00       	push   $0xf151
    5a88:	e8 21 0a 00 00       	call   0x64ae
    5a8d:	b8 17 00 00 00       	mov    $0x17,%eax
    5a92:	0f 03 c0             	lsl    %ax,%eax
    5a95:	40                   	inc    %eax
    5a96:	8b 15 00 2d 01 00    	mov    0x12d00,%edx
    5a9c:	8a b2 57 01 00 00    	mov    0x157(%edx),%dh
    5aa2:	8a 92 54 01 00 00    	mov    0x154(%edx),%dl
    5aa8:	c1 e2 10             	shl    $0x10,%edx
    5aab:	66 8b 92 52 01 00 00 	mov    0x152(%edx),%dx
    5ab2:	83 c4 0c             	add    $0xc,%esp
    5ab5:	50                   	push   %eax
    5ab6:	52                   	push   %edx
    5ab7:	68 5b f1 00 00       	push   $0xf15b
    5abc:	e8 ed 09 00 00       	call   0x64ae
    5ac1:	83 c4 10             	add    $0x10,%esp
    5ac4:	83 7b 10 17          	cmpl   $0x17,0x10(%ebx)
    5ac8:	74 7c                	je     0x5b46
    5aca:	b8 00 00 00 00       	mov    $0x0,%eax
    5acf:	66 0f 00 c8          	str    %ax
    5ad3:	83 e8 20             	sub    $0x20,%eax
    5ad6:	c1 e8 04             	shr    $0x4,%eax
    5ad9:	83 ec 04             	sub    $0x4,%esp
    5adc:	0f b7 c0             	movzwl %ax,%eax
    5adf:	50                   	push   %eax
    5ae0:	a1 00 2d 01 00       	mov    0x12d00,%eax
    5ae5:	ff b0 a8 00 00 00    	pushl  0xa8(%eax)
    5aeb:	68 7e f1 00 00       	push   $0xf17e
    5af0:	e8 b9 09 00 00       	call   0x64ae
    5af5:	83 c4 10             	add    $0x10,%esp
    5af8:	bb 00 00 00 00       	mov    $0x0,%ebx
    5afd:	8b 46 04             	mov    0x4(%esi),%eax
    5b00:	8b 16                	mov    (%esi),%edx
    5b02:	0f a0                	push   %fs
    5b04:	8e e0                	mov    %eax,%fs
    5b06:	64 8a 04 1a          	mov    %fs:(%edx,%ebx,1),%al
    5b0a:	0f a1                	pop    %fs
    5b0c:	83 ec 08             	sub    $0x8,%esp
    5b0f:	0f b6 c0             	movzbl %al,%eax
    5b12:	50                   	push   %eax
    5b13:	68 98 f1 00 00       	push   $0xf198
    5b18:	e8 91 09 00 00       	call   0x64ae
    5b1d:	43                   	inc    %ebx
    5b1e:	83 c4 10             	add    $0x10,%esp
    5b21:	83 fb 0a             	cmp    $0xa,%ebx
    5b24:	75 d7                	jne    0x5afd
    5b26:	83 ec 0c             	sub    $0xc,%esp
    5b29:	68 9e f1 00 00       	push   $0xf19e
    5b2e:	e8 7b 09 00 00       	call   0x64ae
    5b33:	c7 04 24 0b 00 00 00 	movl   $0xb,(%esp)
    5b3a:	e8 35 3b 00 00       	call   0x9674
    5b3f:	83 c4 10             	add    $0x10,%esp
    5b42:	5b                   	pop    %ebx
    5b43:	5e                   	pop    %esi
    5b44:	5f                   	pop    %edi
    5b45:	c3                   	ret    
    5b46:	83 ec 0c             	sub    $0xc,%esp
    5b49:	68 70 f1 00 00       	push   $0xf170
    5b4e:	e8 5b 09 00 00       	call   0x64ae
    5b53:	83 c4 10             	add    $0x10,%esp
    5b56:	bb 00 00 00 00       	mov    $0x0,%ebx
    5b5b:	bf 17 00 00 00       	mov    $0x17,%edi
    5b60:	8b 56 0c             	mov    0xc(%esi),%edx
    5b63:	89 f8                	mov    %edi,%eax
    5b65:	0f a0                	push   %fs
    5b67:	8e e0                	mov    %eax,%fs
    5b69:	64 8b 04 1a          	mov    %fs:(%edx,%ebx,1),%eax
    5b6d:	0f a1                	pop    %fs
    5b6f:	83 ec 08             	sub    $0x8,%esp
    5b72:	50                   	push   %eax
    5b73:	68 78 f1 00 00       	push   $0xf178
    5b78:	e8 31 09 00 00       	call   0x64ae
    5b7d:	83 c3 04             	add    $0x4,%ebx
    5b80:	83 c4 10             	add    $0x10,%esp
    5b83:	83 fb 10             	cmp    $0x10,%ebx
    5b86:	75 d8                	jne    0x5b60
    5b88:	83 ec 0c             	sub    $0xc,%esp
    5b8b:	68 7c f1 00 00       	push   $0xf17c
    5b90:	e8 19 09 00 00       	call   0x64ae
    5b95:	83 c4 10             	add    $0x10,%esp
    5b98:	e9 2d ff ff ff       	jmp    0x5aca
    5b9d:	83 ec 0c             	sub    $0xc,%esp
    5ba0:	8b 4c 24 14          	mov    0x14(%esp),%ecx
    5ba4:	8b 54 24 10          	mov    0x10(%esp),%edx
    5ba8:	b8 a1 f1 00 00       	mov    $0xf1a1,%eax
    5bad:	e8 93 fe ff ff       	call   0x5a45
    5bb2:	83 c4 0c             	add    $0xc,%esp
    5bb5:	c3                   	ret    
    5bb6:	83 ec 0c             	sub    $0xc,%esp
    5bb9:	8b 4c 24 14          	mov    0x14(%esp),%ecx
    5bbd:	8b 54 24 10          	mov    0x10(%esp),%edx
    5bc1:	b8 ae f1 00 00       	mov    $0xf1ae,%eax
    5bc6:	e8 7a fe ff ff       	call   0x5a45
    5bcb:	83 c4 0c             	add    $0xc,%esp
    5bce:	c3                   	ret    
    5bcf:	83 ec 0c             	sub    $0xc,%esp
    5bd2:	8b 4c 24 14          	mov    0x14(%esp),%ecx
    5bd6:	8b 54 24 10          	mov    0x10(%esp),%edx
    5bda:	b8 c1 f1 00 00       	mov    $0xf1c1,%eax
    5bdf:	e8 61 fe ff ff       	call   0x5a45
    5be4:	83 c4 0c             	add    $0xc,%esp
    5be7:	c3                   	ret    
    5be8:	56                   	push   %esi
    5be9:	53                   	push   %ebx
    5bea:	83 ec 10             	sub    $0x10,%esp
    5bed:	8b 5c 24 1c          	mov    0x1c(%esp),%ebx
    5bf1:	be 00 00 00 00       	mov    $0x0,%esi
    5bf6:	89 f0                	mov    %esi,%eax
    5bf8:	66 0f 00 c8          	str    %ax
    5bfc:	89 c6                	mov    %eax,%esi
    5bfe:	ff 74 24 3c          	pushl  0x3c(%esp)
    5c02:	ff 74 24 44          	pushl  0x44(%esp)
    5c06:	ff 74 24 4c          	pushl  0x4c(%esp)
    5c0a:	ff 74 24 54          	pushl  0x54(%esp)
    5c0e:	68 44 f7 00 00       	push   $0xf744
    5c13:	e8 96 08 00 00       	call   0x64ae
    5c18:	83 c4 14             	add    $0x14,%esp
    5c1b:	53                   	push   %ebx
    5c1c:	ff 74 24 34          	pushl  0x34(%esp)
    5c20:	ff 74 24 40          	pushl  0x40(%esp)
    5c24:	ff 74 24 40          	pushl  0x40(%esp)
    5c28:	68 6c f7 00 00       	push   $0xf76c
    5c2d:	e8 7c 08 00 00       	call   0x64ae
    5c32:	83 c4 14             	add    $0x14,%esp
    5c35:	56                   	push   %esi
    5c36:	ff 74 24 28          	pushl  0x28(%esp)
    5c3a:	ff 74 24 30          	pushl  0x30(%esp)
    5c3e:	ff 74 24 38          	pushl  0x38(%esp)
    5c42:	68 94 f7 00 00       	push   $0xf794
    5c47:	e8 62 08 00 00       	call   0x64ae
    5c4c:	83 c4 20             	add    $0x20,%esp
    5c4f:	ff 73 08             	pushl  0x8(%ebx)
    5c52:	ff 73 04             	pushl  0x4(%ebx)
    5c55:	ff 33                	pushl  (%ebx)
    5c57:	68 b8 f7 00 00       	push   $0xf7b8
    5c5c:	e8 4d 08 00 00       	call   0x64ae
    5c61:	83 c4 14             	add    $0x14,%esp
    5c64:	5b                   	pop    %ebx
    5c65:	5e                   	pop    %esi
    5c66:	c3                   	ret    
    5c67:	83 ec 0c             	sub    $0xc,%esp
    5c6a:	8b 4c 24 14          	mov    0x14(%esp),%ecx
    5c6e:	8b 54 24 10          	mov    0x10(%esp),%edx
    5c72:	b8 ce f1 00 00       	mov    $0xf1ce,%eax
    5c77:	e8 c9 fd ff ff       	call   0x5a45
    5c7c:	83 c4 0c             	add    $0xc,%esp
    5c7f:	c3                   	ret    
    5c80:	83 ec 0c             	sub    $0xc,%esp
    5c83:	8b 4c 24 14          	mov    0x14(%esp),%ecx
    5c87:	8b 54 24 10          	mov    0x10(%esp),%edx
    5c8b:	b8 d2 f1 00 00       	mov    $0xf1d2,%eax
    5c90:	e8 b0 fd ff ff       	call   0x5a45
    5c95:	83 c4 0c             	add    $0xc,%esp
    5c98:	c3                   	ret    
    5c99:	83 ec 0c             	sub    $0xc,%esp
    5c9c:	8b 4c 24 14          	mov    0x14(%esp),%ecx
    5ca0:	8b 54 24 10          	mov    0x10(%esp),%edx
    5ca4:	b8 d8 f1 00 00       	mov    $0xf1d8,%eax
    5ca9:	e8 97 fd ff ff       	call   0x5a45
    5cae:	83 c4 0c             	add    $0xc,%esp
    5cb1:	c3                   	ret    
    5cb2:	83 ec 0c             	sub    $0xc,%esp
    5cb5:	8b 4c 24 14          	mov    0x14(%esp),%ecx
    5cb9:	8b 54 24 10          	mov    0x10(%esp),%edx
    5cbd:	b8 e1 f1 00 00       	mov    $0xf1e1,%eax
    5cc2:	e8 7e fd ff ff       	call   0x5a45
    5cc7:	83 c4 0c             	add    $0xc,%esp
    5cca:	c3                   	ret    
    5ccb:	83 ec 0c             	sub    $0xc,%esp
    5cce:	8b 4c 24 14          	mov    0x14(%esp),%ecx
    5cd2:	8b 54 24 10          	mov    0x10(%esp),%edx
    5cd6:	b8 e8 f1 00 00       	mov    $0xf1e8,%eax
    5cdb:	e8 65 fd ff ff       	call   0x5a45
    5ce0:	83 c4 0c             	add    $0xc,%esp
    5ce3:	c3                   	ret    
    5ce4:	83 ec 0c             	sub    $0xc,%esp
    5ce7:	8b 4c 24 14          	mov    0x14(%esp),%ecx
    5ceb:	8b 54 24 10          	mov    0x10(%esp),%edx
    5cef:	b8 f8 f1 00 00       	mov    $0xf1f8,%eax
    5cf4:	e8 4c fd ff ff       	call   0x5a45
    5cf9:	83 c4 0c             	add    $0xc,%esp
    5cfc:	c3                   	ret    
    5cfd:	83 ec 0c             	sub    $0xc,%esp
    5d00:	8b 4c 24 14          	mov    0x14(%esp),%ecx
    5d04:	8b 54 24 10          	mov    0x10(%esp),%edx
    5d08:	b8 0d f2 00 00       	mov    $0xf20d,%eax
    5d0d:	e8 33 fd ff ff       	call   0x5a45
    5d12:	83 c4 0c             	add    $0xc,%esp
    5d15:	c3                   	ret    
    5d16:	83 ec 0c             	sub    $0xc,%esp
    5d19:	8b 4c 24 14          	mov    0x14(%esp),%ecx
    5d1d:	8b 54 24 10          	mov    0x10(%esp),%edx
    5d21:	b8 29 f2 00 00       	mov    $0xf229,%eax
    5d26:	e8 1a fd ff ff       	call   0x5a45
    5d2b:	83 c4 0c             	add    $0xc,%esp
    5d2e:	c3                   	ret    
    5d2f:	83 ec 0c             	sub    $0xc,%esp
    5d32:	8b 4c 24 14          	mov    0x14(%esp),%ecx
    5d36:	8b 54 24 10          	mov    0x10(%esp),%edx
    5d3a:	b8 35 f2 00 00       	mov    $0xf235,%eax
    5d3f:	e8 01 fd ff ff       	call   0x5a45
    5d44:	83 c4 0c             	add    $0xc,%esp
    5d47:	c3                   	ret    
    5d48:	83 ec 0c             	sub    $0xc,%esp
    5d4b:	8b 4c 24 14          	mov    0x14(%esp),%ecx
    5d4f:	8b 54 24 10          	mov    0x10(%esp),%edx
    5d53:	b8 49 f2 00 00       	mov    $0xf249,%eax
    5d58:	e8 e8 fc ff ff       	call   0x5a45
    5d5d:	83 c4 0c             	add    $0xc,%esp
    5d60:	c3                   	ret    
    5d61:	83 ec 0c             	sub    $0xc,%esp
    5d64:	8b 4c 24 14          	mov    0x14(%esp),%ecx
    5d68:	8b 54 24 10          	mov    0x10(%esp),%edx
    5d6c:	b8 57 f2 00 00       	mov    $0xf257,%eax
    5d71:	e8 cf fc ff ff       	call   0x5a45
    5d76:	83 c4 0c             	add    $0xc,%esp
    5d79:	c3                   	ret    
    5d7a:	83 ec 0c             	sub    $0xc,%esp
    5d7d:	8b 4c 24 14          	mov    0x14(%esp),%ecx
    5d81:	8b 54 24 10          	mov    0x10(%esp),%edx
    5d85:	b8 69 f2 00 00       	mov    $0xf269,%eax
    5d8a:	e8 b6 fc ff ff       	call   0x5a45
    5d8f:	83 c4 0c             	add    $0xc,%esp
    5d92:	c3                   	ret    
    5d93:	53                   	push   %ebx
    5d94:	b8 00 00 08 00       	mov    $0x80000,%eax
    5d99:	ba 44 5f 00 00       	mov    $0x5f44,%edx
    5d9e:	66 89 d0             	mov    %dx,%ax
    5da1:	66 ba 00 8f          	mov    $0x8f00,%dx
    5da5:	a3 78 40 00 00       	mov    %eax,0x4078
    5daa:	89 15 7c 40 00 00    	mov    %edx,0x407c
    5db0:	ba 79 5f 00 00       	mov    $0x5f79,%edx
    5db5:	66 89 d0             	mov    %dx,%ax
    5db8:	66 ba 00 8f          	mov    $0x8f00,%dx
    5dbc:	a3 80 40 00 00       	mov    %eax,0x4080
    5dc1:	89 15 84 40 00 00    	mov    %edx,0x4084
    5dc7:	ba 80 5f 00 00       	mov    $0x5f80,%edx
    5dcc:	66 89 d0             	mov    %dx,%ax
    5dcf:	66 ba 00 8f          	mov    $0x8f00,%dx
    5dd3:	a3 88 40 00 00       	mov    %eax,0x4088
    5dd8:	89 15 8c 40 00 00    	mov    %edx,0x408c
    5dde:	ba 87 5f 00 00       	mov    $0x5f87,%edx
    5de3:	66 89 d0             	mov    %dx,%ax
    5de6:	66 ba 00 ef          	mov    $0xef00,%dx
    5dea:	a3 90 40 00 00       	mov    %eax,0x4090
    5def:	89 15 94 40 00 00    	mov    %edx,0x4094
    5df5:	ba 8e 5f 00 00       	mov    $0x5f8e,%edx
    5dfa:	66 89 d0             	mov    %dx,%ax
    5dfd:	66 ba 00 ef          	mov    $0xef00,%dx
    5e01:	a3 98 40 00 00       	mov    %eax,0x4098
    5e06:	89 15 9c 40 00 00    	mov    %edx,0x409c
    5e0c:	ba 95 5f 00 00       	mov    $0x5f95,%edx
    5e11:	66 89 d0             	mov    %dx,%ax
    5e14:	66 ba 00 ef          	mov    $0xef00,%dx
    5e18:	a3 a0 40 00 00       	mov    %eax,0x40a0
    5e1d:	89 15 a4 40 00 00    	mov    %edx,0x40a4
    5e23:	ba 9c 5f 00 00       	mov    $0x5f9c,%edx
    5e28:	66 89 d0             	mov    %dx,%ax
    5e2b:	66 ba 00 8f          	mov    $0x8f00,%dx
    5e2f:	a3 a8 40 00 00       	mov    %eax,0x40a8
    5e34:	89 15 ac 40 00 00    	mov    %edx,0x40ac
    5e3a:	ba ab 5f 00 00       	mov    $0x5fab,%edx
    5e3f:	66 89 d0             	mov    %dx,%ax
    5e42:	66 ba 00 8f          	mov    $0x8f00,%dx
    5e46:	a3 b0 40 00 00       	mov    %eax,0x40b0
    5e4b:	89 15 b4 40 00 00    	mov    %edx,0x40b4
    5e51:	ba f6 5f 00 00       	mov    $0x5ff6,%edx
    5e56:	66 89 d0             	mov    %dx,%ax
    5e59:	66 ba 00 8f          	mov    $0x8f00,%dx
    5e5d:	a3 b8 40 00 00       	mov    %eax,0x40b8
    5e62:	89 15 bc 40 00 00    	mov    %edx,0x40bc
    5e68:	ba d8 5f 00 00       	mov    $0x5fd8,%edx
    5e6d:	66 89 d0             	mov    %dx,%ax
    5e70:	66 ba 00 8f          	mov    $0x8f00,%dx
    5e74:	a3 c0 40 00 00       	mov    %eax,0x40c0
    5e79:	89 15 c4 40 00 00    	mov    %edx,0x40c4
    5e7f:	ba 2d 60 00 00       	mov    $0x602d,%edx
    5e84:	66 89 d0             	mov    %dx,%ax
    5e87:	66 ba 00 8f          	mov    $0x8f00,%dx
    5e8b:	a3 c8 40 00 00       	mov    %eax,0x40c8
    5e90:	89 15 cc 40 00 00    	mov    %edx,0x40cc
    5e96:	ba 34 60 00 00       	mov    $0x6034,%edx
    5e9b:	66 89 d0             	mov    %dx,%ax
    5e9e:	66 ba 00 8f          	mov    $0x8f00,%dx
    5ea2:	a3 d0 40 00 00       	mov    %eax,0x40d0
    5ea7:	89 15 d4 40 00 00    	mov    %edx,0x40d4
    5ead:	ba 3b 60 00 00       	mov    $0x603b,%edx
    5eb2:	66 89 d0             	mov    %dx,%ax
    5eb5:	66 ba 00 8f          	mov    $0x8f00,%dx
    5eb9:	a3 d8 40 00 00       	mov    %eax,0x40d8
    5ebe:	89 15 dc 40 00 00    	mov    %edx,0x40dc
    5ec4:	ba 42 60 00 00       	mov    $0x6042,%edx
    5ec9:	66 89 d0             	mov    %dx,%ax
    5ecc:	66 ba 00 8f          	mov    $0x8f00,%dx
    5ed0:	a3 e0 40 00 00       	mov    %eax,0x40e0
    5ed5:	89 15 e4 40 00 00    	mov    %edx,0x40e4
    5edb:	ba 90 9f 00 00       	mov    $0x9f90,%edx
    5ee0:	66 89 d0             	mov    %dx,%ax
    5ee3:	66 ba 00 8f          	mov    $0x8f00,%dx
    5ee7:	a3 e8 40 00 00       	mov    %eax,0x40e8
    5eec:	89 15 ec 40 00 00    	mov    %edx,0x40ec
    5ef2:	ba e2 5f 00 00       	mov    $0x5fe2,%edx
    5ef7:	66 89 d0             	mov    %dx,%ax
    5efa:	66 ba 00 8f          	mov    $0x8f00,%dx
    5efe:	a3 f0 40 00 00       	mov    %eax,0x40f0
    5f03:	89 15 f4 40 00 00    	mov    %edx,0x40f4
    5f09:	ba ec 5f 00 00       	mov    $0x5fec,%edx
    5f0e:	66 89 d0             	mov    %dx,%ax
    5f11:	66 ba 00 8f          	mov    $0x8f00,%dx
    5f15:	a3 f8 40 00 00       	mov    %eax,0x40f8
    5f1a:	89 15 fc 40 00 00    	mov    %edx,0x40fc
    5f20:	b9 00 41 00 00       	mov    $0x4100,%ecx
    5f25:	bb 78 41 00 00       	mov    $0x4178,%ebx
    5f2a:	ba e2 5f 00 00       	mov    $0x5fe2,%edx
    5f2f:	66 89 d0             	mov    %dx,%ax
    5f32:	66 ba 00 8f          	mov    $0x8f00,%dx
    5f36:	89 01                	mov    %eax,(%ecx)
    5f38:	89 51 04             	mov    %edx,0x4(%ecx)
    5f3b:	83 c1 08             	add    $0x8,%ecx
    5f3e:	39 d9                	cmp    %ebx,%ecx
    5f40:	75 ed                	jne    0x5f2f
    5f42:	5b                   	pop    %ebx
    5f43:	c3                   	ret    
    5f44:	68 cf 5b 00 00       	push   $0x5bcf
    5f49:	87 04 24             	xchg   %eax,(%esp)
    5f4c:	53                   	push   %ebx
    5f4d:	51                   	push   %ecx
    5f4e:	52                   	push   %edx
    5f4f:	57                   	push   %edi
    5f50:	56                   	push   %esi
    5f51:	55                   	push   %ebp
    5f52:	1e                   	push   %ds
    5f53:	06                   	push   %es
    5f54:	0f a0                	push   %fs
    5f56:	6a 00                	push   $0x0
    5f58:	8d 54 24 2c          	lea    0x2c(%esp),%edx
    5f5c:	52                   	push   %edx
    5f5d:	ba 10 00 00 00       	mov    $0x10,%edx
    5f62:	8e da                	mov    %edx,%ds
    5f64:	8e c2                	mov    %edx,%es
    5f66:	8e e2                	mov    %edx,%fs
    5f68:	ff d0                	call   *%eax
    5f6a:	83 c4 08             	add    $0x8,%esp
    5f6d:	0f a1                	pop    %fs
    5f6f:	07                   	pop    %es
    5f70:	1f                   	pop    %ds
    5f71:	5d                   	pop    %ebp
    5f72:	5e                   	pop    %esi
    5f73:	5f                   	pop    %edi
    5f74:	5a                   	pop    %edx
    5f75:	59                   	pop    %ecx
    5f76:	5b                   	pop    %ebx
    5f77:	58                   	pop    %eax
    5f78:	cf                   	iret   
    5f79:	68 e8 5b 00 00       	push   $0x5be8
    5f7e:	eb c9                	jmp    0x5f49
    5f80:	68 67 5c 00 00       	push   $0x5c67
    5f85:	eb c2                	jmp    0x5f49
    5f87:	68 e8 5b 00 00       	push   $0x5be8
    5f8c:	eb bb                	jmp    0x5f49
    5f8e:	68 99 5c 00 00       	push   $0x5c99
    5f93:	eb b4                	jmp    0x5f49
    5f95:	68 b2 5c 00 00       	push   $0x5cb2
    5f9a:	eb ad                	jmp    0x5f49
    5f9c:	68 cb 5c 00 00       	push   $0x5ccb
    5fa1:	eb a6                	jmp    0x5f49
    5fa3:	58                   	pop    %eax
    5fa4:	68 e4 5c 00 00       	push   $0x5ce4
    5fa9:	eb 9e                	jmp    0x5f49
    5fab:	50                   	push   %eax
    5fac:	0f 20 c0             	mov    %cr0,%eax
    5faf:	0f ba e0 02          	bt     $0x2,%eax
    5fb3:	72 ee                	jb     0x5fa3
    5fb5:	0f 06                	clts   
    5fb7:	a1 00 2d 01 00       	mov    0x12d00,%eax
    5fbc:	3b 05 00 69 01 00    	cmp    0x16900,%eax
    5fc2:	74 12                	je     0x5fd6
    5fc4:	51                   	push   %ecx
    5fc5:	52                   	push   %edx
    5fc6:	1e                   	push   %ds
    5fc7:	b8 10 00 00 00       	mov    $0x10,%eax
    5fcc:	8e d8                	mov    %eax,%ds
    5fce:	e8 2c f5 ff ff       	call   0x54ff
    5fd3:	1f                   	pop    %ds
    5fd4:	5a                   	pop    %edx
    5fd5:	59                   	pop    %ecx
    5fd6:	58                   	pop    %eax
    5fd7:	cf                   	iret   
    5fd8:	68 fd 5c 00 00       	push   $0x5cfd
    5fdd:	e9 67 ff ff ff       	jmp    0x5f49
    5fe2:	68 7a 5d 00 00       	push   $0x5d7a
    5fe7:	e9 5d ff ff ff       	jmp    0x5f49
    5fec:	68 61 5d 00 00       	push   $0x5d61
    5ff1:	e9 53 ff ff ff       	jmp    0x5f49
    5ff6:	68 9d 5b 00 00       	push   $0x5b9d
    5ffb:	87 44 24 04          	xchg   %eax,0x4(%esp)
    5fff:	87 1c 24             	xchg   %ebx,(%esp)
    6002:	51                   	push   %ecx
    6003:	52                   	push   %edx
    6004:	57                   	push   %edi
    6005:	56                   	push   %esi
    6006:	55                   	push   %ebp
    6007:	1e                   	push   %ds
    6008:	06                   	push   %es
    6009:	0f a0                	push   %fs
    600b:	50                   	push   %eax
    600c:	8d 44 24 2c          	lea    0x2c(%esp),%eax
    6010:	50                   	push   %eax
    6011:	b8 10 00 00 00       	mov    $0x10,%eax
    6016:	8e d8                	mov    %eax,%ds
    6018:	8e c0                	mov    %eax,%es
    601a:	8e e0                	mov    %eax,%fs
    601c:	ff d3                	call   *%ebx
    601e:	83 c4 08             	add    $0x8,%esp
    6021:	0f a1                	pop    %fs
    6023:	07                   	pop    %es
    6024:	1f                   	pop    %ds
    6025:	5d                   	pop    %ebp
    6026:	5e                   	pop    %esi
    6027:	5f                   	pop    %edi
    6028:	5a                   	pop    %edx
    6029:	59                   	pop    %ecx
    602a:	5b                   	pop    %ebx
    602b:	58                   	pop    %eax
    602c:	cf                   	iret   
    602d:	68 16 5d 00 00       	push   $0x5d16
    6032:	eb c7                	jmp    0x5ffb
    6034:	68 2f 5d 00 00       	push   $0x5d2f
    6039:	eb c0                	jmp    0x5ffb
    603b:	68 48 5d 00 00       	push   $0x5d48
    6040:	eb b9                	jmp    0x5ffb
    6042:	68 b6 5b 00 00       	push   $0x5bb6
    6047:	eb b2                	jmp    0x5ffb
    6049:	56                   	push   %esi
    604a:	53                   	push   %ebx
    604b:	83 ec 04             	sub    $0x4,%esp
    604e:	8b 5c 24 10          	mov    0x10(%esp),%ebx
    6052:	89 d8                	mov    %ebx,%eax
    6054:	25 ff 0f 00 00       	and    $0xfff,%eax
    6059:	03 44 24 14          	add    0x14(%esp),%eax
    605d:	81 e3 00 f0 ff ff    	and    $0xfffff000,%ebx
    6063:	8b 15 00 2d 01 00    	mov    0x12d00,%edx
    6069:	8a b2 5f 01 00 00    	mov    0x15f(%edx),%dh
    606f:	8a 92 5c 01 00 00    	mov    0x15c(%edx),%dl
    6075:	c1 e2 10             	shl    $0x10,%edx
    6078:	66 8b 92 5a 01 00 00 	mov    0x15a(%edx),%dx
    607f:	01 d3                	add    %edx,%ebx
    6081:	85 c0                	test   %eax,%eax
    6083:	7e 23                	jle    0x60a8
    6085:	48                   	dec    %eax
    6086:	25 00 f0 ff ff       	and    $0xfffff000,%eax
    608b:	8d b4 03 00 10 00 00 	lea    0x1000(%ebx,%eax,1),%esi
    6092:	83 ec 0c             	sub    $0xc,%esp
    6095:	53                   	push   %ebx
    6096:	e8 eb 3d 00 00       	call   0x9e86
    609b:	81 c3 00 10 00 00    	add    $0x1000,%ebx
    60a1:	83 c4 10             	add    $0x10,%esp
    60a4:	39 f3                	cmp    %esi,%ebx
    60a6:	75 ea                	jne    0x6092
    60a8:	83 c4 04             	add    $0x4,%esp
    60ab:	5b                   	pop    %ebx
    60ac:	5e                   	pop    %esi
    60ad:	c3                   	ret    
    60ae:	55                   	push   %ebp
    60af:	57                   	push   %edi
    60b0:	56                   	push   %esi
    60b1:	53                   	push   %ebx
    60b2:	83 ec 0c             	sub    $0xc,%esp
    60b5:	8b 5c 24 24          	mov    0x24(%esp),%ebx
    60b9:	bf 0f 00 00 00       	mov    $0xf,%edi
    60be:	0f 03 ff             	lsl    %di,%edi
    60c1:	47                   	inc    %edi
    60c2:	be 17 00 00 00       	mov    $0x17,%esi
    60c7:	0f 03 f6             	lsl    %si,%esi
    60ca:	46                   	inc    %esi
    60cb:	a1 00 2d 01 00       	mov    0x12d00,%eax
    60d0:	8a b0 57 01 00 00    	mov    0x157(%eax),%dh
    60d6:	8a 90 54 01 00 00    	mov    0x154(%eax),%dl
    60dc:	c1 e2 10             	shl    $0x10,%edx
    60df:	66 8b 90 52 01 00 00 	mov    0x152(%eax),%dx
    60e6:	89 d1                	mov    %edx,%ecx
    60e8:	8a b0 5f 01 00 00    	mov    0x15f(%eax),%dh
    60ee:	8a 90 5c 01 00 00    	mov    0x15c(%eax),%dl
    60f4:	c1 e2 10             	shl    $0x10,%edx
    60f7:	66 8b 90 5a 01 00 00 	mov    0x15a(%eax),%dx
    60fe:	89 d5                	mov    %edx,%ebp
    6100:	39 d1                	cmp    %edx,%ecx
    6102:	75 53                	jne    0x6157
    6104:	39 f7                	cmp    %esi,%edi
    6106:	77 61                	ja     0x6169
    6108:	8b 7c 24 20          	mov    0x20(%esp),%edi
    610c:	c1 e7 1a             	shl    $0x1a,%edi
    610f:	89 fa                	mov    %edi,%edx
    6111:	66 89 93 52 01 00 00 	mov    %dx,0x152(%ebx)
    6118:	c1 ca 10             	ror    $0x10,%edx
    611b:	88 93 54 01 00 00    	mov    %dl,0x154(%ebx)
    6121:	88 b3 57 01 00 00    	mov    %dh,0x157(%ebx)
    6127:	66 89 93 5a 01 00 00 	mov    %dx,0x15a(%ebx)
    612e:	c1 ca 10             	ror    $0x10,%edx
    6131:	88 93 5c 01 00 00    	mov    %dl,0x15c(%ebx)
    6137:	88 b3 5f 01 00 00    	mov    %dh,0x15f(%ebx)
    613d:	83 ec 04             	sub    $0x4,%esp
    6140:	56                   	push   %esi
    6141:	57                   	push   %edi
    6142:	55                   	push   %ebp
    6143:	e8 e4 3a 00 00       	call   0x9c2c
    6148:	83 c4 10             	add    $0x10,%esp
    614b:	85 c0                	test   %eax,%eax
    614d:	75 2c                	jne    0x617b
    614f:	83 c4 0c             	add    $0xc,%esp
    6152:	5b                   	pop    %ebx
    6153:	5e                   	pop    %esi
    6154:	5f                   	pop    %edi
    6155:	5d                   	pop    %ebp
    6156:	c3                   	ret    
    6157:	83 ec 0c             	sub    $0xc,%esp
    615a:	68 83 f2 00 00       	push   $0xf283
    615f:	e8 1f 03 00 00       	call   0x6483
    6164:	83 c4 10             	add    $0x10,%esp
    6167:	eb 9b                	jmp    0x6104
    6169:	83 ec 0c             	sub    $0xc,%esp
    616c:	68 a1 f2 00 00       	push   $0xf2a1
    6171:	e8 0d 03 00 00       	call   0x6483
    6176:	83 c4 10             	add    $0x10,%esp
    6179:	eb 8d                	jmp    0x6108
    617b:	83 ec 08             	sub    $0x8,%esp
    617e:	56                   	push   %esi
    617f:	57                   	push   %edi
    6180:	e8 de 39 00 00       	call   0x9b63
    6185:	83 c4 10             	add    $0x10,%esp
    6188:	b8 f4 ff ff ff       	mov    $0xfffffff4,%eax
    618d:	eb c0                	jmp    0x614f
    618f:	55                   	push   %ebp
    6190:	57                   	push   %edi
    6191:	56                   	push   %esi
    6192:	53                   	push   %ebx
    6193:	83 ec 0c             	sub    $0xc,%esp
    6196:	8b 6c 24 20          	mov    0x20(%esp),%ebp
    619a:	e8 2c 39 00 00       	call   0x9acb
    619f:	89 c3                	mov    %eax,%ebx
    61a1:	85 c0                	test   %eax,%eax
    61a3:	0f 84 65 02 00 00    	je     0x640e
    61a9:	8b 35 00 2d 01 00    	mov    0x12d00,%esi
    61af:	b9 8d 00 00 00       	mov    $0x8d,%ecx
    61b4:	89 c7                	mov    %eax,%edi
    61b6:	f3 a5                	rep movsl %ds:(%esi),%es:(%edi)
    61b8:	c7 00 00 00 00 00    	movl   $0x0,(%eax)
    61be:	a1 0c 69 01 00       	mov    0x1690c,%eax
    61c3:	89 83 a8 00 00 00    	mov    %eax,0xa8(%ebx)
    61c9:	8b 15 00 2d 01 00    	mov    0x12d00,%edx
    61cf:	8b 82 a8 00 00 00    	mov    0xa8(%edx),%eax
    61d5:	89 83 ac 00 00 00    	mov    %eax,0xac(%ebx)
    61db:	8b 43 08             	mov    0x8(%ebx),%eax
    61de:	89 43 04             	mov    %eax,0x4(%ebx)
    61e1:	c7 43 0c 00 00 00 00 	movl   $0x0,0xc(%ebx)
    61e8:	c7 83 c8 00 00 00 00 	movl   $0x0,0xc8(%ebx)
    61ef:	00 00 00 
    61f2:	c7 83 b8 00 00 00 00 	movl   $0x0,0xb8(%ebx)
    61f9:	00 00 00 
    61fc:	c7 83 d0 00 00 00 00 	movl   $0x0,0xd0(%ebx)
    6203:	00 00 00 
    6206:	c7 83 cc 00 00 00 00 	movl   $0x0,0xcc(%ebx)
    620d:	00 00 00 
    6210:	c7 83 d8 00 00 00 00 	movl   $0x0,0xd8(%ebx)
    6217:	00 00 00 
    621a:	c7 83 d4 00 00 00 00 	movl   $0x0,0xd4(%ebx)
    6221:	00 00 00 
    6224:	a1 08 69 01 00       	mov    0x16908,%eax
    6229:	89 83 dc 00 00 00    	mov    %eax,0xdc(%ebx)
    622f:	c7 83 60 01 00 00 00 	movl   $0x0,0x160(%ebx)
    6236:	00 00 00 
    6239:	8d 83 00 10 00 00    	lea    0x1000(%ebx),%eax
    623f:	89 83 64 01 00 00    	mov    %eax,0x164(%ebx)
    6245:	c7 83 68 01 00 00 10 	movl   $0x10,0x168(%ebx)
    624c:	00 00 00 
    624f:	8b 44 24 50          	mov    0x50(%esp),%eax
    6253:	89 83 80 01 00 00    	mov    %eax,0x180(%ebx)
    6259:	8b 44 24 58          	mov    0x58(%esp),%eax
    625d:	89 83 84 01 00 00    	mov    %eax,0x184(%ebx)
    6263:	c7 83 88 01 00 00 00 	movl   $0x0,0x188(%ebx)
    626a:	00 00 00 
    626d:	8b 44 24 3c          	mov    0x3c(%esp),%eax
    6271:	89 83 8c 01 00 00    	mov    %eax,0x18c(%ebx)
    6277:	8b 44 24 40          	mov    0x40(%esp),%eax
    627b:	89 83 90 01 00 00    	mov    %eax,0x190(%ebx)
    6281:	8b 44 24 38          	mov    0x38(%esp),%eax
    6285:	89 83 94 01 00 00    	mov    %eax,0x194(%ebx)
    628b:	8b 44 24 5c          	mov    0x5c(%esp),%eax
    628f:	89 83 98 01 00 00    	mov    %eax,0x198(%ebx)
    6295:	8b 44 24 24          	mov    0x24(%esp),%eax
    6299:	89 83 9c 01 00 00    	mov    %eax,0x19c(%ebx)
    629f:	8b 44 24 2c          	mov    0x2c(%esp),%eax
    62a3:	89 83 a0 01 00 00    	mov    %eax,0x1a0(%ebx)
    62a9:	8b 44 24 28          	mov    0x28(%esp),%eax
    62ad:	89 83 a4 01 00 00    	mov    %eax,0x1a4(%ebx)
    62b3:	0f b7 44 24 48       	movzwl 0x48(%esp),%eax
    62b8:	89 83 a8 01 00 00    	mov    %eax,0x1a8(%ebx)
    62be:	0f b7 44 24 54       	movzwl 0x54(%esp),%eax
    62c3:	89 83 ac 01 00 00    	mov    %eax,0x1ac(%ebx)
    62c9:	0f b7 44 24 60       	movzwl 0x60(%esp),%eax
    62ce:	89 83 b0 01 00 00    	mov    %eax,0x1b0(%ebx)
    62d4:	0f b7 44 24 4c       	movzwl 0x4c(%esp),%eax
    62d9:	89 83 b4 01 00 00    	mov    %eax,0x1b4(%ebx)
    62df:	0f b7 44 24 44       	movzwl 0x44(%esp),%eax
    62e4:	89 83 b8 01 00 00    	mov    %eax,0x1b8(%ebx)
    62ea:	0f b7 44 24 30       	movzwl 0x30(%esp),%eax
    62ef:	89 83 bc 01 00 00    	mov    %eax,0x1bc(%ebx)
    62f5:	89 e8                	mov    %ebp,%eax
    62f7:	c1 e0 04             	shl    $0x4,%eax
    62fa:	83 c0 28             	add    $0x28,%eax
    62fd:	89 83 c0 01 00 00    	mov    %eax,0x1c0(%ebx)
    6303:	c7 83 c4 01 00 00 00 	movl   $0x80000000,0x1c4(%ebx)
    630a:	00 00 80 
    630d:	3b 15 00 69 01 00    	cmp    0x16900,%edx
    6313:	74 1f                	je     0x6334
    6315:	83 ec 08             	sub    $0x8,%esp
    6318:	53                   	push   %ebx
    6319:	55                   	push   %ebp
    631a:	e8 8f fd ff ff       	call   0x60ae
    631f:	83 c4 10             	add    $0x10,%esp
    6322:	85 c0                	test   %eax,%eax
    6324:	75 16                	jne    0x633c
    6326:	8d 83 f8 00 00 00    	lea    0xf8(%ebx),%eax
    632c:	8d 8b 48 01 00 00    	lea    0x148(%ebx),%ecx
    6332:	eb 25                	jmp    0x6359
    6334:	dd b3 c8 01 00 00    	fnsave 0x1c8(%ebx)
    633a:	eb d9                	jmp    0x6315
    633c:	83 ec 0c             	sub    $0xc,%esp
    633f:	53                   	push   %ebx
    6340:	e8 be 37 00 00       	call   0x9b03
    6345:	83 c4 10             	add    $0x10,%esp
    6348:	b8 f5 ff ff ff       	mov    $0xfffffff5,%eax
    634d:	e9 b4 00 00 00       	jmp    0x6406
    6352:	83 c0 04             	add    $0x4,%eax
    6355:	39 c8                	cmp    %ecx,%eax
    6357:	74 0c                	je     0x6365
    6359:	8b 10                	mov    (%eax),%edx
    635b:	85 d2                	test   %edx,%edx
    635d:	74 f3                	je     0x6352
    635f:	66 ff 42 04          	incw   0x4(%edx)
    6363:	eb ed                	jmp    0x6352
    6365:	8b 15 00 2d 01 00    	mov    0x12d00,%edx
    636b:	8b 82 ec 00 00 00    	mov    0xec(%edx),%eax
    6371:	85 c0                	test   %eax,%eax
    6373:	74 04                	je     0x6379
    6375:	66 ff 40 30          	incw   0x30(%eax)
    6379:	8b 82 f0 00 00 00    	mov    0xf0(%edx),%eax
    637f:	85 c0                	test   %eax,%eax
    6381:	74 04                	je     0x6387
    6383:	66 ff 40 30          	incw   0x30(%eax)
    6387:	8d 54 2d 04          	lea    0x4(%ebp,%ebp,1),%edx
    638b:	c1 e2 03             	shl    $0x3,%edx
    638e:	8d 83 60 01 00 00    	lea    0x160(%ebx),%eax
    6394:	66 c7 82 78 48 00 00 	movw   $0x68,0x4878(%edx)
    639b:	68 00 
    639d:	66 89 82 7a 48 00 00 	mov    %ax,0x487a(%edx)
    63a4:	c1 c8 10             	ror    $0x10,%eax
    63a7:	88 82 7c 48 00 00    	mov    %al,0x487c(%edx)
    63ad:	c6 82 7d 48 00 00 89 	movb   $0x89,0x487d(%edx)
    63b4:	c6 82 7e 48 00 00 00 	movb   $0x0,0x487e(%edx)
    63bb:	88 a2 7f 48 00 00    	mov    %ah,0x487f(%edx)
    63c1:	c1 c8 10             	ror    $0x10,%eax
    63c4:	8d 83 48 01 00 00    	lea    0x148(%ebx),%eax
    63ca:	66 c7 82 80 48 00 00 	movw   $0x68,0x4880(%edx)
    63d1:	68 00 
    63d3:	66 89 82 82 48 00 00 	mov    %ax,0x4882(%edx)
    63da:	c1 c8 10             	ror    $0x10,%eax
    63dd:	88 82 84 48 00 00    	mov    %al,0x4884(%edx)
    63e3:	c6 82 85 48 00 00 82 	movb   $0x82,0x4885(%edx)
    63ea:	c6 82 86 48 00 00 00 	movb   $0x0,0x4886(%edx)
    63f1:	88 a2 87 48 00 00    	mov    %ah,0x4887(%edx)
    63f7:	c1 c8 10             	ror    $0x10,%eax
    63fa:	89 1c ad 00 2c 01 00 	mov    %ebx,0x12c00(,%ebp,4)
    6401:	a1 0c 69 01 00       	mov    0x1690c,%eax
    6406:	83 c4 0c             	add    $0xc,%esp
    6409:	5b                   	pop    %ebx
    640a:	5e                   	pop    %esi
    640b:	5f                   	pop    %edi
    640c:	5d                   	pop    %ebp
    640d:	c3                   	ret    
    640e:	b8 f5 ff ff ff       	mov    $0xfffffff5,%eax
    6413:	eb f1                	jmp    0x6406
    6415:	56                   	push   %esi
    6416:	53                   	push   %ebx
    6417:	8b 15 0c 69 01 00    	mov    0x1690c,%edx
    641d:	be 01 00 00 00       	mov    $0x1,%esi
    6422:	b9 00 2d 01 00       	mov    $0x12d00,%ecx
    6427:	eb 1b                	jmp    0x6444
    6429:	89 f3                	mov    %esi,%ebx
    642b:	eb 1c                	jmp    0x6449
    642d:	83 c0 04             	add    $0x4,%eax
    6430:	39 c8                	cmp    %ecx,%eax
    6432:	74 1c                	je     0x6450
    6434:	8b 10                	mov    (%eax),%edx
    6436:	85 d2                	test   %edx,%edx
    6438:	74 f3                	je     0x642d
    643a:	8b 92 a8 00 00 00    	mov    0xa8(%edx),%edx
    6440:	39 da                	cmp    %ebx,%edx
    6442:	75 e9                	jne    0x642d
    6444:	89 d3                	mov    %edx,%ebx
    6446:	43                   	inc    %ebx
    6447:	78 e0                	js     0x6429
    6449:	b8 00 2c 01 00       	mov    $0x12c00,%eax
    644e:	eb e4                	jmp    0x6434
    6450:	89 1d 0c 69 01 00    	mov    %ebx,0x1690c
    6456:	83 3d 04 2c 01 00 00 	cmpl   $0x0,0x12c04
    645d:	74 1d                	je     0x647c
    645f:	b8 02 00 00 00       	mov    $0x2,%eax
    6464:	83 3c 85 00 2c 01 00 	cmpl   $0x0,0x12c00(,%eax,4)
    646b:	00 
    646c:	74 0b                	je     0x6479
    646e:	40                   	inc    %eax
    646f:	83 f8 40             	cmp    $0x40,%eax
    6472:	75 f0                	jne    0x6464
    6474:	b8 f5 ff ff ff       	mov    $0xfffffff5,%eax
    6479:	5b                   	pop    %ebx
    647a:	5e                   	pop    %esi
    647b:	c3                   	ret    
    647c:	b8 01 00 00 00       	mov    $0x1,%eax
    6481:	eb f6                	jmp    0x6479
    6483:	83 ec 14             	sub    $0x14,%esp
    6486:	ff 74 24 18          	pushl  0x18(%esp)
    648a:	68 b0 f2 00 00       	push   $0xf2b0
    648f:	e8 1a 00 00 00       	call   0x64ae
    6494:	83 c4 10             	add    $0x10,%esp
    6497:	eb fe                	jmp    0x6497
    6499:	83 ec 18             	sub    $0x18,%esp
    649c:	68 dc f7 00 00       	push   $0xf7dc
    64a1:	e8 dd ff ff ff       	call   0x6483
    64a6:	83 ec 0c             	sub    $0xc,%esp
    64a9:	e8 eb ff ff ff       	call   0x6499
    64ae:	53                   	push   %ebx
    64af:	83 ec 0c             	sub    $0xc,%esp
    64b2:	8d 44 24 18          	lea    0x18(%esp),%eax
    64b6:	50                   	push   %eax
    64b7:	ff 74 24 18          	pushl  0x18(%esp)
    64bb:	68 20 69 01 00       	push   $0x16920
    64c0:	e8 2e 02 00 00       	call   0x66f3
    64c5:	89 c3                	mov    %eax,%ebx
    64c7:	0f a0                	push   %fs
    64c9:	1e                   	push   %ds
    64ca:	0f a1                	pop    %fs
    64cc:	53                   	push   %ebx
    64cd:	68 20 69 01 00       	push   $0x16920
    64d2:	6a 00                	push   $0x0
    64d4:	e8 4f 0b 00 00       	call   0x7028
    64d9:	83 c4 08             	add    $0x8,%esp
    64dc:	5b                   	pop    %ebx
    64dd:	0f a1                	pop    %fs
    64df:	89 d8                	mov    %ebx,%eax
    64e1:	83 c4 18             	add    $0x18,%esp
    64e4:	5b                   	pop    %ebx
    64e5:	c3                   	ret    
    64e6:	55                   	push   %ebp
    64e7:	57                   	push   %edi
    64e8:	56                   	push   %esi
    64e9:	53                   	push   %ebx
    64ea:	83 ec 4c             	sub    $0x4c,%esp
    64ed:	89 c3                	mov    %eax,%ebx
    64ef:	89 d7                	mov    %edx,%edi
    64f1:	89 cd                	mov    %ecx,%ebp
    64f3:	65 a1 14 00 00 00    	mov    %gs:0x14,%eax
    64f9:	89 44 24 3c          	mov    %eax,0x3c(%esp)
    64fd:	31 c0                	xor    %eax,%eax
    64ff:	f6 44 24 68 40       	testb  $0x40,0x68(%esp)
    6504:	74 57                	je     0x655d
    6506:	be 30 f8 00 00       	mov    $0xf830,%esi
    650b:	f6 44 24 68 10       	testb  $0x10,0x68(%esp)
    6510:	74 05                	je     0x6517
    6512:	83 64 24 68 fe       	andl   $0xfffffffe,0x68(%esp)
    6517:	8d 45 fe             	lea    -0x2(%ebp),%eax
    651a:	83 f8 22             	cmp    $0x22,%eax
    651d:	0f 87 bd 01 00 00    	ja     0x66e0
    6523:	8b 44 24 68          	mov    0x68(%esp),%eax
    6527:	83 e0 01             	and    $0x1,%eax
    652a:	83 f8 01             	cmp    $0x1,%eax
    652d:	19 c0                	sbb    %eax,%eax
    652f:	83 e0 f0             	and    $0xfffffff0,%eax
    6532:	83 c0 30             	add    $0x30,%eax
    6535:	88 44 24 0f          	mov    %al,0xf(%esp)
    6539:	f6 44 24 68 02       	testb  $0x2,0x68(%esp)
    653e:	74 04                	je     0x6544
    6540:	85 ff                	test   %edi,%edi
    6542:	78 20                	js     0x6564
    6544:	f6 44 24 68 04       	testb  $0x4,0x68(%esp)
    6549:	75 22                	jne    0x656d
    654b:	8b 44 24 68          	mov    0x68(%esp),%eax
    654f:	c1 e0 02             	shl    $0x2,%eax
    6552:	83 e0 20             	and    $0x20,%eax
    6555:	88 44 24 0e          	mov    %al,0xe(%esp)
    6559:	74 1b                	je     0x6576
    655b:	eb 15                	jmp    0x6572
    655d:	be 08 f8 00 00       	mov    $0xf808,%esi
    6562:	eb a7                	jmp    0x650b
    6564:	f7 df                	neg    %edi
    6566:	c6 44 24 0e 2d       	movb   $0x2d,0xe(%esp)
    656b:	eb 05                	jmp    0x6572
    656d:	c6 44 24 0e 2b       	movb   $0x2b,0xe(%esp)
    6572:	ff 4c 24 60          	decl   0x60(%esp)
    6576:	8b 44 24 68          	mov    0x68(%esp),%eax
    657a:	83 e0 20             	and    $0x20,%eax
    657d:	89 44 24 08          	mov    %eax,0x8(%esp)
    6581:	74 12                	je     0x6595
    6583:	83 fd 10             	cmp    $0x10,%ebp
    6586:	0f 84 f2 00 00 00    	je     0x667e
    658c:	83 fd 08             	cmp    $0x8,%ebp
    658f:	0f 84 f3 00 00 00    	je     0x6688
    6595:	85 ff                	test   %edi,%edi
    6597:	0f 85 f4 00 00 00    	jne    0x6691
    659d:	c6 44 24 18 30       	movb   $0x30,0x18(%esp)
    65a2:	b9 01 00 00 00       	mov    $0x1,%ecx
    65a7:	89 cf                	mov    %ecx,%edi
    65a9:	3b 4c 24 64          	cmp    0x64(%esp),%ecx
    65ad:	7d 04                	jge    0x65b3
    65af:	8b 7c 24 64          	mov    0x64(%esp),%edi
    65b3:	8b 44 24 60          	mov    0x60(%esp),%eax
    65b7:	29 f8                	sub    %edi,%eax
    65b9:	f6 44 24 68 11       	testb  $0x11,0x68(%esp)
    65be:	75 1b                	jne    0x65db
    65c0:	8d 50 ff             	lea    -0x1(%eax),%edx
    65c3:	85 c0                	test   %eax,%eax
    65c5:	0f 8e eb 00 00 00    	jle    0x66b6
    65cb:	01 d8                	add    %ebx,%eax
    65cd:	43                   	inc    %ebx
    65ce:	c6 43 ff 20          	movb   $0x20,-0x1(%ebx)
    65d2:	39 c3                	cmp    %eax,%ebx
    65d4:	75 f7                	jne    0x65cd
    65d6:	b8 ff ff ff ff       	mov    $0xffffffff,%eax
    65db:	8a 54 24 0e          	mov    0xe(%esp),%dl
    65df:	84 d2                	test   %dl,%dl
    65e1:	74 05                	je     0x65e8
    65e3:	88 13                	mov    %dl,(%ebx)
    65e5:	8d 5b 01             	lea    0x1(%ebx),%ebx
    65e8:	83 7c 24 08 00       	cmpl   $0x0,0x8(%esp)
    65ed:	74 12                	je     0x6601
    65ef:	83 fd 08             	cmp    $0x8,%ebp
    65f2:	0f 84 c5 00 00 00    	je     0x66bd
    65f8:	83 fd 10             	cmp    $0x10,%ebp
    65fb:	0f 84 c7 00 00 00    	je     0x66c8
    6601:	f6 44 24 68 10       	testb  $0x10,0x68(%esp)
    6606:	75 1e                	jne    0x6626
    6608:	8d 50 ff             	lea    -0x1(%eax),%edx
    660b:	85 c0                	test   %eax,%eax
    660d:	0f 8e c6 00 00 00    	jle    0x66d9
    6613:	01 d8                	add    %ebx,%eax
    6615:	8a 54 24 0f          	mov    0xf(%esp),%dl
    6619:	43                   	inc    %ebx
    661a:	88 53 ff             	mov    %dl,-0x1(%ebx)
    661d:	39 d8                	cmp    %ebx,%eax
    661f:	75 f8                	jne    0x6619
    6621:	b8 ff ff ff ff       	mov    $0xffffffff,%eax
    6626:	39 f9                	cmp    %edi,%ecx
    6628:	7d 0f                	jge    0x6639
    662a:	29 cf                	sub    %ecx,%edi
    662c:	89 fe                	mov    %edi,%esi
    662e:	01 de                	add    %ebx,%esi
    6630:	43                   	inc    %ebx
    6631:	c6 43 ff 30          	movb   $0x30,-0x1(%ebx)
    6635:	39 de                	cmp    %ebx,%esi
    6637:	75 f7                	jne    0x6630
    6639:	8d 51 ff             	lea    -0x1(%ecx),%edx
    663c:	85 c9                	test   %ecx,%ecx
    663e:	7e 16                	jle    0x6656
    6640:	89 de                	mov    %ebx,%esi
    6642:	89 c7                	mov    %eax,%edi
    6644:	46                   	inc    %esi
    6645:	8a 44 14 18          	mov    0x18(%esp,%edx,1),%al
    6649:	88 46 ff             	mov    %al,-0x1(%esi)
    664c:	4a                   	dec    %edx
    664d:	83 fa ff             	cmp    $0xffffffff,%edx
    6650:	75 f2                	jne    0x6644
    6652:	89 f8                	mov    %edi,%eax
    6654:	01 cb                	add    %ecx,%ebx
    6656:	85 c0                	test   %eax,%eax
    6658:	0f 8e 89 00 00 00    	jle    0x66e7
    665e:	01 d8                	add    %ebx,%eax
    6660:	43                   	inc    %ebx
    6661:	c6 43 ff 20          	movb   $0x20,-0x1(%ebx)
    6665:	39 c3                	cmp    %eax,%ebx
    6667:	75 f7                	jne    0x6660
    6669:	8b 7c 24 3c          	mov    0x3c(%esp),%edi
    666d:	65 33 3d 14 00 00 00 	xor    %gs:0x14,%edi
    6674:	75 78                	jne    0x66ee
    6676:	83 c4 4c             	add    $0x4c,%esp
    6679:	5b                   	pop    %ebx
    667a:	5e                   	pop    %esi
    667b:	5f                   	pop    %edi
    667c:	5d                   	pop    %ebp
    667d:	c3                   	ret    
    667e:	83 6c 24 60 02       	subl   $0x2,0x60(%esp)
    6683:	e9 0d ff ff ff       	jmp    0x6595
    6688:	ff 4c 24 60          	decl   0x60(%esp)
    668c:	e9 04 ff ff ff       	jmp    0x6595
    6691:	b9 00 00 00 00       	mov    $0x0,%ecx
    6696:	89 f8                	mov    %edi,%eax
    6698:	ba 00 00 00 00       	mov    $0x0,%edx
    669d:	f7 f5                	div    %ebp
    669f:	89 c7                	mov    %eax,%edi
    66a1:	41                   	inc    %ecx
    66a2:	8a 14 16             	mov    (%esi,%edx,1),%dl
    66a5:	88 54 24 0d          	mov    %dl,0xd(%esp)
    66a9:	88 54 0c 17          	mov    %dl,0x17(%esp,%ecx,1)
    66ad:	85 c0                	test   %eax,%eax
    66af:	75 e5                	jne    0x6696
    66b1:	e9 f1 fe ff ff       	jmp    0x65a7
    66b6:	89 d0                	mov    %edx,%eax
    66b8:	e9 1e ff ff ff       	jmp    0x65db
    66bd:	c6 03 30             	movb   $0x30,(%ebx)
    66c0:	8d 5b 01             	lea    0x1(%ebx),%ebx
    66c3:	e9 39 ff ff ff       	jmp    0x6601
    66c8:	c6 03 30             	movb   $0x30,(%ebx)
    66cb:	8a 56 21             	mov    0x21(%esi),%dl
    66ce:	88 53 01             	mov    %dl,0x1(%ebx)
    66d1:	8d 5b 02             	lea    0x2(%ebx),%ebx
    66d4:	e9 28 ff ff ff       	jmp    0x6601
    66d9:	89 d0                	mov    %edx,%eax
    66db:	e9 46 ff ff ff       	jmp    0x6626
    66e0:	b8 00 00 00 00       	mov    $0x0,%eax
    66e5:	eb 82                	jmp    0x6669
    66e7:	89 d8                	mov    %ebx,%eax
    66e9:	e9 7b ff ff ff       	jmp    0x6669
    66ee:	e8 b3 fd ff ff       	call   0x64a6
    66f3:	55                   	push   %ebp
    66f4:	57                   	push   %edi
    66f5:	56                   	push   %esi
    66f6:	53                   	push   %ebx
    66f7:	83 ec 1c             	sub    $0x1c,%esp
    66fa:	8b 44 24 34          	mov    0x34(%esp),%eax
    66fe:	8b 7c 24 38          	mov    0x38(%esp),%edi
    6702:	8a 10                	mov    (%eax),%dl
    6704:	84 d2                	test   %dl,%dl
    6706:	0f 84 2b 03 00 00    	je     0x6a37
    670c:	8b 6c 24 30          	mov    0x30(%esp),%ebp
    6710:	e9 a1 02 00 00       	jmp    0x69b6
    6715:	ba 00 00 00 00       	mov    $0x0,%edx
    671a:	eb 03                	jmp    0x671f
    671c:	83 ca 10             	or     $0x10,%edx
    671f:	40                   	inc    %eax
    6720:	8a 18                	mov    (%eax),%bl
    6722:	8d 4b e0             	lea    -0x20(%ebx),%ecx
    6725:	80 f9 10             	cmp    $0x10,%cl
    6728:	77 1e                	ja     0x6748
    672a:	0f b6 c9             	movzbl %cl,%ecx
    672d:	ff 24 8d 48 ed 00 00 	jmp    *0xed48(,%ecx,4)
    6734:	83 ca 04             	or     $0x4,%edx
    6737:	eb e6                	jmp    0x671f
    6739:	83 ca 08             	or     $0x8,%edx
    673c:	eb e1                	jmp    0x671f
    673e:	83 ca 20             	or     $0x20,%edx
    6741:	eb dc                	jmp    0x671f
    6743:	83 ca 01             	or     $0x1,%edx
    6746:	eb d7                	jmp    0x671f
    6748:	8d 4b d0             	lea    -0x30(%ebx),%ecx
    674b:	80 f9 09             	cmp    $0x9,%cl
    674e:	76 35                	jbe    0x6785
    6750:	80 fb 2a             	cmp    $0x2a,%bl
    6753:	74 58                	je     0x67ad
    6755:	be ff ff ff ff       	mov    $0xffffffff,%esi
    675a:	80 38 2e             	cmpb   $0x2e,(%eax)
    675d:	74 6b                	je     0x67ca
    675f:	c7 44 24 08 ff ff ff 	movl   $0xffffffff,0x8(%esp)
    6766:	ff 
    6767:	8a 08                	mov    (%eax),%cl
    6769:	80 f9 68             	cmp    $0x68,%cl
    676c:	0f 84 bd 00 00 00    	je     0x682f
    6772:	83 e1 df             	and    $0xffffffdf,%ecx
    6775:	80 f9 4c             	cmp    $0x4c,%cl
    6778:	0f 84 b1 00 00 00    	je     0x682f
    677e:	89 c3                	mov    %eax,%ebx
    6780:	e9 ad 00 00 00       	jmp    0x6832
    6785:	8a 08                	mov    (%eax),%cl
    6787:	8d 59 d0             	lea    -0x30(%ecx),%ebx
    678a:	80 fb 09             	cmp    $0x9,%bl
    678d:	77 34                	ja     0x67c3
    678f:	be 00 00 00 00       	mov    $0x0,%esi
    6794:	40                   	inc    %eax
    6795:	8d 1c b6             	lea    (%esi,%esi,4),%ebx
    6798:	01 db                	add    %ebx,%ebx
    679a:	0f be c9             	movsbl %cl,%ecx
    679d:	8d 74 0b d0          	lea    -0x30(%ebx,%ecx,1),%esi
    67a1:	8a 08                	mov    (%eax),%cl
    67a3:	8d 59 d0             	lea    -0x30(%ecx),%ebx
    67a6:	80 fb 09             	cmp    $0x9,%bl
    67a9:	76 e9                	jbe    0x6794
    67ab:	eb ad                	jmp    0x675a
    67ad:	8d 4f 04             	lea    0x4(%edi),%ecx
    67b0:	8b 37                	mov    (%edi),%esi
    67b2:	85 f6                	test   %esi,%esi
    67b4:	78 04                	js     0x67ba
    67b6:	89 cf                	mov    %ecx,%edi
    67b8:	eb a0                	jmp    0x675a
    67ba:	f7 de                	neg    %esi
    67bc:	83 ca 10             	or     $0x10,%edx
    67bf:	89 cf                	mov    %ecx,%edi
    67c1:	eb 97                	jmp    0x675a
    67c3:	be 00 00 00 00       	mov    $0x0,%esi
    67c8:	eb 90                	jmp    0x675a
    67ca:	8d 48 01             	lea    0x1(%eax),%ecx
    67cd:	8a 40 01             	mov    0x1(%eax),%al
    67d0:	8d 58 d0             	lea    -0x30(%eax),%ebx
    67d3:	80 fb 09             	cmp    $0x9,%bl
    67d6:	76 13                	jbe    0x67eb
    67d8:	3c 2a                	cmp    $0x2a,%al
    67da:	74 42                	je     0x681e
    67dc:	89 c8                	mov    %ecx,%eax
    67de:	c7 44 24 08 00 00 00 	movl   $0x0,0x8(%esp)
    67e5:	00 
    67e6:	e9 7c ff ff ff       	jmp    0x6767
    67eb:	bb 00 00 00 00       	mov    $0x0,%ebx
    67f0:	89 54 24 08          	mov    %edx,0x8(%esp)
    67f4:	41                   	inc    %ecx
    67f5:	8d 14 9b             	lea    (%ebx,%ebx,4),%edx
    67f8:	01 d2                	add    %edx,%edx
    67fa:	0f be c0             	movsbl %al,%eax
    67fd:	8d 5c 02 d0          	lea    -0x30(%edx,%eax,1),%ebx
    6801:	8a 01                	mov    (%ecx),%al
    6803:	8d 50 d0             	lea    -0x30(%eax),%edx
    6806:	80 fa 09             	cmp    $0x9,%dl
    6809:	76 e9                	jbe    0x67f4
    680b:	8b 54 24 08          	mov    0x8(%esp),%edx
    680f:	89 5c 24 08          	mov    %ebx,0x8(%esp)
    6813:	85 db                	test   %ebx,%ebx
    6815:	78 0e                	js     0x6825
    6817:	89 c8                	mov    %ecx,%eax
    6819:	e9 49 ff ff ff       	jmp    0x6767
    681e:	8b 1f                	mov    (%edi),%ebx
    6820:	8d 7f 04             	lea    0x4(%edi),%edi
    6823:	eb ea                	jmp    0x680f
    6825:	c7 44 24 08 00 00 00 	movl   $0x0,0x8(%esp)
    682c:	00 
    682d:	eb e8                	jmp    0x6817
    682f:	8d 58 01             	lea    0x1(%eax),%ebx
    6832:	8a 0b                	mov    (%ebx),%cl
    6834:	8d 41 a8             	lea    -0x58(%ecx),%eax
    6837:	3c 20                	cmp    $0x20,%al
    6839:	0f 87 c5 01 00 00    	ja     0x6a04
    683f:	0f b6 c0             	movzbl %al,%eax
    6842:	ff 24 85 8c ed 00 00 	jmp    *0xed8c(,%eax,4)
    6849:	f6 c2 10             	test   $0x10,%dl
    684c:	74 2c                	je     0x687a
    684e:	8d 57 04             	lea    0x4(%edi),%edx
    6851:	8d 45 01             	lea    0x1(%ebp),%eax
    6854:	8b 0f                	mov    (%edi),%ecx
    6856:	88 4d 00             	mov    %cl,0x0(%ebp)
    6859:	8d 4e ff             	lea    -0x1(%esi),%ecx
    685c:	85 c9                	test   %ecx,%ecx
    685e:	0f 8e c1 01 00 00    	jle    0x6a25
    6864:	89 f1                	mov    %esi,%ecx
    6866:	01 ee                	add    %ebp,%esi
    6868:	40                   	inc    %eax
    6869:	c6 40 ff 20          	movb   $0x20,-0x1(%eax)
    686d:	39 c6                	cmp    %eax,%esi
    686f:	75 f7                	jne    0x6868
    6871:	01 cd                	add    %ecx,%ebp
    6873:	89 d7                	mov    %edx,%edi
    6875:	e9 2e 01 00 00       	jmp    0x69a8
    687a:	8d 46 ff             	lea    -0x1(%esi),%eax
    687d:	85 c0                	test   %eax,%eax
    687f:	7e 14                	jle    0x6895
    6881:	8d 44 35 ff          	lea    -0x1(%ebp,%esi,1),%eax
    6885:	45                   	inc    %ebp
    6886:	c6 45 ff 20          	movb   $0x20,-0x1(%ebp)
    688a:	39 e8                	cmp    %ebp,%eax
    688c:	75 f7                	jne    0x6885
    688e:	be 00 00 00 00       	mov    $0x0,%esi
    6893:	eb b9                	jmp    0x684e
    6895:	89 c6                	mov    %eax,%esi
    6897:	eb b5                	jmp    0x684e
    6899:	8d 47 04             	lea    0x4(%edi),%eax
    689c:	89 44 24 0c          	mov    %eax,0xc(%esp)
    68a0:	8b 3f                	mov    (%edi),%edi
    68a2:	b9 ff ff ff ff       	mov    $0xffffffff,%ecx
    68a7:	b8 00 00 00 00       	mov    $0x0,%eax
    68ac:	fc                   	cld    
    68ad:	f2 ae                	repnz scas %es:(%edi),%al
    68af:	f7 d1                	not    %ecx
    68b1:	49                   	dec    %ecx
    68b2:	8b 44 24 08          	mov    0x8(%esp),%eax
    68b6:	85 c0                	test   %eax,%eax
    68b8:	78 06                	js     0x68c0
    68ba:	39 c1                	cmp    %eax,%ecx
    68bc:	7e 02                	jle    0x68c0
    68be:	89 c1                	mov    %eax,%ecx
    68c0:	f6 c2 10             	test   $0x10,%dl
    68c3:	74 37                	je     0x68fc
    68c5:	85 c9                	test   %ecx,%ecx
    68c7:	7e 13                	jle    0x68dc
    68c9:	b8 00 00 00 00       	mov    $0x0,%eax
    68ce:	8a 14 07             	mov    (%edi,%eax,1),%dl
    68d1:	88 54 05 00          	mov    %dl,0x0(%ebp,%eax,1)
    68d5:	40                   	inc    %eax
    68d6:	39 c1                	cmp    %eax,%ecx
    68d8:	75 f4                	jne    0x68ce
    68da:	01 c5                	add    %eax,%ebp
    68dc:	39 f1                	cmp    %esi,%ecx
    68de:	0f 8d 4a 01 00 00    	jge    0x6a2e
    68e4:	29 ce                	sub    %ecx,%esi
    68e6:	8d 44 35 00          	lea    0x0(%ebp,%esi,1),%eax
    68ea:	45                   	inc    %ebp
    68eb:	c6 45 ff 20          	movb   $0x20,-0x1(%ebp)
    68ef:	39 c5                	cmp    %eax,%ebp
    68f1:	75 f7                	jne    0x68ea
    68f3:	8b 7c 24 0c          	mov    0xc(%esp),%edi
    68f7:	e9 ac 00 00 00       	jmp    0x69a8
    68fc:	8d 46 ff             	lea    -0x1(%esi),%eax
    68ff:	39 f1                	cmp    %esi,%ecx
    6901:	7d 16                	jge    0x6919
    6903:	89 c8                	mov    %ecx,%eax
    6905:	29 ce                	sub    %ecx,%esi
    6907:	8d 54 35 00          	lea    0x0(%ebp,%esi,1),%edx
    690b:	45                   	inc    %ebp
    690c:	c6 45 ff 20          	movb   $0x20,-0x1(%ebp)
    6910:	39 d5                	cmp    %edx,%ebp
    6912:	75 f7                	jne    0x690b
    6914:	8d 70 ff             	lea    -0x1(%eax),%esi
    6917:	eb ac                	jmp    0x68c5
    6919:	89 c6                	mov    %eax,%esi
    691b:	eb a8                	jmp    0x68c5
    691d:	8d 47 04             	lea    0x4(%edi),%eax
    6920:	89 44 24 0c          	mov    %eax,0xc(%esp)
    6924:	83 ec 04             	sub    $0x4,%esp
    6927:	52                   	push   %edx
    6928:	ff 74 24 10          	pushl  0x10(%esp)
    692c:	56                   	push   %esi
    692d:	b9 08 00 00 00       	mov    $0x8,%ecx
    6932:	8b 17                	mov    (%edi),%edx
    6934:	89 e8                	mov    %ebp,%eax
    6936:	e8 ab fb ff ff       	call   0x64e6
    693b:	89 c5                	mov    %eax,%ebp
    693d:	83 c4 10             	add    $0x10,%esp
    6940:	8b 7c 24 0c          	mov    0xc(%esp),%edi
    6944:	eb 62                	jmp    0x69a8
    6946:	83 fe ff             	cmp    $0xffffffff,%esi
    6949:	74 29                	je     0x6974
    694b:	8d 47 04             	lea    0x4(%edi),%eax
    694e:	89 44 24 0c          	mov    %eax,0xc(%esp)
    6952:	83 ec 04             	sub    $0x4,%esp
    6955:	52                   	push   %edx
    6956:	ff 74 24 10          	pushl  0x10(%esp)
    695a:	56                   	push   %esi
    695b:	b9 10 00 00 00       	mov    $0x10,%ecx
    6960:	8b 17                	mov    (%edi),%edx
    6962:	89 e8                	mov    %ebp,%eax
    6964:	e8 7d fb ff ff       	call   0x64e6
    6969:	89 c5                	mov    %eax,%ebp
    696b:	83 c4 10             	add    $0x10,%esp
    696e:	8b 7c 24 0c          	mov    0xc(%esp),%edi
    6972:	eb 34                	jmp    0x69a8
    6974:	83 ca 01             	or     $0x1,%edx
    6977:	be 08 00 00 00       	mov    $0x8,%esi
    697c:	eb cd                	jmp    0x694b
    697e:	83 ca 40             	or     $0x40,%edx
    6981:	8d 47 04             	lea    0x4(%edi),%eax
    6984:	89 44 24 0c          	mov    %eax,0xc(%esp)
    6988:	83 ec 04             	sub    $0x4,%esp
    698b:	52                   	push   %edx
    698c:	ff 74 24 10          	pushl  0x10(%esp)
    6990:	56                   	push   %esi
    6991:	b9 10 00 00 00       	mov    $0x10,%ecx
    6996:	8b 17                	mov    (%edi),%edx
    6998:	89 e8                	mov    %ebp,%eax
    699a:	e8 47 fb ff ff       	call   0x64e6
    699f:	89 c5                	mov    %eax,%ebp
    69a1:	83 c4 10             	add    $0x10,%esp
    69a4:	8b 7c 24 0c          	mov    0xc(%esp),%edi
    69a8:	8d 43 01             	lea    0x1(%ebx),%eax
    69ab:	8a 53 01             	mov    0x1(%ebx),%dl
    69ae:	84 d2                	test   %dl,%dl
    69b0:	0f 84 85 00 00 00    	je     0x6a3b
    69b6:	80 fa 25             	cmp    $0x25,%dl
    69b9:	0f 84 56 fd ff ff    	je     0x6715
    69bf:	88 55 00             	mov    %dl,0x0(%ebp)
    69c2:	89 c3                	mov    %eax,%ebx
    69c4:	8d 6d 01             	lea    0x1(%ebp),%ebp
    69c7:	eb df                	jmp    0x69a8
    69c9:	83 ca 02             	or     $0x2,%edx
    69cc:	8d 47 04             	lea    0x4(%edi),%eax
    69cf:	89 44 24 0c          	mov    %eax,0xc(%esp)
    69d3:	83 ec 04             	sub    $0x4,%esp
    69d6:	52                   	push   %edx
    69d7:	ff 74 24 10          	pushl  0x10(%esp)
    69db:	56                   	push   %esi
    69dc:	b9 0a 00 00 00       	mov    $0xa,%ecx
    69e1:	8b 17                	mov    (%edi),%edx
    69e3:	89 e8                	mov    %ebp,%eax
    69e5:	e8 fc fa ff ff       	call   0x64e6
    69ea:	89 c5                	mov    %eax,%ebp
    69ec:	83 c4 10             	add    $0x10,%esp
    69ef:	8b 7c 24 0c          	mov    0xc(%esp),%edi
    69f3:	eb b3                	jmp    0x69a8
    69f5:	8b 07                	mov    (%edi),%eax
    69f7:	89 ea                	mov    %ebp,%edx
    69f9:	2b 54 24 30          	sub    0x30(%esp),%edx
    69fd:	89 10                	mov    %edx,(%eax)
    69ff:	8d 7f 04             	lea    0x4(%edi),%edi
    6a02:	eb a4                	jmp    0x69a8
    6a04:	80 f9 25             	cmp    $0x25,%cl
    6a07:	74 14                	je     0x6a1d
    6a09:	8d 45 01             	lea    0x1(%ebp),%eax
    6a0c:	c6 45 00 25          	movb   $0x25,0x0(%ebp)
    6a10:	8a 0b                	mov    (%ebx),%cl
    6a12:	84 c9                	test   %cl,%cl
    6a14:	75 05                	jne    0x6a1b
    6a16:	4b                   	dec    %ebx
    6a17:	89 c5                	mov    %eax,%ebp
    6a19:	eb 8d                	jmp    0x69a8
    6a1b:	89 c5                	mov    %eax,%ebp
    6a1d:	88 4d 00             	mov    %cl,0x0(%ebp)
    6a20:	8d 6d 01             	lea    0x1(%ebp),%ebp
    6a23:	eb 83                	jmp    0x69a8
    6a25:	89 c5                	mov    %eax,%ebp
    6a27:	89 d7                	mov    %edx,%edi
    6a29:	e9 7a ff ff ff       	jmp    0x69a8
    6a2e:	8b 7c 24 0c          	mov    0xc(%esp),%edi
    6a32:	e9 71 ff ff ff       	jmp    0x69a8
    6a37:	8b 6c 24 30          	mov    0x30(%esp),%ebp
    6a3b:	c6 45 00 00          	movb   $0x0,0x0(%ebp)
    6a3f:	89 e8                	mov    %ebp,%eax
    6a41:	2b 44 24 30          	sub    0x30(%esp),%eax
    6a45:	83 c4 1c             	add    $0x1c,%esp
    6a48:	5b                   	pop    %ebx
    6a49:	5e                   	pop    %esi
    6a4a:	5f                   	pop    %edi
    6a4b:	5d                   	pop    %ebp
    6a4c:	c3                   	ret    
    6a4d:	83 ec 0c             	sub    $0xc,%esp
    6a50:	e8 4c 2f 00 00       	call   0x99a1
    6a55:	e8 04 14 00 00       	call   0x7e5e
    6a5a:	83 c4 0c             	add    $0xc,%esp
    6a5d:	c3                   	ret    
    6a5e:	57                   	push   %edi
    6a5f:	56                   	push   %esi
    6a60:	53                   	push   %ebx
    6a61:	8b 5c 24 10          	mov    0x10(%esp),%ebx
    6a65:	83 7b 24 00          	cmpl   $0x0,0x24(%ebx)
    6a69:	7e 37                	jle    0x6aa2
    6a6b:	8b 44 24 14          	mov    0x14(%esp),%eax
    6a6f:	8d 48 ff             	lea    -0x1(%eax),%ecx
    6a72:	be 01 00 00 00       	mov    $0x1,%esi
    6a77:	d3 e6                	shl    %cl,%esi
    6a79:	b8 00 2c 01 00       	mov    $0x12c00,%eax
    6a7e:	b9 00 2d 01 00       	mov    $0x12d00,%ecx
    6a83:	eb 07                	jmp    0x6a8c
    6a85:	83 c0 04             	add    $0x4,%eax
    6a88:	39 c8                	cmp    %ecx,%eax
    6a8a:	74 16                	je     0x6aa2
    6a8c:	8b 10                	mov    (%eax),%edx
    6a8e:	85 d2                	test   %edx,%edx
    6a90:	74 f3                	je     0x6a85
    6a92:	8b 7b 24             	mov    0x24(%ebx),%edi
    6a95:	39 ba b0 00 00 00    	cmp    %edi,0xb0(%edx)
    6a9b:	75 e8                	jne    0x6a85
    6a9d:	09 72 0c             	or     %esi,0xc(%edx)
    6aa0:	eb e3                	jmp    0x6a85
    6aa2:	5b                   	pop    %ebx
    6aa3:	5e                   	pop    %esi
    6aa4:	5f                   	pop    %edi
    6aa5:	c3                   	ret    
    6aa6:	55                   	push   %ebp
    6aa7:	57                   	push   %edi
    6aa8:	56                   	push   %esi
    6aa9:	53                   	push   %ebx
    6aaa:	83 ec 0c             	sub    $0xc,%esp
    6aad:	8b 74 24 20          	mov    0x20(%esp),%esi
    6ab1:	e9 69 01 00 00       	jmp    0x6c1f
    6ab6:	8b 06                	mov    (%esi),%eax
    6ab8:	f6 c4 01             	test   $0x1,%ah
    6abb:	75 1d                	jne    0x6ada
    6abd:	a8 80                	test   $0x80,%al
    6abf:	0f 84 9e 01 00 00    	je     0x6c63
    6ac5:	e9 55 01 00 00       	jmp    0x6c1f
    6aca:	f6 06 40             	testb  $0x40,(%esi)
    6acd:	0f 84 90 01 00 00    	je     0x6c63
    6ad3:	b3 0d                	mov    $0xd,%bl
    6ad5:	e9 89 01 00 00       	jmp    0x6c63
    6ada:	b3 0a                	mov    $0xa,%bl
    6adc:	e9 82 01 00 00       	jmp    0x6c63
    6ae1:	39 d1                	cmp    %edx,%ecx
    6ae3:	0f 84 36 01 00 00    	je     0x6c1f
    6ae9:	4a                   	dec    %edx
    6aea:	81 e2 ff 03 00 00    	and    $0x3ff,%edx
    6af0:	8a 8c 16 60 08 00 00 	mov    0x860(%esi,%edx,1),%cl
    6af7:	80 f9 0a             	cmp    $0xa,%cl
    6afa:	0f 84 1f 01 00 00    	je     0x6c1f
    6b00:	0f be d1             	movsbl %cl,%edx
    6b03:	0f b6 5e 15          	movzbl 0x15(%esi),%ebx
    6b07:	39 da                	cmp    %ebx,%edx
    6b09:	0f 84 10 01 00 00    	je     0x6c1f
    6b0f:	a8 08                	test   $0x8,%al
    6b11:	74 43                	je     0x6b56
    6b13:	80 f9 1f             	cmp    $0x1f,%cl
    6b16:	7f 1a                	jg     0x6b32
    6b18:	8b 86 44 04 00 00    	mov    0x444(%esi),%eax
    6b1e:	c6 84 06 50 04 00 00 	movb   $0x7f,0x450(%esi,%eax,1)
    6b25:	7f 
    6b26:	40                   	inc    %eax
    6b27:	25 ff 03 00 00       	and    $0x3ff,%eax
    6b2c:	89 86 44 04 00 00    	mov    %eax,0x444(%esi)
    6b32:	8b 86 44 04 00 00    	mov    0x444(%esi),%eax
    6b38:	c6 84 06 50 04 00 00 	movb   $0x7f,0x450(%esi,%eax,1)
    6b3f:	7f 
    6b40:	40                   	inc    %eax
    6b41:	25 ff 03 00 00       	and    $0x3ff,%eax
    6b46:	89 86 44 04 00 00    	mov    %eax,0x444(%esi)
    6b4c:	83 ec 0c             	sub    $0xc,%esp
    6b4f:	56                   	push   %esi
    6b50:	ff 56 2c             	call   *0x2c(%esi)
    6b53:	83 c4 10             	add    $0x10,%esp
    6b56:	8b 86 54 08 00 00    	mov    0x854(%esi),%eax
    6b5c:	48                   	dec    %eax
    6b5d:	25 ff 03 00 00       	and    $0x3ff,%eax
    6b62:	89 86 54 08 00 00    	mov    %eax,0x854(%esi)
    6b68:	e9 b2 00 00 00       	jmp    0x6c1f
    6b6d:	c7 46 28 01 00 00 00 	movl   $0x1,0x28(%esi)
    6b74:	e9 a6 00 00 00       	jmp    0x6c1f
    6b79:	c7 46 28 00 00 00 00 	movl   $0x0,0x28(%esi)
    6b80:	e9 9a 00 00 00       	jmp    0x6c1f
    6b85:	83 ec 08             	sub    $0x8,%esp
    6b88:	6a 02                	push   $0x2
    6b8a:	56                   	push   %esi
    6b8b:	e8 ce fe ff ff       	call   0x6a5e
    6b90:	83 c4 10             	add    $0x10,%esp
    6b93:	e9 87 00 00 00       	jmp    0x6c1f
    6b98:	8b 86 44 04 00 00    	mov    0x444(%esi),%eax
    6b9e:	88 9c 06 50 04 00 00 	mov    %bl,0x450(%esi,%eax,1)
    6ba5:	40                   	inc    %eax
    6ba6:	25 ff 03 00 00       	and    $0x3ff,%eax
    6bab:	89 86 44 04 00 00    	mov    %eax,0x444(%esi)
    6bb1:	eb 49                	jmp    0x6bfc
    6bb3:	83 ec 0c             	sub    $0xc,%esp
    6bb6:	81 c6 5c 08 00 00    	add    $0x85c,%esi
    6bbc:	56                   	push   %esi
    6bbd:	e8 62 eb ff ff       	call   0x5724
    6bc2:	83 c4 1c             	add    $0x1c,%esp
    6bc5:	5b                   	pop    %ebx
    6bc6:	5e                   	pop    %esi
    6bc7:	5f                   	pop    %edi
    6bc8:	5d                   	pop    %ebp
    6bc9:	c3                   	ret    
    6bca:	ff 86 50 08 00 00    	incl   0x850(%esi)
    6bd0:	a8 08                	test   $0x8,%al
    6bd2:	74 32                	je     0x6c06
    6bd4:	8b 86 44 04 00 00    	mov    0x444(%esi),%eax
    6bda:	c6 84 06 50 04 00 00 	movb   $0xa,0x450(%esi,%eax,1)
    6be1:	0a 
    6be2:	40                   	inc    %eax
    6be3:	25 ff 03 00 00       	and    $0x3ff,%eax
    6be8:	c6 84 06 50 04 00 00 	movb   $0xd,0x450(%esi,%eax,1)
    6bef:	0d 
    6bf0:	40                   	inc    %eax
    6bf1:	25 ff 03 00 00       	and    $0x3ff,%eax
    6bf6:	89 86 44 04 00 00    	mov    %eax,0x444(%esi)
    6bfc:	83 ec 0c             	sub    $0xc,%esp
    6bff:	56                   	push   %esi
    6c00:	ff 56 2c             	call   *0x2c(%esi)
    6c03:	83 c4 10             	add    $0x10,%esp
    6c06:	8b 86 54 08 00 00    	mov    0x854(%esi),%eax
    6c0c:	88 9c 06 60 08 00 00 	mov    %bl,0x860(%esi,%eax,1)
    6c13:	40                   	inc    %eax
    6c14:	25 ff 03 00 00       	and    $0x3ff,%eax
    6c19:	89 86 54 08 00 00    	mov    %eax,0x854(%esi)
    6c1f:	8b 46 38             	mov    0x38(%esi),%eax
    6c22:	39 46 34             	cmp    %eax,0x34(%esi)
    6c25:	74 8c                	je     0x6bb3
    6c27:	8b 8e 58 08 00 00    	mov    0x858(%esi),%ecx
    6c2d:	8b 96 54 08 00 00    	mov    0x854(%esi),%edx
    6c33:	8d 59 ff             	lea    -0x1(%ecx),%ebx
    6c36:	29 d3                	sub    %edx,%ebx
    6c38:	f7 c3 ff 03 00 00    	test   $0x3ff,%ebx
    6c3e:	0f 84 6f ff ff ff    	je     0x6bb3
    6c44:	8a 5c 06 40          	mov    0x40(%esi,%eax,1),%bl
    6c48:	40                   	inc    %eax
    6c49:	25 ff 03 00 00       	and    $0x3ff,%eax
    6c4e:	89 46 38             	mov    %eax,0x38(%esi)
    6c51:	80 fb 0d             	cmp    $0xd,%bl
    6c54:	0f 84 5c fe ff ff    	je     0x6ab6
    6c5a:	80 fb 0a             	cmp    $0xa,%bl
    6c5d:	0f 84 67 fe ff ff    	je     0x6aca
    6c63:	f7 06 00 02 00 00    	testl  $0x200,(%esi)
    6c69:	74 0f                	je     0x6c7a
    6c6b:	0f be c3             	movsbl %bl,%eax
    6c6e:	f6 80 e1 63 01 00 01 	testb  $0x1,0x163e1(%eax)
    6c75:	74 03                	je     0x6c7a
    6c77:	83 eb 5e             	sub    $0x5e,%ebx
    6c7a:	8b 46 0c             	mov    0xc(%esi),%eax
    6c7d:	a8 02                	test   $0x2,%al
    6c7f:	74 27                	je     0x6ca8
    6c81:	0f be fb             	movsbl %bl,%edi
    6c84:	0f b6 6e 13          	movzbl 0x13(%esi),%ebp
    6c88:	39 ef                	cmp    %ebp,%edi
    6c8a:	0f 84 51 fe ff ff    	je     0x6ae1
    6c90:	0f b6 56 1a          	movzbl 0x1a(%esi),%edx
    6c94:	39 d7                	cmp    %edx,%edi
    6c96:	0f 84 d1 fe ff ff    	je     0x6b6d
    6c9c:	0f b6 56 19          	movzbl 0x19(%esi),%edx
    6ca0:	39 d7                	cmp    %edx,%edi
    6ca2:	0f 84 d1 fe ff ff    	je     0x6b79
    6ca8:	a8 01                	test   $0x1,%al
    6caa:	75 0f                	jne    0x6cbb
    6cac:	0f be d3             	movsbl %bl,%edx
    6caf:	0f b6 4e 11          	movzbl 0x11(%esi),%ecx
    6cb3:	39 ca                	cmp    %ecx,%edx
    6cb5:	0f 84 ca fe ff ff    	je     0x6b85
    6cbb:	80 fb 0a             	cmp    $0xa,%bl
    6cbe:	0f 84 06 ff ff ff    	je     0x6bca
    6cc4:	0f be d3             	movsbl %bl,%edx
    6cc7:	0f b6 4e 15          	movzbl 0x15(%esi),%ecx
    6ccb:	39 ca                	cmp    %ecx,%edx
    6ccd:	74 49                	je     0x6d18
    6ccf:	a8 08                	test   $0x8,%al
    6cd1:	0f 84 2f ff ff ff    	je     0x6c06
    6cd7:	80 fb 1f             	cmp    $0x1f,%bl
    6cda:	0f 8f b8 fe ff ff    	jg     0x6b98
    6ce0:	f6 c4 02             	test   $0x2,%ah
    6ce3:	0f 84 13 ff ff ff    	je     0x6bfc
    6ce9:	8b 86 44 04 00 00    	mov    0x444(%esi),%eax
    6cef:	c6 84 06 50 04 00 00 	movb   $0x5e,0x450(%esi,%eax,1)
    6cf6:	5e 
    6cf7:	40                   	inc    %eax
    6cf8:	25 ff 03 00 00       	and    $0x3ff,%eax
    6cfd:	8d 53 40             	lea    0x40(%ebx),%edx
    6d00:	88 94 06 50 04 00 00 	mov    %dl,0x450(%esi,%eax,1)
    6d07:	40                   	inc    %eax
    6d08:	25 ff 03 00 00       	and    $0x3ff,%eax
    6d0d:	89 86 44 04 00 00    	mov    %eax,0x444(%esi)
    6d13:	e9 e4 fe ff ff       	jmp    0x6bfc
    6d18:	ff 86 50 08 00 00    	incl   0x850(%esi)
    6d1e:	a8 08                	test   $0x8,%al
    6d20:	75 b5                	jne    0x6cd7
    6d22:	e9 df fe ff ff       	jmp    0x6c06
    6d27:	55                   	push   %ebp
    6d28:	57                   	push   %edi
    6d29:	56                   	push   %esi
    6d2a:	53                   	push   %ebx
    6d2b:	83 ec 3c             	sub    $0x3c,%esp
    6d2e:	8b 44 24 50          	mov    0x50(%esp),%eax
    6d32:	8b 7c 24 58          	mov    0x58(%esp),%edi
    6d36:	83 f8 02             	cmp    $0x2,%eax
    6d39:	0f 87 5a 02 00 00    	ja     0x6f99
    6d3f:	85 ff                	test   %edi,%edi
    6d41:	0f 88 5c 02 00 00    	js     0x6fa3
    6d47:	8b 1d 00 2d 01 00    	mov    0x12d00,%ebx
    6d4d:	8b b3 c8 00 00 00    	mov    0xc8(%ebx),%esi
    6d53:	89 f5                	mov    %esi,%ebp
    6d55:	89 74 24 2c          	mov    %esi,0x2c(%esp)
    6d59:	8d 14 00             	lea    (%eax,%eax,1),%edx
    6d5c:	01 c2                	add    %eax,%edx
    6d5e:	89 d1                	mov    %edx,%ecx
    6d60:	c1 e1 05             	shl    $0x5,%ecx
    6d63:	01 ca                	add    %ecx,%edx
    6d65:	c1 e2 05             	shl    $0x5,%edx
    6d68:	8d 8a 60 3e 01 00    	lea    0x13e60(%edx),%ecx
    6d6e:	0f b6 92 76 3e 01 00 	movzbl 0x13e76(%edx),%edx
    6d75:	8d 14 92             	lea    (%edx,%edx,4),%edx
    6d78:	01 d2                	add    %edx,%edx
    6d7a:	89 54 24 20          	mov    %edx,0x20(%esp)
    6d7e:	0f b6 49 17          	movzbl 0x17(%ecx),%ecx
    6d82:	85 d2                	test   %edx,%edx
    6d84:	74 31                	je     0x6db7
    6d86:	85 c9                	test   %ecx,%ecx
    6d88:	75 73                	jne    0x6dfd
    6d8a:	85 f6                	test   %esi,%esi
    6d8c:	74 0c                	je     0x6d9a
    6d8e:	8b 35 08 69 01 00    	mov    0x16908,%esi
    6d94:	01 d6                	add    %edx,%esi
    6d96:	39 ee                	cmp    %ebp,%esi
    6d98:	7d 6d                	jge    0x6e07
    6d9a:	8b 0d 08 69 01 00    	mov    0x16908,%ecx
    6da0:	01 ca                	add    %ecx,%edx
    6da2:	89 93 c8 00 00 00    	mov    %edx,0xc8(%ebx)
    6da8:	c7 44 24 14 01 00 00 	movl   $0x1,0x14(%esp)
    6daf:	00 
    6db0:	b9 01 00 00 00       	mov    $0x1,%ecx
    6db5:	eb 04                	jmp    0x6dbb
    6db7:	89 54 24 14          	mov    %edx,0x14(%esp)
    6dbb:	89 4c 24 24          	mov    %ecx,0x24(%esp)
    6dbf:	39 f9                	cmp    %edi,%ecx
    6dc1:	7e 04                	jle    0x6dc7
    6dc3:	89 7c 24 24          	mov    %edi,0x24(%esp)
    6dc7:	85 ff                	test   %edi,%edi
    6dc9:	0f 8e c1 01 00 00    	jle    0x6f90
    6dcf:	8d 14 00             	lea    (%eax,%eax,1),%edx
    6dd2:	01 c2                	add    %eax,%edx
    6dd4:	89 d1                	mov    %edx,%ecx
    6dd6:	c1 e1 05             	shl    $0x5,%ecx
    6dd9:	01 ca                	add    %ecx,%edx
    6ddb:	c1 e2 05             	shl    $0x5,%edx
    6dde:	8d b2 bc 46 01 00    	lea    0x146bc(%edx),%esi
    6de4:	89 74 24 28          	mov    %esi,0x28(%esp)
    6de8:	8b 5c 24 54          	mov    0x54(%esp),%ebx
    6dec:	8d 14 00             	lea    (%eax,%eax,1),%edx
    6def:	01 d0                	add    %edx,%eax
    6df1:	01 c8                	add    %ecx,%eax
    6df3:	c1 e0 05             	shl    $0x5,%eax
    6df6:	89 c6                	mov    %eax,%esi
    6df8:	e9 0f 01 00 00       	jmp    0x6f0c
    6dfd:	c7 44 24 14 00 00 00 	movl   $0x0,0x14(%esp)
    6e04:	00 
    6e05:	eb b4                	jmp    0x6dbb
    6e07:	89 4c 24 14          	mov    %ecx,0x14(%esp)
    6e0b:	b9 01 00 00 00       	mov    $0x1,%ecx
    6e10:	eb a9                	jmp    0x6dbb
    6e12:	80 e4 df             	and    $0xdf,%ah
    6e15:	89 42 0c             	mov    %eax,0xc(%edx)
    6e18:	a1 00 2d 01 00       	mov    0x12d00,%eax
    6e1d:	8b 7c 24 2c          	mov    0x2c(%esp),%edi
    6e21:	89 b8 c8 00 00 00    	mov    %edi,0xc8(%eax)
    6e27:	83 78 0c 00          	cmpl   $0x0,0xc(%eax)
    6e2b:	74 0a                	je     0x6e37
    6e2d:	3b 5c 24 54          	cmp    0x54(%esp),%ebx
    6e31:	0f 84 76 01 00 00    	je     0x6fad
    6e37:	89 d8                	mov    %ebx,%eax
    6e39:	2b 44 24 54          	sub    0x54(%esp),%eax
    6e3d:	83 c4 3c             	add    $0x3c,%esp
    6e40:	5b                   	pop    %ebx
    6e41:	5e                   	pop    %esi
    6e42:	5f                   	pop    %edi
    6e43:	5d                   	pop    %ebp
    6e44:	c3                   	ret    
    6e45:	fa                   	cli    
    6e46:	8b 86 b8 46 01 00    	mov    0x146b8(%esi),%eax
    6e4c:	39 86 b4 46 01 00    	cmp    %eax,0x146b4(%esi)
    6e52:	75 29                	jne    0x6e7d
    6e54:	8b 6c 24 28          	mov    0x28(%esp),%ebp
    6e58:	83 ec 0c             	sub    $0xc,%esp
    6e5b:	55                   	push   %ebp
    6e5c:	e8 53 e8 ff ff       	call   0x56b4
    6e61:	83 c4 10             	add    $0x10,%esp
    6e64:	a1 00 2d 01 00       	mov    0x12d00,%eax
    6e69:	83 78 0c 00          	cmpl   $0x0,0xc(%eax)
    6e6d:	75 0e                	jne    0x6e7d
    6e6f:	8b 86 b8 46 01 00    	mov    0x146b8(%esi),%eax
    6e75:	39 86 b4 46 01 00    	cmp    %eax,0x146b4(%esi)
    6e7b:	74 db                	je     0x6e58
    6e7d:	fb                   	sti    
    6e7e:	e9 81 00 00 00       	jmp    0x6f04
    6e83:	89 e8                	mov    %ebp,%eax
    6e85:	2b 44 24 54          	sub    0x54(%esp),%eax
    6e89:	eb b2                	jmp    0x6e3d
    6e8b:	8b 74 24 18          	mov    0x18(%esp),%esi
    6e8f:	8b 4c 24 20          	mov    0x20(%esp),%ecx
    6e93:	85 c9                	test   %ecx,%ecx
    6e95:	74 49                	je     0x6ee0
    6e97:	83 7c 24 10 00       	cmpl   $0x0,0x10(%esp)
    6e9c:	75 5c                	jne    0x6efa
    6e9e:	8b 54 24 2c          	mov    0x2c(%esp),%edx
    6ea2:	85 d2                	test   %edx,%edx
    6ea4:	74 1f                	je     0x6ec5
    6ea6:	a1 08 69 01 00       	mov    0x16908,%eax
    6eab:	01 c8                	add    %ecx,%eax
    6ead:	39 d0                	cmp    %edx,%eax
    6eaf:	7c 14                	jl     0x6ec5
    6eb1:	8b 44 24 1c          	mov    0x1c(%esp),%eax
    6eb5:	89 90 c8 00 00 00    	mov    %edx,0xc8(%eax)
    6ebb:	c7 44 24 14 00 00 00 	movl   $0x0,0x14(%esp)
    6ec2:	00 
    6ec3:	eb 1b                	jmp    0x6ee0
    6ec5:	a1 08 69 01 00       	mov    0x16908,%eax
    6eca:	03 44 24 20          	add    0x20(%esp),%eax
    6ece:	8b 4c 24 1c          	mov    0x1c(%esp),%ecx
    6ed2:	89 81 c8 00 00 00    	mov    %eax,0xc8(%ecx)
    6ed8:	c7 44 24 14 01 00 00 	movl   $0x1,0x14(%esp)
    6edf:	00 
    6ee0:	f6 86 6c 3e 01 00 02 	testb  $0x2,0x13e6c(%esi)
    6ee7:	75 11                	jne    0x6efa
    6ee9:	89 d8                	mov    %ebx,%eax
    6eeb:	2b 44 24 54          	sub    0x54(%esp),%eax
    6eef:	3b 44 24 24          	cmp    0x24(%esp),%eax
    6ef3:	7c 0f                	jl     0x6f04
    6ef5:	e9 1e ff ff ff       	jmp    0x6e18
    6efa:	3b 5c 24 54          	cmp    0x54(%esp),%ebx
    6efe:	0f 85 b3 00 00 00    	jne    0x6fb7
    6f04:	85 ff                	test   %edi,%edi
    6f06:	0f 8e 0c ff ff ff    	jle    0x6e18
    6f0c:	83 7c 24 14 00       	cmpl   $0x0,0x14(%esp)
    6f11:	74 12                	je     0x6f25
    6f13:	8b 15 00 2d 01 00    	mov    0x12d00,%edx
    6f19:	8b 42 0c             	mov    0xc(%edx),%eax
    6f1c:	f6 c4 20             	test   $0x20,%ah
    6f1f:	0f 85 ed fe ff ff    	jne    0x6e12
    6f25:	a1 00 2d 01 00       	mov    0x12d00,%eax
    6f2a:	89 44 24 1c          	mov    %eax,0x1c(%esp)
    6f2e:	83 78 0c 00          	cmpl   $0x0,0xc(%eax)
    6f32:	0f 85 e0 fe ff ff    	jne    0x6e18
    6f38:	8b 96 b4 46 01 00    	mov    0x146b4(%esi),%edx
    6f3e:	89 54 24 0c          	mov    %edx,0xc(%esp)
    6f42:	8b 86 b8 46 01 00    	mov    0x146b8(%esi),%eax
    6f48:	39 c2                	cmp    %eax,%edx
    6f4a:	0f 84 f5 fe ff ff    	je     0x6e45
    6f50:	8b 8e 6c 3e 01 00    	mov    0x13e6c(%esi),%ecx
    6f56:	83 e1 02             	and    $0x2,%ecx
    6f59:	89 4c 24 10          	mov    %ecx,0x10(%esp)
    6f5d:	74 1a                	je     0x6f79
    6f5f:	83 be b0 46 01 00 00 	cmpl   $0x0,0x146b0(%esi)
    6f66:	75 11                	jne    0x6f79
    6f68:	48                   	dec    %eax
    6f69:	29 d0                	sub    %edx,%eax
    6f6b:	25 ff 03 00 00       	and    $0x3ff,%eax
    6f70:	83 f8 14             	cmp    $0x14,%eax
    6f73:	0f 87 cc fe ff ff    	ja     0x6e45
    6f79:	0f b6 86 75 3e 01 00 	movzbl 0x13e75(%esi),%eax
    6f80:	89 dd                	mov    %ebx,%ebp
    6f82:	8d 96 60 3e 01 00    	lea    0x13e60(%esi),%edx
    6f88:	89 74 24 18          	mov    %esi,0x18(%esp)
    6f8c:	89 c6                	mov    %eax,%esi
    6f8e:	eb 67                	jmp    0x6ff7
    6f90:	8b 5c 24 54          	mov    0x54(%esp),%ebx
    6f94:	e9 7f fe ff ff       	jmp    0x6e18
    6f99:	b8 ff ff ff ff       	mov    $0xffffffff,%eax
    6f9e:	e9 9a fe ff ff       	jmp    0x6e3d
    6fa3:	b8 ff ff ff ff       	mov    $0xffffffff,%eax
    6fa8:	e9 90 fe ff ff       	jmp    0x6e3d
    6fad:	b8 fc ff ff ff       	mov    $0xfffffffc,%eax
    6fb2:	e9 86 fe ff ff       	jmp    0x6e3d
    6fb7:	8b 44 24 1c          	mov    0x1c(%esp),%eax
    6fbb:	8b 7c 24 2c          	mov    0x2c(%esp),%edi
    6fbf:	89 b8 c8 00 00 00    	mov    %edi,0xc8(%eax)
    6fc5:	e9 6d fe ff ff       	jmp    0x6e37
    6fca:	ff 8a 50 08 00 00    	decl   0x850(%edx)
    6fd0:	83 7c 24 10 00       	cmpl   $0x0,0x10(%esp)
    6fd5:	0f 85 a8 fe ff ff    	jne    0x6e83
    6fdb:	8d 5d 01             	lea    0x1(%ebp),%ebx
    6fde:	64 88 4d 00          	mov    %cl,%fs:0x0(%ebp)
    6fe2:	4f                   	dec    %edi
    6fe3:	85 ff                	test   %edi,%edi
    6fe5:	0f 8e a0 fe ff ff    	jle    0x6e8b
    6feb:	39 44 24 0c          	cmp    %eax,0xc(%esp)
    6fef:	0f 84 96 fe ff ff    	je     0x6e8b
    6ff5:	89 dd                	mov    %ebx,%ebp
    6ff7:	8b 82 58 08 00 00    	mov    0x858(%edx),%eax
    6ffd:	8a 8c 10 60 08 00 00 	mov    0x860(%eax,%edx,1),%cl
    7004:	40                   	inc    %eax
    7005:	25 ff 03 00 00       	and    $0x3ff,%eax
    700a:	89 82 58 08 00 00    	mov    %eax,0x858(%edx)
    7010:	0f be d9             	movsbl %cl,%ebx
    7013:	39 f3                	cmp    %esi,%ebx
    7015:	74 b3                	je     0x6fca
    7017:	80 f9 0a             	cmp    $0xa,%cl
    701a:	75 bf                	jne    0x6fdb
    701c:	ff 8a 50 08 00 00    	decl   0x850(%edx)
    7022:	39 f3                	cmp    %esi,%ebx
    7024:	75 b5                	jne    0x6fdb
    7026:	eb a8                	jmp    0x6fd0
    7028:	55                   	push   %ebp
    7029:	57                   	push   %edi
    702a:	56                   	push   %esi
    702b:	53                   	push   %ebx
    702c:	83 ec 2c             	sub    $0x2c,%esp
    702f:	8b 54 24 40          	mov    0x40(%esp),%edx
    7033:	8b 5c 24 48          	mov    0x48(%esp),%ebx
    7037:	83 fa 02             	cmp    $0x2,%edx
    703a:	0f 87 04 01 00 00    	ja     0x7144
    7040:	85 db                	test   %ebx,%ebx
    7042:	0f 88 06 01 00 00    	js     0x714e
    7048:	8d 04 12             	lea    (%edx,%edx,1),%eax
    704b:	01 d0                	add    %edx,%eax
    704d:	89 c2                	mov    %eax,%edx
    704f:	c1 e2 05             	shl    $0x5,%edx
    7052:	01 d0                	add    %edx,%eax
    7054:	c1 e0 05             	shl    $0x5,%eax
    7057:	8d a8 60 3e 01 00    	lea    0x13e60(%eax),%ebp
    705d:	85 db                	test   %ebx,%ebx
    705f:	0f 8e d6 00 00 00    	jle    0x713b
    7065:	8b 7c 24 44          	mov    0x44(%esp),%edi
    7069:	8d 85 4c 04 00 00    	lea    0x44c(%ebp),%eax
    706f:	89 44 24 1c          	mov    %eax,0x1c(%esp)
    7073:	e9 ef 00 00 00       	jmp    0x7167
    7078:	83 7c 24 10 00       	cmpl   $0x0,0x10(%esp)
    707d:	0f 84 a0 00 00 00    	je     0x7123
    7083:	83 3d 20 6d 01 00 00 	cmpl   $0x0,0x16d20
    708a:	75 39                	jne    0x70c5
    708c:	83 7c 24 18 00       	cmpl   $0x0,0x18(%esp)
    7091:	75 12                	jne    0x70a5
    7093:	b1 0a                	mov    $0xa,%cl
    7095:	e9 89 00 00 00       	jmp    0x7123
    709a:	83 7c 24 14 00       	cmpl   $0x0,0x14(%esp)
    709f:	74 e2                	je     0x7083
    70a1:	b1 0d                	mov    $0xd,%cl
    70a3:	eb 7e                	jmp    0x7123
    70a5:	c7 05 20 6d 01 00 01 	movl   $0x1,0x16d20
    70ac:	00 00 00 
    70af:	c6 84 05 50 04 00 00 	movb   $0xd,0x450(%ebp,%eax,1)
    70b6:	0d 
    70b7:	40                   	inc    %eax
    70b8:	25 ff 03 00 00       	and    $0x3ff,%eax
    70bd:	89 85 44 04 00 00    	mov    %eax,0x444(%ebp)
    70c3:	eb 23                	jmp    0x70e8
    70c5:	b1 0a                	mov    $0xa,%cl
    70c7:	eb 5a                	jmp    0x7123
    70c9:	47                   	inc    %edi
    70ca:	4b                   	dec    %ebx
    70cb:	c7 05 20 6d 01 00 00 	movl   $0x0,0x16d20
    70d2:	00 00 00 
    70d5:	88 8c 05 50 04 00 00 	mov    %cl,0x450(%ebp,%eax,1)
    70dc:	40                   	inc    %eax
    70dd:	25 ff 03 00 00       	and    $0x3ff,%eax
    70e2:	89 85 44 04 00 00    	mov    %eax,0x444(%ebp)
    70e8:	85 db                	test   %ebx,%ebx
    70ea:	0f 8e 24 01 00 00    	jle    0x7214
    70f0:	8b 85 44 04 00 00    	mov    0x444(%ebp),%eax
    70f6:	89 c2                	mov    %eax,%edx
    70f8:	f7 d2                	not    %edx
    70fa:	03 95 48 04 00 00    	add    0x448(%ebp),%edx
    7100:	f7 c2 ff 03 00 00    	test   $0x3ff,%edx
    7106:	74 50                	je     0x7158
    7108:	64 8a 17             	mov    %fs:(%edi),%dl
    710b:	88 d1                	mov    %dl,%cl
    710d:	85 f6                	test   %esi,%esi
    710f:	74 b8                	je     0x70c9
    7111:	80 fa 0d             	cmp    $0xd,%dl
    7114:	0f 84 5e ff ff ff    	je     0x7078
    711a:	80 fa 0a             	cmp    $0xa,%dl
    711d:	0f 84 77 ff ff ff    	je     0x709a
    7123:	83 7c 24 0c 00       	cmpl   $0x0,0xc(%esp)
    7128:	74 9f                	je     0x70c9
    712a:	0f be d1             	movsbl %cl,%edx
    712d:	f6 82 e1 63 01 00 02 	testb  $0x2,0x163e1(%edx)
    7134:	74 93                	je     0x70c9
    7136:	83 e9 20             	sub    $0x20,%ecx
    7139:	eb 8e                	jmp    0x70c9
    713b:	8b 7c 24 44          	mov    0x44(%esp),%edi
    713f:	e9 da 00 00 00       	jmp    0x721e
    7144:	b8 ff ff ff ff       	mov    $0xffffffff,%eax
    7149:	e9 d6 00 00 00       	jmp    0x7224
    714e:	b8 ff ff ff ff       	mov    $0xffffffff,%eax
    7153:	e9 cc 00 00 00       	jmp    0x7224
    7158:	83 ec 0c             	sub    $0xc,%esp
    715b:	55                   	push   %ebp
    715c:	ff 55 2c             	call   *0x2c(%ebp)
    715f:	e8 d2 e3 ff ff       	call   0x5536
    7164:	83 c4 10             	add    $0x10,%esp
    7167:	8b 85 48 04 00 00    	mov    0x448(%ebp),%eax
    716d:	48                   	dec    %eax
    716e:	2b 85 44 04 00 00    	sub    0x444(%ebp),%eax
    7174:	a9 ff 03 00 00       	test   $0x3ff,%eax
    7179:	75 3f                	jne    0x71ba
    717b:	fa                   	cli    
    717c:	a1 00 2d 01 00       	mov    0x12d00,%eax
    7181:	83 78 0c 00          	cmpl   $0x0,0xc(%eax)
    7185:	75 32                	jne    0x71b9
    7187:	8b 74 24 1c          	mov    0x1c(%esp),%esi
    718b:	83 ec 0c             	sub    $0xc,%esp
    718e:	56                   	push   %esi
    718f:	e8 20 e5 ff ff       	call   0x56b4
    7194:	83 c4 10             	add    $0x10,%esp
    7197:	a1 00 2d 01 00       	mov    0x12d00,%eax
    719c:	83 78 0c 00          	cmpl   $0x0,0xc(%eax)
    71a0:	75 17                	jne    0x71b9
    71a2:	8b 85 48 04 00 00    	mov    0x448(%ebp),%eax
    71a8:	48                   	dec    %eax
    71a9:	2b 85 44 04 00 00    	sub    0x444(%ebp),%eax
    71af:	25 ff 03 00 00       	and    $0x3ff,%eax
    71b4:	83 f8 7f             	cmp    $0x7f,%eax
    71b7:	76 d2                	jbe    0x718b
    71b9:	fb                   	sti    
    71ba:	a1 00 2d 01 00       	mov    0x12d00,%eax
    71bf:	83 78 0c 00          	cmpl   $0x0,0xc(%eax)
    71c3:	75 59                	jne    0x721e
    71c5:	85 db                	test   %ebx,%ebx
    71c7:	7e 4b                	jle    0x7214
    71c9:	8b 85 44 04 00 00    	mov    0x444(%ebp),%eax
    71cf:	89 c2                	mov    %eax,%edx
    71d1:	f7 d2                	not    %edx
    71d3:	03 95 48 04 00 00    	add    0x448(%ebp),%edx
    71d9:	f7 c2 ff 03 00 00    	test   $0x3ff,%edx
    71df:	0f 84 73 ff ff ff    	je     0x7158
    71e5:	8b 55 04             	mov    0x4(%ebp),%edx
    71e8:	89 d6                	mov    %edx,%esi
    71ea:	83 e6 01             	and    $0x1,%esi
    71ed:	89 d1                	mov    %edx,%ecx
    71ef:	83 e1 20             	and    $0x20,%ecx
    71f2:	89 4c 24 14          	mov    %ecx,0x14(%esp)
    71f6:	89 d1                	mov    %edx,%ecx
    71f8:	83 e1 08             	and    $0x8,%ecx
    71fb:	89 4c 24 10          	mov    %ecx,0x10(%esp)
    71ff:	89 d1                	mov    %edx,%ecx
    7201:	83 e1 04             	and    $0x4,%ecx
    7204:	89 4c 24 18          	mov    %ecx,0x18(%esp)
    7208:	83 e2 02             	and    $0x2,%edx
    720b:	89 54 24 0c          	mov    %edx,0xc(%esp)
    720f:	e9 f4 fe ff ff       	jmp    0x7108
    7214:	83 ec 0c             	sub    $0xc,%esp
    7217:	55                   	push   %ebp
    7218:	ff 55 2c             	call   *0x2c(%ebp)
    721b:	83 c4 10             	add    $0x10,%esp
    721e:	89 f8                	mov    %edi,%eax
    7220:	2b 44 24 44          	sub    0x44(%esp),%eax
    7224:	83 c4 2c             	add    $0x2c,%esp
    7227:	5b                   	pop    %ebx
    7228:	5e                   	pop    %esi
    7229:	5f                   	pop    %edi
    722a:	5d                   	pop    %ebp
    722b:	c3                   	ret    
    722c:	83 ec 18             	sub    $0x18,%esp
    722f:	8b 54 24 1c          	mov    0x1c(%esp),%edx
    7233:	8d 04 12             	lea    (%edx,%edx,1),%eax
    7236:	01 d0                	add    %edx,%eax
    7238:	89 c2                	mov    %eax,%edx
    723a:	c1 e2 05             	shl    $0x5,%edx
    723d:	01 d0                	add    %edx,%eax
    723f:	c1 e0 05             	shl    $0x5,%eax
    7242:	05 60 3e 01 00       	add    $0x13e60,%eax
    7247:	50                   	push   %eax
    7248:	e8 59 f8 ff ff       	call   0x6aa6
    724d:	83 c4 1c             	add    $0x1c,%esp
    7250:	c3                   	ret    
    7251:	55                   	push   %ebp
    7252:	57                   	push   %edi
    7253:	56                   	push   %esi
    7254:	53                   	push   %ebx
    7255:	a1 a8 6d 01 00       	mov    0x16da8,%eax
    725a:	85 c0                	test   %eax,%eax
    725c:	75 09                	jne    0x7267
    725e:	83 3d 84 63 01 00 19 	cmpl   $0x19,0x16384
    7265:	74 3d                	je     0x72a4
    7267:	8d 14 80             	lea    (%eax,%eax,4),%edx
    726a:	c1 e2 05             	shl    $0x5,%edx
    726d:	8b 1d 8c 63 01 00    	mov    0x1638c,%ebx
    7273:	f7 d0                	not    %eax
    7275:	03 05 84 63 01 00    	add    0x16384,%eax
    727b:	8d 0c 80             	lea    (%eax,%eax,4),%ecx
    727e:	c1 e1 04             	shl    $0x4,%ecx
    7281:	d1 e9                	shr    %ecx
    7283:	8d 3c 1a             	lea    (%edx,%ebx,1),%edi
    7286:	8d b4 13 a0 00 00 00 	lea    0xa0(%ebx,%edx,1),%esi
    728d:	b8 20 07 00 00       	mov    $0x720,%eax
    7292:	ba 50 00 00 00       	mov    $0x50,%edx
    7297:	fc                   	cld    
    7298:	f3 a5                	rep movsl %ds:(%esi),%es:(%edi)
    729a:	89 d1                	mov    %edx,%ecx
    729c:	f3 66 ab             	rep stos %ax,%es:(%edi)
    729f:	5b                   	pop    %ebx
    72a0:	5e                   	pop    %esi
    72a1:	5f                   	pop    %edi
    72a2:	5d                   	pop    %ebp
    72a3:	c3                   	ret    
    72a4:	a1 8c 63 01 00       	mov    0x1638c,%eax
    72a9:	8d b0 a0 00 00 00    	lea    0xa0(%eax),%esi
    72af:	89 35 8c 63 01 00    	mov    %esi,0x1638c
    72b5:	8b 2d b4 6d 01 00    	mov    0x16db4,%ebp
    72bb:	8d 85 a0 00 00 00    	lea    0xa0(%ebp),%eax
    72c1:	a3 b4 6d 01 00       	mov    %eax,0x16db4
    72c6:	8b 1d 88 63 01 00    	mov    0x16388,%ebx
    72cc:	8d 83 a0 00 00 00    	lea    0xa0(%ebx),%eax
    72d2:	3d 00 00 0c 00       	cmp    $0xc0000,%eax
    72d7:	0f 86 91 00 00 00    	jbe    0x736e
    72dd:	b8 20 07 00 00       	mov    $0x720,%eax
    72e2:	b9 c0 03 00 00       	mov    $0x3c0,%ecx
    72e7:	bf 00 80 0b 00       	mov    $0xb8000,%edi
    72ec:	ba 50 00 00 00       	mov    $0x50,%edx
    72f1:	fc                   	cld    
    72f2:	f3 a5                	rep movsl %ds:(%esi),%es:(%edi)
    72f4:	89 d1                	mov    %edx,%ecx
    72f6:	f3 66 ab             	rep stos %ax,%es:(%edi)
    72f9:	81 c3 a0 80 0b 00    	add    $0xb80a0,%ebx
    72ff:	29 f3                	sub    %esi,%ebx
    7301:	89 1d 88 63 01 00    	mov    %ebx,0x16388
    7307:	81 c5 a0 80 0b 00    	add    $0xb80a0,%ebp
    730d:	29 f5                	sub    %esi,%ebp
    730f:	89 2d b4 6d 01 00    	mov    %ebp,0x16db4
    7315:	c7 05 8c 63 01 00 00 	movl   $0xb8000,0x1638c
    731c:	80 0b 00 
    731f:	fa                   	cli    
    7320:	be d4 03 00 00       	mov    $0x3d4,%esi
    7325:	b8 0c 00 00 00       	mov    $0xc,%eax
    732a:	89 f2                	mov    %esi,%edx
    732c:	ee                   	out    %al,(%dx)
    732d:	eb 00                	jmp    0x732f
    732f:	eb 00                	jmp    0x7331
    7331:	a1 8c 63 01 00       	mov    0x1638c,%eax
    7336:	8d 88 00 80 f4 ff    	lea    -0xb8000(%eax),%ecx
    733c:	89 c8                	mov    %ecx,%eax
    733e:	c1 e8 09             	shr    $0x9,%eax
    7341:	0f b6 c0             	movzbl %al,%eax
    7344:	bb d5 03 00 00       	mov    $0x3d5,%ebx
    7349:	89 da                	mov    %ebx,%edx
    734b:	ee                   	out    %al,(%dx)
    734c:	eb 00                	jmp    0x734e
    734e:	eb 00                	jmp    0x7350
    7350:	b8 0d 00 00 00       	mov    $0xd,%eax
    7355:	89 f2                	mov    %esi,%edx
    7357:	ee                   	out    %al,(%dx)
    7358:	eb 00                	jmp    0x735a
    735a:	eb 00                	jmp    0x735c
    735c:	d1 e9                	shr    %ecx
    735e:	0f b6 c1             	movzbl %cl,%eax
    7361:	89 da                	mov    %ebx,%edx
    7363:	ee                   	out    %al,(%dx)
    7364:	eb 00                	jmp    0x7366
    7366:	eb 00                	jmp    0x7368
    7368:	fb                   	sti    
    7369:	e9 31 ff ff ff       	jmp    0x729f
    736e:	a3 88 63 01 00       	mov    %eax,0x16388
    7373:	b8 20 07 20 07       	mov    $0x7200720,%eax
    7378:	b9 28 00 00 00       	mov    $0x28,%ecx
    737d:	89 df                	mov    %ebx,%edi
    737f:	fc                   	cld    
    7380:	f3 ab                	rep stos %eax,%es:(%edi)
    7382:	eb 9b                	jmp    0x731f
    7384:	57                   	push   %edi
    7385:	56                   	push   %esi
    7386:	8b 35 84 63 01 00    	mov    0x16384,%esi
    738c:	8d 56 ff             	lea    -0x1(%esi),%edx
    738f:	a1 8c 63 01 00       	mov    0x1638c,%eax
    7394:	83 e8 04             	sub    $0x4,%eax
    7397:	89 d1                	mov    %edx,%ecx
    7399:	2b 0d a8 6d 01 00    	sub    0x16da8,%ecx
    739f:	8d 0c 89             	lea    (%ecx,%ecx,4),%ecx
    73a2:	c1 e1 04             	shl    $0x4,%ecx
    73a5:	d1 e9                	shr    %ecx
    73a7:	8d 3c b6             	lea    (%esi,%esi,4),%edi
    73aa:	c1 e7 05             	shl    $0x5,%edi
    73ad:	01 c7                	add    %eax,%edi
    73af:	8d 34 92             	lea    (%edx,%edx,4),%esi
    73b2:	c1 e6 05             	shl    $0x5,%esi
    73b5:	01 c6                	add    %eax,%esi
    73b7:	b8 20 07 00 00       	mov    $0x720,%eax
    73bc:	ba 50 00 00 00       	mov    $0x50,%edx
    73c1:	fd                   	std    
    73c2:	f3 a5                	rep movsl %ds:(%esi),%es:(%edi)
    73c4:	83 c7 02             	add    $0x2,%edi
    73c7:	89 d1                	mov    %edx,%ecx
    73c9:	f3 66 ab             	rep stos %ax,%es:(%edi)
    73cc:	5e                   	pop    %esi
    73cd:	5f                   	pop    %edi
    73ce:	c3                   	ret    
    73cf:	a1 ac 6d 01 00       	mov    0x16dac,%eax
    73d4:	40                   	inc    %eax
    73d5:	3b 05 84 63 01 00    	cmp    0x16384,%eax
    73db:	73 10                	jae    0x73ed
    73dd:	a3 ac 6d 01 00       	mov    %eax,0x16dac
    73e2:	81 05 b4 6d 01 00 a0 	addl   $0xa0,0x16db4
    73e9:	00 00 00 
    73ec:	c3                   	ret    
    73ed:	e8 5f fe ff ff       	call   0x7251
    73f2:	c3                   	ret    
    73f3:	8b 0d 44 6d 01 00    	mov    0x16d44,%ecx
    73f9:	89 0d b0 6d 01 00    	mov    %ecx,0x16db0
    73ff:	8b 15 40 6d 01 00    	mov    0x16d40,%edx
    7405:	89 15 ac 6d 01 00    	mov    %edx,0x16dac
    740b:	8d 04 92             	lea    (%edx,%edx,4),%eax
    740e:	c1 e0 04             	shl    $0x4,%eax
    7411:	01 c8                	add    %ecx,%eax
    7413:	01 c0                	add    %eax,%eax
    7415:	03 05 8c 63 01 00    	add    0x1638c,%eax
    741b:	a3 b4 6d 01 00       	mov    %eax,0x16db4
    7420:	c3                   	ret    
    7421:	55                   	push   %ebp
    7422:	57                   	push   %edi
    7423:	56                   	push   %esi
    7424:	53                   	push   %ebx
    7425:	8a 15 80 63 01 00    	mov    0x16380,%dl
    742b:	b8 60 6d 01 00       	mov    $0x16d60,%eax
    7430:	8b 0d a0 6d 01 00    	mov    0x16da0,%ecx
    7436:	8d 1c 8d 64 6d 01 00 	lea    0x16d64(,%ecx,4),%ebx
    743d:	b1 00                	mov    $0x0,%cl
    743f:	bf 01 00 00 00       	mov    $0x1,%edi
    7444:	bd 07 00 00 00       	mov    $0x7,%ebp
    7449:	eb 1d                	jmp    0x7468
    744b:	89 f9                	mov    %edi,%ecx
    744d:	b2 0f                	mov    $0xf,%dl
    744f:	eb 10                	jmp    0x7461
    7451:	89 f9                	mov    %edi,%ecx
    7453:	b2 0f                	mov    $0xf,%dl
    7455:	eb 0a                	jmp    0x7461
    7457:	89 f9                	mov    %edi,%ecx
    7459:	b2 70                	mov    $0x70,%dl
    745b:	eb 04                	jmp    0x7461
    745d:	89 f9                	mov    %edi,%ecx
    745f:	89 ea                	mov    %ebp,%edx
    7461:	83 c0 04             	add    $0x4,%eax
    7464:	39 d8                	cmp    %ebx,%eax
    7466:	74 0e                	je     0x7476
    7468:	83 38 1b             	cmpl   $0x1b,(%eax)
    746b:	77 f4                	ja     0x7461
    746d:	8b 30                	mov    (%eax),%esi
    746f:	ff 24 b5 10 ee 00 00 	jmp    *0xee10(,%esi,4)
    7476:	84 c9                	test   %cl,%cl
    7478:	75 05                	jne    0x747f
    747a:	5b                   	pop    %ebx
    747b:	5e                   	pop    %esi
    747c:	5f                   	pop    %edi
    747d:	5d                   	pop    %ebp
    747e:	c3                   	ret    
    747f:	88 15 80 63 01 00    	mov    %dl,0x16380
    7485:	eb f3                	jmp    0x747a
    7487:	55                   	push   %ebp
    7488:	57                   	push   %edi
    7489:	56                   	push   %esi
    748a:	53                   	push   %ebx
    748b:	83 ec 1c             	sub    $0x1c,%esp
    748e:	8b 5c 24 30          	mov    0x30(%esp),%ebx
    7492:	8b 83 44 04 00 00    	mov    0x444(%ebx),%eax
    7498:	2b 83 48 04 00 00    	sub    0x448(%ebx),%eax
    749e:	25 ff 03 00 00       	and    $0x3ff,%eax
    74a3:	89 c5                	mov    %eax,%ebp
    74a5:	4d                   	dec    %ebp
    74a6:	83 fd ff             	cmp    $0xffffffff,%ebp
    74a9:	0f 84 37 08 00 00    	je     0x7ce6
    74af:	8b 83 48 04 00 00    	mov    0x448(%ebx),%eax
    74b5:	0f b6 b4 03 50 04 00 	movzbl 0x450(%ebx,%eax,1),%esi
    74bc:	00 
    74bd:	40                   	inc    %eax
    74be:	25 ff 03 00 00       	and    $0x3ff,%eax
    74c3:	89 83 48 04 00 00    	mov    %eax,0x448(%ebx)
    74c9:	83 3d a4 6d 01 00 04 	cmpl   $0x4,0x16da4
    74d0:	77 d3                	ja     0x74a5
    74d2:	a1 a4 6d 01 00       	mov    0x16da4,%eax
    74d7:	ff 24 85 80 ee 00 00 	jmp    *0xee80(,%eax,4)
    74de:	8d 46 e0             	lea    -0x20(%esi),%eax
    74e1:	3c 5e                	cmp    $0x5e,%al
    74e3:	77 47                	ja     0x752c
    74e5:	a1 b0 6d 01 00       	mov    0x16db0,%eax
    74ea:	83 f8 4f             	cmp    $0x4f,%eax
    74ed:	77 24                	ja     0x7513
    74ef:	8b 15 b4 6d 01 00    	mov    0x16db4,%edx
    74f5:	8a 0d 80 63 01 00    	mov    0x16380,%cl
    74fb:	89 f0                	mov    %esi,%eax
    74fd:	88 cc                	mov    %cl,%ah
    74ff:	66 89 02             	mov    %ax,(%edx)
    7502:	83 c2 02             	add    $0x2,%edx
    7505:	89 15 b4 6d 01 00    	mov    %edx,0x16db4
    750b:	ff 05 b0 6d 01 00    	incl   0x16db0
    7511:	eb 92                	jmp    0x74a5
    7513:	83 e8 50             	sub    $0x50,%eax
    7516:	a3 b0 6d 01 00       	mov    %eax,0x16db0
    751b:	81 2d b4 6d 01 00 a0 	subl   $0xa0,0x16db4
    7522:	00 00 00 
    7525:	e8 a5 fe ff ff       	call   0x73cf
    752a:	eb c3                	jmp    0x74ef
    752c:	89 f0                	mov    %esi,%eax
    752e:	3c 1b                	cmp    $0x1b,%al
    7530:	0f 84 83 00 00 00    	je     0x75b9
    7536:	8d 46 f6             	lea    -0xa(%esi),%eax
    7539:	3c 02                	cmp    $0x2,%al
    753b:	0f 86 87 00 00 00    	jbe    0x75c8
    7541:	89 f0                	mov    %esi,%eax
    7543:	3c 0d                	cmp    $0xd,%al
    7545:	0f 84 87 00 00 00    	je     0x75d2
    754b:	0f be c0             	movsbl %al,%eax
    754e:	0f b6 53 13          	movzbl 0x13(%ebx),%edx
    7552:	39 d0                	cmp    %edx,%eax
    7554:	0f 84 94 00 00 00    	je     0x75ee
    755a:	89 f0                	mov    %esi,%eax
    755c:	3c 08                	cmp    $0x8,%al
    755e:	0f 84 b7 00 00 00    	je     0x761b
    7564:	3c 09                	cmp    $0x9,%al
    7566:	0f 85 39 ff ff ff    	jne    0x74a5
    756c:	8b 15 b0 6d 01 00    	mov    0x16db0,%edx
    7572:	88 d1                	mov    %dl,%cl
    7574:	83 e1 07             	and    $0x7,%ecx
    7577:	b0 08                	mov    $0x8,%al
    7579:	29 c8                	sub    %ecx,%eax
    757b:	0f be c0             	movsbl %al,%eax
    757e:	01 c2                	add    %eax,%edx
    7580:	89 15 b0 6d 01 00    	mov    %edx,0x16db0
    7586:	01 c0                	add    %eax,%eax
    7588:	03 05 b4 6d 01 00    	add    0x16db4,%eax
    758e:	a3 b4 6d 01 00       	mov    %eax,0x16db4
    7593:	83 fa 50             	cmp    $0x50,%edx
    7596:	0f 86 09 ff ff ff    	jbe    0x74a5
    759c:	83 ea 50             	sub    $0x50,%edx
    759f:	89 15 b0 6d 01 00    	mov    %edx,0x16db0
    75a5:	2d a0 00 00 00       	sub    $0xa0,%eax
    75aa:	a3 b4 6d 01 00       	mov    %eax,0x16db4
    75af:	e8 1b fe ff ff       	call   0x73cf
    75b4:	e9 ec fe ff ff       	jmp    0x74a5
    75b9:	c7 05 a4 6d 01 00 01 	movl   $0x1,0x16da4
    75c0:	00 00 00 
    75c3:	e9 dd fe ff ff       	jmp    0x74a5
    75c8:	e8 02 fe ff ff       	call   0x73cf
    75cd:	e9 d3 fe ff ff       	jmp    0x74a5
    75d2:	a1 b0 6d 01 00       	mov    0x16db0,%eax
    75d7:	01 c0                	add    %eax,%eax
    75d9:	29 05 b4 6d 01 00    	sub    %eax,0x16db4
    75df:	c7 05 b0 6d 01 00 00 	movl   $0x0,0x16db0
    75e6:	00 00 00 
    75e9:	e9 b7 fe ff ff       	jmp    0x74a5
    75ee:	a1 b0 6d 01 00       	mov    0x16db0,%eax
    75f3:	85 c0                	test   %eax,%eax
    75f5:	0f 84 aa fe ff ff    	je     0x74a5
    75fb:	8b 15 b4 6d 01 00    	mov    0x16db4,%edx
    7601:	8d 4a fe             	lea    -0x2(%edx),%ecx
    7604:	89 0d b4 6d 01 00    	mov    %ecx,0x16db4
    760a:	48                   	dec    %eax
    760b:	a3 b0 6d 01 00       	mov    %eax,0x16db0
    7610:	66 c7 42 fe 20 07    	movw   $0x720,-0x2(%edx)
    7616:	e9 8a fe ff ff       	jmp    0x74a5
    761b:	a1 b0 6d 01 00       	mov    0x16db0,%eax
    7620:	85 c0                	test   %eax,%eax
    7622:	0f 84 7d fe ff ff    	je     0x74a5
    7628:	48                   	dec    %eax
    7629:	a3 b0 6d 01 00       	mov    %eax,0x16db0
    762e:	83 2d b4 6d 01 00 02 	subl   $0x2,0x16db4
    7635:	e9 6b fe ff ff       	jmp    0x74a5
    763a:	c7 05 a4 6d 01 00 00 	movl   $0x0,0x16da4
    7641:	00 00 00 
    7644:	89 f0                	mov    %esi,%eax
    7646:	3c 5b                	cmp    $0x5b,%al
    7648:	74 39                	je     0x7683
    764a:	3c 45                	cmp    $0x45,%al
    764c:	74 44                	je     0x7692
    764e:	3c 4d                	cmp    $0x4d,%al
    7650:	74 74                	je     0x76c6
    7652:	3c 44                	cmp    $0x44,%al
    7654:	0f 84 98 00 00 00    	je     0x76f2
    765a:	3c 5a                	cmp    $0x5a,%al
    765c:	0f 84 9a 00 00 00    	je     0x76fc
    7662:	a1 b0 6d 01 00       	mov    0x16db0,%eax
    7667:	83 f8 37             	cmp    $0x37,%eax
    766a:	0f 84 bd 00 00 00    	je     0x772d
    7670:	83 f8 38             	cmp    $0x38,%eax
    7673:	0f 85 2c fe ff ff    	jne    0x74a5
    7679:	e8 75 fd ff ff       	call   0x73f3
    767e:	e9 22 fe ff ff       	jmp    0x74a5
    7683:	c7 05 a4 6d 01 00 02 	movl   $0x2,0x16da4
    768a:	00 00 00 
    768d:	e9 13 fe ff ff       	jmp    0x74a5
    7692:	a1 ac 6d 01 00       	mov    0x16dac,%eax
    7697:	40                   	inc    %eax
    7698:	83 f8 18             	cmp    $0x18,%eax
    769b:	0f 87 04 fe ff ff    	ja     0x74a5
    76a1:	c7 05 b0 6d 01 00 00 	movl   $0x0,0x16db0
    76a8:	00 00 00 
    76ab:	a3 ac 6d 01 00       	mov    %eax,0x16dac
    76b0:	8d 04 80             	lea    (%eax,%eax,4),%eax
    76b3:	c1 e0 05             	shl    $0x5,%eax
    76b6:	03 05 8c 63 01 00    	add    0x1638c,%eax
    76bc:	a3 b4 6d 01 00       	mov    %eax,0x16db4
    76c1:	e9 df fd ff ff       	jmp    0x74a5
    76c6:	a1 ac 6d 01 00       	mov    0x16dac,%eax
    76cb:	3b 05 a8 6d 01 00    	cmp    0x16da8,%eax
    76d1:	76 15                	jbe    0x76e8
    76d3:	48                   	dec    %eax
    76d4:	a3 ac 6d 01 00       	mov    %eax,0x16dac
    76d9:	81 2d b4 6d 01 00 a0 	subl   $0xa0,0x16db4
    76e0:	00 00 00 
    76e3:	e9 bd fd ff ff       	jmp    0x74a5
    76e8:	e8 97 fc ff ff       	call   0x7384
    76ed:	e9 b3 fd ff ff       	jmp    0x74a5
    76f2:	e8 d8 fc ff ff       	call   0x73cf
    76f7:	e9 a9 fd ff ff       	jmp    0x74a5
    76fc:	fa                   	cli    
    76fd:	8b 43 34             	mov    0x34(%ebx),%eax
    7700:	b9 c3 f2 00 00       	mov    $0xf2c3,%ecx
    7705:	b2 1b                	mov    $0x1b,%dl
    7707:	88 54 03 40          	mov    %dl,0x40(%ebx,%eax,1)
    770b:	40                   	inc    %eax
    770c:	25 ff 03 00 00       	and    $0x3ff,%eax
    7711:	41                   	inc    %ecx
    7712:	8a 11                	mov    (%ecx),%dl
    7714:	84 d2                	test   %dl,%dl
    7716:	75 ef                	jne    0x7707
    7718:	89 43 34             	mov    %eax,0x34(%ebx)
    771b:	fb                   	sti    
    771c:	83 ec 0c             	sub    $0xc,%esp
    771f:	53                   	push   %ebx
    7720:	e8 81 f3 ff ff       	call   0x6aa6
    7725:	83 c4 10             	add    $0x10,%esp
    7728:	e9 78 fd ff ff       	jmp    0x74a5
    772d:	c7 05 44 6d 01 00 37 	movl   $0x37,0x16d44
    7734:	00 00 00 
    7737:	a1 ac 6d 01 00       	mov    0x16dac,%eax
    773c:	a3 40 6d 01 00       	mov    %eax,0x16d40
    7741:	e9 5f fd ff ff       	jmp    0x74a5
    7746:	b8 60 6d 01 00       	mov    $0x16d60,%eax
    774b:	ba a0 6d 01 00       	mov    $0x16da0,%edx
    7750:	c7 00 00 00 00 00    	movl   $0x0,(%eax)
    7756:	83 c0 04             	add    $0x4,%eax
    7759:	39 c2                	cmp    %eax,%edx
    775b:	75 f3                	jne    0x7750
    775d:	c7 05 a0 6d 01 00 00 	movl   $0x0,0x16da0
    7764:	00 00 00 
    7767:	c7 05 a4 6d 01 00 03 	movl   $0x3,0x16da4
    776e:	00 00 00 
    7771:	89 f0                	mov    %esi,%eax
    7773:	3c 3f                	cmp    $0x3f,%al
    7775:	0f 84 2a fd ff ff    	je     0x74a5
    777b:	3c 3b                	cmp    $0x3b,%al
    777d:	75 16                	jne    0x7795
    777f:	b8 00 00 00 00       	mov    $0x0,%eax
    7784:	40                   	inc    %eax
    7785:	a3 a0 6d 01 00       	mov    %eax,0x16da0
    778a:	e9 16 fd ff ff       	jmp    0x74a5
    778f:	89 f0                	mov    %esi,%eax
    7791:	3c 3b                	cmp    $0x3b,%al
    7793:	74 2e                	je     0x77c3
    7795:	8d 46 d0             	lea    -0x30(%esi),%eax
    7798:	3c 09                	cmp    $0x9,%al
    779a:	77 40                	ja     0x77dc
    779c:	8b 15 a0 6d 01 00    	mov    0x16da0,%edx
    77a2:	8b 04 95 60 6d 01 00 	mov    0x16d60(,%edx,4),%eax
    77a9:	8d 04 80             	lea    (%eax,%eax,4),%eax
    77ac:	8d 44 00 d0          	lea    -0x30(%eax,%eax,1),%eax
    77b0:	89 f1                	mov    %esi,%ecx
    77b2:	0f be f1             	movsbl %cl,%esi
    77b5:	01 c6                	add    %eax,%esi
    77b7:	89 34 95 60 6d 01 00 	mov    %esi,0x16d60(,%edx,4)
    77be:	e9 e2 fc ff ff       	jmp    0x74a5
    77c3:	a1 a0 6d 01 00       	mov    0x16da0,%eax
    77c8:	83 f8 0e             	cmp    $0xe,%eax
    77cb:	76 b7                	jbe    0x7784
    77cd:	c7 05 a4 6d 01 00 00 	movl   $0x0,0x16da4
    77d4:	00 00 00 
    77d7:	e9 c9 fc ff ff       	jmp    0x74a5
    77dc:	c7 05 a4 6d 01 00 00 	movl   $0x0,0x16da4
    77e3:	00 00 00 
    77e6:	8d 46 c0             	lea    -0x40(%esi),%eax
    77e9:	3c 35                	cmp    $0x35,%al
    77eb:	0f 87 b4 fc ff ff    	ja     0x74a5
    77f1:	0f b6 c0             	movzbl %al,%eax
    77f4:	ff 24 85 94 ee 00 00 	jmp    *0xee94(,%eax,4)
    77fb:	a1 60 6d 01 00       	mov    0x16d60,%eax
    7800:	85 c0                	test   %eax,%eax
    7802:	0f 84 30 05 00 00    	je     0x7d38
    7808:	48                   	dec    %eax
    7809:	a3 60 6d 01 00       	mov    %eax,0x16d60
    780e:	83 f8 4f             	cmp    $0x4f,%eax
    7811:	0f 87 8e fc ff ff    	ja     0x74a5
    7817:	8b 15 ac 6d 01 00    	mov    0x16dac,%edx
    781d:	e9 1c 05 00 00       	jmp    0x7d3e
    7822:	83 3d 60 6d 01 00 00 	cmpl   $0x0,0x16d60
    7829:	75 0a                	jne    0x7835
    782b:	c7 05 60 6d 01 00 01 	movl   $0x1,0x16d60
    7832:	00 00 00 
    7835:	8b 15 b0 6d 01 00    	mov    0x16db0,%edx
    783b:	83 fa 4f             	cmp    $0x4f,%edx
    783e:	0f 87 61 fc ff ff    	ja     0x74a5
    7844:	a1 ac 6d 01 00       	mov    0x16dac,%eax
    7849:	2b 05 60 6d 01 00    	sub    0x16d60,%eax
    784f:	83 f8 18             	cmp    $0x18,%eax
    7852:	0f 87 4d fc ff ff    	ja     0x74a5
    7858:	a3 ac 6d 01 00       	mov    %eax,0x16dac
    785d:	8d 04 80             	lea    (%eax,%eax,4),%eax
    7860:	c1 e0 04             	shl    $0x4,%eax
    7863:	01 c2                	add    %eax,%edx
    7865:	01 d2                	add    %edx,%edx
    7867:	89 d0                	mov    %edx,%eax
    7869:	03 05 8c 63 01 00    	add    0x1638c,%eax
    786f:	a3 b4 6d 01 00       	mov    %eax,0x16db4
    7874:	e9 2c fc ff ff       	jmp    0x74a5
    7879:	83 3d 60 6d 01 00 00 	cmpl   $0x0,0x16d60
    7880:	75 0a                	jne    0x788c
    7882:	c7 05 60 6d 01 00 01 	movl   $0x1,0x16d60
    7889:	00 00 00 
    788c:	8b 15 b0 6d 01 00    	mov    0x16db0,%edx
    7892:	83 fa 4f             	cmp    $0x4f,%edx
    7895:	0f 87 0a fc ff ff    	ja     0x74a5
    789b:	a1 ac 6d 01 00       	mov    0x16dac,%eax
    78a0:	03 05 60 6d 01 00    	add    0x16d60,%eax
    78a6:	83 f8 18             	cmp    $0x18,%eax
    78a9:	0f 87 f6 fb ff ff    	ja     0x74a5
    78af:	a3 ac 6d 01 00       	mov    %eax,0x16dac
    78b4:	8d 04 80             	lea    (%eax,%eax,4),%eax
    78b7:	c1 e0 04             	shl    $0x4,%eax
    78ba:	01 c2                	add    %eax,%edx
    78bc:	01 d2                	add    %edx,%edx
    78be:	89 d0                	mov    %edx,%eax
    78c0:	03 05 8c 63 01 00    	add    0x1638c,%eax
    78c6:	a3 b4 6d 01 00       	mov    %eax,0x16db4
    78cb:	e9 d5 fb ff ff       	jmp    0x74a5
    78d0:	83 3d 60 6d 01 00 00 	cmpl   $0x0,0x16d60
    78d7:	75 0a                	jne    0x78e3
    78d9:	c7 05 60 6d 01 00 01 	movl   $0x1,0x16d60
    78e0:	00 00 00 
    78e3:	a1 b0 6d 01 00       	mov    0x16db0,%eax
    78e8:	03 05 60 6d 01 00    	add    0x16d60,%eax
    78ee:	83 f8 4f             	cmp    $0x4f,%eax
    78f1:	0f 87 ae fb ff ff    	ja     0x74a5
    78f7:	8b 15 ac 6d 01 00    	mov    0x16dac,%edx
    78fd:	83 fa 18             	cmp    $0x18,%edx
    7900:	0f 87 9f fb ff ff    	ja     0x74a5
    7906:	a3 b0 6d 01 00       	mov    %eax,0x16db0
    790b:	8d 14 92             	lea    (%edx,%edx,4),%edx
    790e:	c1 e2 04             	shl    $0x4,%edx
    7911:	01 d0                	add    %edx,%eax
    7913:	01 c0                	add    %eax,%eax
    7915:	03 05 8c 63 01 00    	add    0x1638c,%eax
    791b:	a3 b4 6d 01 00       	mov    %eax,0x16db4
    7920:	e9 80 fb ff ff       	jmp    0x74a5
    7925:	83 3d 60 6d 01 00 00 	cmpl   $0x0,0x16d60
    792c:	75 0a                	jne    0x7938
    792e:	c7 05 60 6d 01 00 01 	movl   $0x1,0x16d60
    7935:	00 00 00 
    7938:	a1 b0 6d 01 00       	mov    0x16db0,%eax
    793d:	2b 05 60 6d 01 00    	sub    0x16d60,%eax
    7943:	83 f8 4f             	cmp    $0x4f,%eax
    7946:	0f 87 59 fb ff ff    	ja     0x74a5
    794c:	8b 15 ac 6d 01 00    	mov    0x16dac,%edx
    7952:	83 fa 18             	cmp    $0x18,%edx
    7955:	0f 87 4a fb ff ff    	ja     0x74a5
    795b:	a3 b0 6d 01 00       	mov    %eax,0x16db0
    7960:	8d 14 92             	lea    (%edx,%edx,4),%edx
    7963:	c1 e2 04             	shl    $0x4,%edx
    7966:	01 d0                	add    %edx,%eax
    7968:	01 c0                	add    %eax,%eax
    796a:	03 05 8c 63 01 00    	add    0x1638c,%eax
    7970:	a3 b4 6d 01 00       	mov    %eax,0x16db4
    7975:	e9 2b fb ff ff       	jmp    0x74a5
    797a:	83 3d 60 6d 01 00 00 	cmpl   $0x0,0x16d60
    7981:	75 0a                	jne    0x798d
    7983:	c7 05 60 6d 01 00 01 	movl   $0x1,0x16d60
    798a:	00 00 00 
    798d:	a1 ac 6d 01 00       	mov    0x16dac,%eax
    7992:	03 05 60 6d 01 00    	add    0x16d60,%eax
    7998:	83 f8 18             	cmp    $0x18,%eax
    799b:	0f 87 04 fb ff ff    	ja     0x74a5
    79a1:	c7 05 b0 6d 01 00 00 	movl   $0x0,0x16db0
    79a8:	00 00 00 
    79ab:	a3 ac 6d 01 00       	mov    %eax,0x16dac
    79b0:	8d 04 80             	lea    (%eax,%eax,4),%eax
    79b3:	c1 e0 05             	shl    $0x5,%eax
    79b6:	03 05 8c 63 01 00    	add    0x1638c,%eax
    79bc:	a3 b4 6d 01 00       	mov    %eax,0x16db4
    79c1:	e9 df fa ff ff       	jmp    0x74a5
    79c6:	83 3d 60 6d 01 00 00 	cmpl   $0x0,0x16d60
    79cd:	75 0a                	jne    0x79d9
    79cf:	c7 05 60 6d 01 00 01 	movl   $0x1,0x16d60
    79d6:	00 00 00 
    79d9:	a1 ac 6d 01 00       	mov    0x16dac,%eax
    79de:	2b 05 60 6d 01 00    	sub    0x16d60,%eax
    79e4:	83 f8 18             	cmp    $0x18,%eax
    79e7:	0f 87 b8 fa ff ff    	ja     0x74a5
    79ed:	c7 05 b0 6d 01 00 00 	movl   $0x0,0x16db0
    79f4:	00 00 00 
    79f7:	a3 ac 6d 01 00       	mov    %eax,0x16dac
    79fc:	8d 04 80             	lea    (%eax,%eax,4),%eax
    79ff:	c1 e0 05             	shl    $0x5,%eax
    7a02:	03 05 8c 63 01 00    	add    0x1638c,%eax
    7a08:	a3 b4 6d 01 00       	mov    %eax,0x16db4
    7a0d:	e9 93 fa ff ff       	jmp    0x74a5
    7a12:	a1 60 6d 01 00       	mov    0x16d60,%eax
    7a17:	85 c0                	test   %eax,%eax
    7a19:	0f 84 47 03 00 00    	je     0x7d66
    7a1f:	48                   	dec    %eax
    7a20:	a3 60 6d 01 00       	mov    %eax,0x16d60
    7a25:	8b 15 b0 6d 01 00    	mov    0x16db0,%edx
    7a2b:	83 fa 4f             	cmp    $0x4f,%edx
    7a2e:	0f 87 71 fa ff ff    	ja     0x74a5
    7a34:	83 f8 18             	cmp    $0x18,%eax
    7a37:	0f 87 68 fa ff ff    	ja     0x74a5
    7a3d:	e9 33 03 00 00       	jmp    0x7d75
    7a42:	a1 60 6d 01 00       	mov    0x16d60,%eax
    7a47:	85 c0                	test   %eax,%eax
    7a49:	74 06                	je     0x7a51
    7a4b:	48                   	dec    %eax
    7a4c:	a3 60 6d 01 00       	mov    %eax,0x16d60
    7a51:	a1 64 6d 01 00       	mov    0x16d64,%eax
    7a56:	85 c0                	test   %eax,%eax
    7a58:	0f 84 38 03 00 00    	je     0x7d96
    7a5e:	48                   	dec    %eax
    7a5f:	a3 64 6d 01 00       	mov    %eax,0x16d64
    7a64:	83 f8 4f             	cmp    $0x4f,%eax
    7a67:	0f 87 38 fa ff ff    	ja     0x74a5
    7a6d:	8b 15 60 6d 01 00    	mov    0x16d60,%edx
    7a73:	e9 24 03 00 00       	jmp    0x7d9c
    7a78:	a1 60 6d 01 00       	mov    0x16d60,%eax
    7a7d:	83 f8 01             	cmp    $0x1,%eax
    7a80:	74 39                	je     0x7abb
    7a82:	83 f8 01             	cmp    $0x1,%eax
    7a85:	72 16                	jb     0x7a9d
    7a87:	83 f8 02             	cmp    $0x2,%eax
    7a8a:	0f 85 15 fa ff ff    	jne    0x74a5
    7a90:	8b 3d 8c 63 01 00    	mov    0x1638c,%edi
    7a96:	b9 d0 07 00 00       	mov    $0x7d0,%ecx
    7a9b:	eb 10                	jmp    0x7aad
    7a9d:	8b 3d b4 6d 01 00    	mov    0x16db4,%edi
    7aa3:	8b 0d 88 63 01 00    	mov    0x16388,%ecx
    7aa9:	29 f9                	sub    %edi,%ecx
    7aab:	d1 e9                	shr    %ecx
    7aad:	b8 20 07 00 00       	mov    $0x720,%eax
    7ab2:	fc                   	cld    
    7ab3:	f3 66 ab             	rep stos %ax,%es:(%edi)
    7ab6:	e9 ea f9 ff ff       	jmp    0x74a5
    7abb:	8b 3d 8c 63 01 00    	mov    0x1638c,%edi
    7ac1:	8b 0d b4 6d 01 00    	mov    0x16db4,%ecx
    7ac7:	29 f9                	sub    %edi,%ecx
    7ac9:	d1 e9                	shr    %ecx
    7acb:	eb e0                	jmp    0x7aad
    7acd:	a1 60 6d 01 00       	mov    0x16d60,%eax
    7ad2:	83 f8 01             	cmp    $0x1,%eax
    7ad5:	74 4d                	je     0x7b24
    7ad7:	83 f8 01             	cmp    $0x1,%eax
    7ada:	72 2b                	jb     0x7b07
    7adc:	83 f8 02             	cmp    $0x2,%eax
    7adf:	0f 85 c0 f9 ff ff    	jne    0x74a5
    7ae5:	a1 b0 6d 01 00       	mov    0x16db0,%eax
    7aea:	01 c0                	add    %eax,%eax
    7aec:	8b 3d b4 6d 01 00    	mov    0x16db4,%edi
    7af2:	29 c7                	sub    %eax,%edi
    7af4:	b9 50 00 00 00       	mov    $0x50,%ecx
    7af9:	b8 20 07 00 00       	mov    $0x720,%eax
    7afe:	fc                   	cld    
    7aff:	f3 66 ab             	rep stos %ax,%es:(%edi)
    7b02:	e9 9e f9 ff ff       	jmp    0x74a5
    7b07:	a1 b0 6d 01 00       	mov    0x16db0,%eax
    7b0c:	83 f8 4f             	cmp    $0x4f,%eax
    7b0f:	0f 87 90 f9 ff ff    	ja     0x74a5
    7b15:	b9 50 00 00 00       	mov    $0x50,%ecx
    7b1a:	29 c1                	sub    %eax,%ecx
    7b1c:	8b 3d b4 6d 01 00    	mov    0x16db4,%edi
    7b22:	eb d5                	jmp    0x7af9
    7b24:	a1 b0 6d 01 00       	mov    0x16db0,%eax
    7b29:	8d 14 00             	lea    (%eax,%eax,1),%edx
    7b2c:	8b 3d b4 6d 01 00    	mov    0x16db4,%edi
    7b32:	29 d7                	sub    %edx,%edi
    7b34:	89 c1                	mov    %eax,%ecx
    7b36:	83 f8 50             	cmp    $0x50,%eax
    7b39:	76 be                	jbe    0x7af9
    7b3b:	b9 50 00 00 00       	mov    $0x50,%ecx
    7b40:	eb b7                	jmp    0x7af9
    7b42:	a1 60 6d 01 00       	mov    0x16d60,%eax
    7b47:	83 f8 19             	cmp    $0x19,%eax
    7b4a:	0f 87 7a 02 00 00    	ja     0x7dca
    7b50:	89 c6                	mov    %eax,%esi
    7b52:	85 c0                	test   %eax,%eax
    7b54:	0f 85 75 02 00 00    	jne    0x7dcf
    7b5a:	be 01 00 00 00       	mov    $0x1,%esi
    7b5f:	e9 6b 02 00 00       	jmp    0x7dcf
    7b64:	a1 60 6d 01 00       	mov    0x16d60,%eax
    7b69:	83 f8 19             	cmp    $0x19,%eax
    7b6c:	0f 87 a2 02 00 00    	ja     0x7e14
    7b72:	89 c6                	mov    %eax,%esi
    7b74:	85 c0                	test   %eax,%eax
    7b76:	0f 85 9d 02 00 00    	jne    0x7e19
    7b7c:	be 01 00 00 00       	mov    $0x1,%esi
    7b81:	e9 93 02 00 00       	jmp    0x7e19
    7b86:	a1 60 6d 01 00       	mov    0x16d60,%eax
    7b8b:	83 f8 50             	cmp    $0x50,%eax
    7b8e:	77 0d                	ja     0x7b9d
    7b90:	89 c1                	mov    %eax,%ecx
    7b92:	85 c0                	test   %eax,%eax
    7b94:	75 0c                	jne    0x7ba2
    7b96:	b9 01 00 00 00       	mov    $0x1,%ecx
    7b9b:	eb 05                	jmp    0x7ba2
    7b9d:	b9 50 00 00 00       	mov    $0x50,%ecx
    7ba2:	a1 b4 6d 01 00       	mov    0x16db4,%eax
    7ba7:	89 44 24 0c          	mov    %eax,0xc(%esp)
    7bab:	8b 35 b0 6d 01 00    	mov    0x16db0,%esi
    7bb1:	8d 7e 01             	lea    0x1(%esi),%edi
    7bb4:	89 7c 24 08          	mov    %edi,0x8(%esp)
    7bb8:	eb 09                	jmp    0x7bc3
    7bba:	8b 44 24 0c          	mov    0xc(%esp),%eax
    7bbe:	66 c7 00 20 07       	movw   $0x720,(%eax)
    7bc3:	49                   	dec    %ecx
    7bc4:	83 f9 ff             	cmp    $0xffffffff,%ecx
    7bc7:	0f 84 d8 f8 ff ff    	je     0x74a5
    7bcd:	83 fe 4f             	cmp    $0x4f,%esi
    7bd0:	77 f1                	ja     0x7bc3
    7bd2:	83 7c 24 08 4f       	cmpl   $0x4f,0x8(%esp)
    7bd7:	77 e1                	ja     0x7bba
    7bd9:	89 fa                	mov    %edi,%edx
    7bdb:	8b 44 24 0c          	mov    0xc(%esp),%eax
    7bdf:	89 4c 24 04          	mov    %ecx,0x4(%esp)
    7be3:	66 8b 48 02          	mov    0x2(%eax),%cx
    7be7:	66 89 08             	mov    %cx,(%eax)
    7bea:	83 c0 02             	add    $0x2,%eax
    7bed:	42                   	inc    %edx
    7bee:	83 fa 4f             	cmp    $0x4f,%edx
    7bf1:	76 f0                	jbe    0x7be3
    7bf3:	8b 4c 24 04          	mov    0x4(%esp),%ecx
    7bf7:	eb c5                	jmp    0x7bbe
    7bf9:	a1 60 6d 01 00       	mov    0x16d60,%eax
    7bfe:	83 f8 50             	cmp    $0x50,%eax
    7c01:	77 3e                	ja     0x7c41
    7c03:	89 c7                	mov    %eax,%edi
    7c05:	85 c0                	test   %eax,%eax
    7c07:	75 3d                	jne    0x7c46
    7c09:	bf 01 00 00 00       	mov    $0x1,%edi
    7c0e:	eb 36                	jmp    0x7c46
    7c10:	66 8b 30             	mov    (%eax),%si
    7c13:	66 89 08             	mov    %cx,(%eax)
    7c16:	83 c0 02             	add    $0x2,%eax
    7c19:	42                   	inc    %edx
    7c1a:	89 f1                	mov    %esi,%ecx
    7c1c:	83 fa 4f             	cmp    $0x4f,%edx
    7c1f:	76 ef                	jbe    0x7c10
    7c21:	4f                   	dec    %edi
    7c22:	83 ff ff             	cmp    $0xffffffff,%edi
    7c25:	0f 84 7a f8 ff ff    	je     0x74a5
    7c2b:	8b 44 24 04          	mov    0x4(%esp),%eax
    7c2f:	83 f8 4f             	cmp    $0x4f,%eax
    7c32:	77 ed                	ja     0x7c21
    7c34:	89 c2                	mov    %eax,%edx
    7c36:	8b 44 24 08          	mov    0x8(%esp),%eax
    7c3a:	b9 20 07 00 00       	mov    $0x720,%ecx
    7c3f:	eb cf                	jmp    0x7c10
    7c41:	bf 50 00 00 00       	mov    $0x50,%edi
    7c46:	a1 b0 6d 01 00       	mov    0x16db0,%eax
    7c4b:	89 44 24 04          	mov    %eax,0x4(%esp)
    7c4f:	a1 b4 6d 01 00       	mov    0x16db4,%eax
    7c54:	89 44 24 08          	mov    %eax,0x8(%esp)
    7c58:	eb c7                	jmp    0x7c21
    7c5a:	e8 c2 f7 ff ff       	call   0x7421
    7c5f:	e9 41 f8 ff ff       	jmp    0x74a5
    7c64:	a1 60 6d 01 00       	mov    0x16d60,%eax
    7c69:	85 c0                	test   %eax,%eax
    7c6b:	74 06                	je     0x7c73
    7c6d:	48                   	dec    %eax
    7c6e:	a3 60 6d 01 00       	mov    %eax,0x16d60
    7c73:	a1 64 6d 01 00       	mov    0x16d64,%eax
    7c78:	85 c0                	test   %eax,%eax
    7c7a:	75 2e                	jne    0x7caa
    7c7c:	c7 05 64 6d 01 00 19 	movl   $0x19,0x16d64
    7c83:	00 00 00 
    7c86:	8b 15 60 6d 01 00    	mov    0x16d60,%edx
    7c8c:	83 fa 18             	cmp    $0x18,%edx
    7c8f:	0f 87 10 f8 ff ff    	ja     0x74a5
    7c95:	b8 19 00 00 00       	mov    $0x19,%eax
    7c9a:	89 15 a8 6d 01 00    	mov    %edx,0x16da8
    7ca0:	a3 84 63 01 00       	mov    %eax,0x16384
    7ca5:	e9 fb f7 ff ff       	jmp    0x74a5
    7caa:	8b 15 60 6d 01 00    	mov    0x16d60,%edx
    7cb0:	39 d0                	cmp    %edx,%eax
    7cb2:	0f 86 ed f7 ff ff    	jbe    0x74a5
    7cb8:	83 f8 19             	cmp    $0x19,%eax
    7cbb:	0f 87 e4 f7 ff ff    	ja     0x74a5
    7cc1:	eb d7                	jmp    0x7c9a
    7cc3:	a1 b0 6d 01 00       	mov    0x16db0,%eax
    7cc8:	a3 44 6d 01 00       	mov    %eax,0x16d44
    7ccd:	a1 ac 6d 01 00       	mov    0x16dac,%eax
    7cd2:	a3 40 6d 01 00       	mov    %eax,0x16d40
    7cd7:	e9 c9 f7 ff ff       	jmp    0x74a5
    7cdc:	e8 12 f7 ff ff       	call   0x73f3
    7ce1:	e9 bf f7 ff ff       	jmp    0x74a5
    7ce6:	fa                   	cli    
    7ce7:	be d4 03 00 00       	mov    $0x3d4,%esi
    7cec:	b8 0e 00 00 00       	mov    $0xe,%eax
    7cf1:	89 f2                	mov    %esi,%edx
    7cf3:	ee                   	out    %al,(%dx)
    7cf4:	eb 00                	jmp    0x7cf6
    7cf6:	eb 00                	jmp    0x7cf8
    7cf8:	a1 b4 6d 01 00       	mov    0x16db4,%eax
    7cfd:	8d 88 00 80 f4 ff    	lea    -0xb8000(%eax),%ecx
    7d03:	89 c8                	mov    %ecx,%eax
    7d05:	c1 e8 09             	shr    $0x9,%eax
    7d08:	0f b6 c0             	movzbl %al,%eax
    7d0b:	bb d5 03 00 00       	mov    $0x3d5,%ebx
    7d10:	89 da                	mov    %ebx,%edx
    7d12:	ee                   	out    %al,(%dx)
    7d13:	eb 00                	jmp    0x7d15
    7d15:	eb 00                	jmp    0x7d17
    7d17:	b8 0f 00 00 00       	mov    $0xf,%eax
    7d1c:	89 f2                	mov    %esi,%edx
    7d1e:	ee                   	out    %al,(%dx)
    7d1f:	eb 00                	jmp    0x7d21
    7d21:	eb 00                	jmp    0x7d23
    7d23:	d1 e9                	shr    %ecx
    7d25:	0f b6 c1             	movzbl %cl,%eax
    7d28:	89 da                	mov    %ebx,%edx
    7d2a:	ee                   	out    %al,(%dx)
    7d2b:	eb 00                	jmp    0x7d2d
    7d2d:	eb 00                	jmp    0x7d2f
    7d2f:	fb                   	sti    
    7d30:	83 c4 1c             	add    $0x1c,%esp
    7d33:	5b                   	pop    %ebx
    7d34:	5e                   	pop    %esi
    7d35:	5f                   	pop    %edi
    7d36:	5d                   	pop    %ebp
    7d37:	c3                   	ret    
    7d38:	8b 15 ac 6d 01 00    	mov    0x16dac,%edx
    7d3e:	83 fa 18             	cmp    $0x18,%edx
    7d41:	0f 87 5e f7 ff ff    	ja     0x74a5
    7d47:	a3 b0 6d 01 00       	mov    %eax,0x16db0
    7d4c:	8d 14 92             	lea    (%edx,%edx,4),%edx
    7d4f:	c1 e2 04             	shl    $0x4,%edx
    7d52:	01 d0                	add    %edx,%eax
    7d54:	01 c0                	add    %eax,%eax
    7d56:	03 05 8c 63 01 00    	add    0x1638c,%eax
    7d5c:	a3 b4 6d 01 00       	mov    %eax,0x16db4
    7d61:	e9 3f f7 ff ff       	jmp    0x74a5
    7d66:	8b 15 b0 6d 01 00    	mov    0x16db0,%edx
    7d6c:	83 fa 4f             	cmp    $0x4f,%edx
    7d6f:	0f 87 30 f7 ff ff    	ja     0x74a5
    7d75:	a3 ac 6d 01 00       	mov    %eax,0x16dac
    7d7a:	8d 04 80             	lea    (%eax,%eax,4),%eax
    7d7d:	c1 e0 04             	shl    $0x4,%eax
    7d80:	01 c2                	add    %eax,%edx
    7d82:	01 d2                	add    %edx,%edx
    7d84:	89 d0                	mov    %edx,%eax
    7d86:	03 05 8c 63 01 00    	add    0x1638c,%eax
    7d8c:	a3 b4 6d 01 00       	mov    %eax,0x16db4
    7d91:	e9 0f f7 ff ff       	jmp    0x74a5
    7d96:	8b 15 60 6d 01 00    	mov    0x16d60,%edx
    7d9c:	83 fa 18             	cmp    $0x18,%edx
    7d9f:	0f 87 00 f7 ff ff    	ja     0x74a5
    7da5:	a3 b0 6d 01 00       	mov    %eax,0x16db0
    7daa:	89 15 ac 6d 01 00    	mov    %edx,0x16dac
    7db0:	8d 14 92             	lea    (%edx,%edx,4),%edx
    7db3:	c1 e2 04             	shl    $0x4,%edx
    7db6:	01 d0                	add    %edx,%eax
    7db8:	01 c0                	add    %eax,%eax
    7dba:	03 05 8c 63 01 00    	add    0x1638c,%eax
    7dc0:	a3 b4 6d 01 00       	mov    %eax,0x16db4
    7dc5:	e9 db f6 ff ff       	jmp    0x74a5
    7dca:	be 19 00 00 00       	mov    $0x19,%esi
    7dcf:	4e                   	dec    %esi
    7dd0:	89 6c 24 04          	mov    %ebp,0x4(%esp)
    7dd4:	8b 2d a8 6d 01 00    	mov    0x16da8,%ebp
    7dda:	8b 3d 84 63 01 00    	mov    0x16384,%edi
    7de0:	a1 ac 6d 01 00       	mov    0x16dac,%eax
    7de5:	a3 a8 6d 01 00       	mov    %eax,0x16da8
    7dea:	c7 05 84 63 01 00 19 	movl   $0x19,0x16384
    7df1:	00 00 00 
    7df4:	e8 8b f5 ff ff       	call   0x7384
    7df9:	89 2d a8 6d 01 00    	mov    %ebp,0x16da8
    7dff:	89 3d 84 63 01 00    	mov    %edi,0x16384
    7e05:	4e                   	dec    %esi
    7e06:	83 fe ff             	cmp    $0xffffffff,%esi
    7e09:	75 c9                	jne    0x7dd4
    7e0b:	8b 6c 24 04          	mov    0x4(%esp),%ebp
    7e0f:	e9 91 f6 ff ff       	jmp    0x74a5
    7e14:	be 19 00 00 00       	mov    $0x19,%esi
    7e19:	4e                   	dec    %esi
    7e1a:	89 6c 24 04          	mov    %ebp,0x4(%esp)
    7e1e:	8b 2d a8 6d 01 00    	mov    0x16da8,%ebp
    7e24:	8b 3d 84 63 01 00    	mov    0x16384,%edi
    7e2a:	a1 ac 6d 01 00       	mov    0x16dac,%eax
    7e2f:	a3 a8 6d 01 00       	mov    %eax,0x16da8
    7e34:	c7 05 84 63 01 00 19 	movl   $0x19,0x16384
    7e3b:	00 00 00 
    7e3e:	e8 0e f4 ff ff       	call   0x7251
    7e43:	89 2d a8 6d 01 00    	mov    %ebp,0x16da8
    7e49:	89 3d 84 63 01 00    	mov    %edi,0x16384
    7e4f:	4e                   	dec    %esi
    7e50:	83 fe ff             	cmp    $0xffffffff,%esi
    7e53:	75 c9                	jne    0x7e1e
    7e55:	8b 6c 24 04          	mov    0x4(%esp),%ebp
    7e59:	e9 47 f6 ff ff       	jmp    0x74a5
    7e5e:	0f b6 15 fe 01 09 00 	movzbl 0x901fe,%edx
    7e65:	83 fa 4f             	cmp    $0x4f,%edx
    7e68:	77 2c                	ja     0x7e96
    7e6a:	0f b6 05 ff 01 09 00 	movzbl 0x901ff,%eax
    7e71:	83 f8 18             	cmp    $0x18,%eax
    7e74:	77 20                	ja     0x7e96
    7e76:	89 15 b0 6d 01 00    	mov    %edx,0x16db0
    7e7c:	a3 ac 6d 01 00       	mov    %eax,0x16dac
    7e81:	8d 04 80             	lea    (%eax,%eax,4),%eax
    7e84:	c1 e0 04             	shl    $0x4,%eax
    7e87:	01 d0                	add    %edx,%eax
    7e89:	01 c0                	add    %eax,%eax
    7e8b:	03 05 8c 63 01 00    	add    0x1638c,%eax
    7e91:	a3 b4 6d 01 00       	mov    %eax,0x16db4
    7e96:	ba e4 7e 00 00       	mov    $0x7ee4,%edx
    7e9b:	b8 00 00 08 00       	mov    $0x80000,%eax
    7ea0:	66 89 d0             	mov    %dx,%ax
    7ea3:	66 ba 00 8f          	mov    $0x8f00,%dx
    7ea7:	a3 80 41 00 00       	mov    %eax,0x4180
    7eac:	89 15 84 41 00 00    	mov    %edx,0x4184
    7eb2:	ba 21 00 00 00       	mov    $0x21,%edx
    7eb7:	ec                   	in     (%dx),%al
    7eb8:	eb 00                	jmp    0x7eba
    7eba:	eb 00                	jmp    0x7ebc
    7ebc:	25 fd 00 00 00       	and    $0xfd,%eax
    7ec1:	ee                   	out    %al,(%dx)
    7ec2:	eb 00                	jmp    0x7ec4
    7ec4:	eb 00                	jmp    0x7ec6
    7ec6:	ba 61 00 00 00       	mov    $0x61,%edx
    7ecb:	ec                   	in     (%dx),%al
    7ecc:	eb 00                	jmp    0x7ece
    7ece:	eb 00                	jmp    0x7ed0
    7ed0:	88 c1                	mov    %al,%cl
    7ed2:	83 c8 80             	or     $0xffffff80,%eax
    7ed5:	0f b6 c0             	movzbl %al,%eax
    7ed8:	ee                   	out    %al,(%dx)
    7ed9:	eb 00                	jmp    0x7edb
    7edb:	eb 00                	jmp    0x7edd
    7edd:	88 c8                	mov    %cl,%al
    7edf:	ee                   	out    %al,(%dx)
    7ee0:	c3                   	ret    
    7ee1:	00 02                	add    %al,(%edx)
    7ee3:	00 50 53             	add    %dl,0x53(%eax)
    7ee6:	51                   	push   %ecx
    7ee7:	52                   	push   %edx
    7ee8:	1e                   	push   %ds
    7ee9:	06                   	push   %es
    7eea:	b8 10 00 00 00       	mov    $0x10,%eax
    7eef:	8e d8                	mov    %eax,%ds
    7ef1:	8e c0                	mov    %eax,%es
    7ef3:	31 c0                	xor    %eax,%eax
    7ef5:	e4 60                	in     $0x60,%al
    7ef7:	3c e0                	cmp    $0xe0,%al
    7ef9:	74 3d                	je     0x7f38
    7efb:	3c e1                	cmp    $0xe1,%al
    7efd:	74 42                	je     0x7f41
    7eff:	ff 14 85 9b 82 00 00 	call   *0x829b(,%eax,4)
    7f06:	c6 05 e3 7e 00 00 00 	movb   $0x0,0x7ee3
    7f0d:	e4 61                	in     $0x61,%al
    7f0f:	eb 00                	jmp    0x7f11
    7f11:	eb 00                	jmp    0x7f13
    7f13:	0c 80                	or     $0x80,%al
    7f15:	eb 00                	jmp    0x7f17
    7f17:	eb 00                	jmp    0x7f19
    7f19:	e6 61                	out    %al,$0x61
    7f1b:	eb 00                	jmp    0x7f1d
    7f1d:	eb 00                	jmp    0x7f1f
    7f1f:	24 7f                	and    $0x7f,%al
    7f21:	e6 61                	out    %al,$0x61
    7f23:	b0 20                	mov    $0x20,%al
    7f25:	e6 20                	out    %al,$0x20
    7f27:	6a 00                	push   $0x0
    7f29:	e8 fe f2 ff ff       	call   0x722c
    7f2e:	83 c4 04             	add    $0x4,%esp
    7f31:	07                   	pop    %es
    7f32:	1f                   	pop    %ds
    7f33:	5a                   	pop    %edx
    7f34:	59                   	pop    %ecx
    7f35:	5b                   	pop    %ebx
    7f36:	58                   	pop    %eax
    7f37:	cf                   	iret   
    7f38:	c6 05 e3 7e 00 00 01 	movb   $0x1,0x7ee3
    7f3f:	eb cc                	jmp    0x7f0d
    7f41:	c6 05 e3 7e 00 00 02 	movb   $0x2,0x7ee3
    7f48:	eb c3                	jmp    0x7f0d
    7f4a:	51                   	push   %ecx
    7f4b:	52                   	push   %edx
    7f4c:	8b 15 40 3e 01 00    	mov    0x13e40,%edx
    7f52:	8b 4a 04             	mov    0x4(%edx),%ecx
    7f55:	88 44 0a 10          	mov    %al,0x10(%edx,%ecx,1)
    7f59:	41                   	inc    %ecx
    7f5a:	81 e1 ff 03 00 00    	and    $0x3ff,%ecx
    7f60:	3b 4a 08             	cmp    0x8(%edx),%ecx
    7f63:	74 1b                	je     0x7f80
    7f65:	0f ac d8 08          	shrd   $0x8,%ebx,%eax
    7f69:	74 05                	je     0x7f70
    7f6b:	c1 eb 08             	shr    $0x8,%ebx
    7f6e:	eb e5                	jmp    0x7f55
    7f70:	89 4a 04             	mov    %ecx,0x4(%edx)
    7f73:	8b 4a 0c             	mov    0xc(%edx),%ecx
    7f76:	85 c9                	test   %ecx,%ecx
    7f78:	74 06                	je     0x7f80
    7f7a:	c7 01 00 00 00 00    	movl   $0x0,(%ecx)
    7f80:	5a                   	pop    %edx
    7f81:	59                   	pop    %ecx
    7f82:	c3                   	ret    
    7f83:	b0 04                	mov    $0x4,%al
    7f85:	eb 02                	jmp    0x7f89
    7f87:	b0 10                	mov    $0x10,%al
    7f89:	80 3d e3 7e 00 00 00 	cmpb   $0x0,0x7ee3
    7f90:	74 02                	je     0x7f94
    7f92:	00 c0                	add    %al,%al
    7f94:	08 05 e1 7e 00 00    	or     %al,0x7ee1
    7f9a:	c3                   	ret    
    7f9b:	b0 04                	mov    $0x4,%al
    7f9d:	eb 02                	jmp    0x7fa1
    7f9f:	b0 10                	mov    $0x10,%al
    7fa1:	80 3d e3 7e 00 00 00 	cmpb   $0x0,0x7ee3
    7fa8:	74 02                	je     0x7fac
    7faa:	00 c0                	add    %al,%al
    7fac:	f6 d0                	not    %al
    7fae:	20 05 e1 7e 00 00    	and    %al,0x7ee1
    7fb4:	c3                   	ret    
    7fb5:	80 0d e1 7e 00 00 01 	orb    $0x1,0x7ee1
    7fbc:	c3                   	ret    
    7fbd:	80 25 e1 7e 00 00 fe 	andb   $0xfe,0x7ee1
    7fc4:	c3                   	ret    
    7fc5:	80 0d e1 7e 00 00 02 	orb    $0x2,0x7ee1
    7fcc:	c3                   	ret    
    7fcd:	80 25 e1 7e 00 00 fd 	andb   $0xfd,0x7ee1
    7fd4:	c3                   	ret    
    7fd5:	f6 05 e1 7e 00 00 80 	testb  $0x80,0x7ee1
    7fdc:	0f 85 8d 00 00 00    	jne    0x806f
    7fe2:	80 35 e2 7e 00 00 04 	xorb   $0x4,0x7ee2
    7fe9:	80 35 e1 7e 00 00 40 	xorb   $0x40,0x7ee1
    7ff0:	80 0d e1 7e 00 00 80 	orb    $0x80,0x7ee1
    7ff7:	e8 9f 06 00 00       	call   0x869b
    7ffc:	b0 ed                	mov    $0xed,%al
    7ffe:	e6 60                	out    %al,$0x60
    8000:	e8 96 06 00 00       	call   0x869b
    8005:	a0 e2 7e 00 00       	mov    0x7ee2,%al
    800a:	e6 60                	out    %al,$0x60
    800c:	c3                   	ret    
    800d:	80 25 e1 7e 00 00 7f 	andb   $0x7f,0x7ee1
    8014:	c3                   	ret    
    8015:	80 35 e2 7e 00 00 01 	xorb   $0x1,0x7ee2
    801c:	eb d9                	jmp    0x7ff7
    801e:	80 35 e2 7e 00 00 02 	xorb   $0x2,0x7ee2
    8025:	eb d0                	jmp    0x7ff7
    8027:	2c 47                	sub    $0x47,%al
    8029:	72 44                	jb     0x806f
    802b:	3c 0c                	cmp    $0xc,%al
    802d:	77 40                	ja     0x806f
    802f:	75 16                	jne    0x8047
    8031:	f6 05 e1 7e 00 00 0c 	testb  $0xc,0x7ee1
    8038:	74 0d                	je     0x8047
    803a:	f6 05 e1 7e 00 00 30 	testb  $0x30,0x7ee1
    8041:	0f 85 5d 06 00 00    	jne    0x86a4
    8047:	80 3d e3 7e 00 00 01 	cmpb   $0x1,0x7ee3
    804e:	74 20                	je     0x8070
    8050:	f6 05 e2 7e 00 00 02 	testb  $0x2,0x7ee2
    8057:	74 17                	je     0x8070
    8059:	f6 05 e1 7e 00 00 03 	testb  $0x3,0x7ee1
    8060:	75 0e                	jne    0x8070
    8062:	31 db                	xor    %ebx,%ebx
    8064:	8a 80 8a 80 00 00    	mov    0x808a(%eax),%al
    806a:	e9 db fe ff ff       	jmp    0x7f4a
    806f:	c3                   	ret    
    8070:	8a 80 97 80 00 00    	mov    0x8097(%eax),%al
    8076:	3c 39                	cmp    $0x39,%al
    8078:	77 02                	ja     0x807c
    807a:	b4 7e                	mov    $0x7e,%ah
    807c:	c1 e0 10             	shl    $0x10,%eax
    807f:	66 b8 1b 5b          	mov    $0x5b1b,%ax
    8083:	31 db                	xor    %ebx,%ebx
    8085:	e9 c0 fe ff ff       	jmp    0x7f4a
    808a:	37                   	aaa    
    808b:	38 39                	cmp    %bh,(%ecx)
    808d:	20 34 35 36 20 31 32 	and    %dh,0x32312036(,%esi,1)
    8094:	33 30                	xor    (%eax),%esi
    8096:	2c 48                	sub    $0x48,%al
    8098:	41                   	inc    %ecx
    8099:	35 20 44 47 43       	xor    $0x43474420,%eax
    809e:	20 59 42             	and    %bl,0x42(%ecx)
    80a1:	36 32 33             	xor    %ss:(%ebx),%dh
    80a4:	2c 3b                	sub    $0x3b,%al
    80a6:	72 21                	jb     0x80c9
    80a8:	3c 09                	cmp    $0x9,%al
    80aa:	76 0a                	jbe    0x80b6
    80ac:	2c 12                	sub    $0x12,%al
    80ae:	3c 0a                	cmp    $0xa,%al
    80b0:	72 17                	jb     0x80c9
    80b2:	3c 0b                	cmp    $0xb,%al
    80b4:	77 13                	ja     0x80c9
    80b6:	83 f9 04             	cmp    $0x4,%ecx
    80b9:	7c 0e                	jl     0x80c9
    80bb:	8b 04 85 ca 80 00 00 	mov    0x80ca(,%eax,4),%eax
    80c2:	31 db                	xor    %ebx,%ebx
    80c4:	e9 81 fe ff ff       	jmp    0x7f4a
    80c9:	c3                   	ret    
    80ca:	1b 5b 5b             	sbb    0x5b(%ebx),%ebx
    80cd:	41                   	inc    %ecx
    80ce:	1b 5b 5b             	sbb    0x5b(%ebx),%ebx
    80d1:	42                   	inc    %edx
    80d2:	1b 5b 5b             	sbb    0x5b(%ebx),%ebx
    80d5:	43                   	inc    %ebx
    80d6:	1b 5b 5b             	sbb    0x5b(%ebx),%ebx
    80d9:	44                   	inc    %esp
    80da:	1b 5b 5b             	sbb    0x5b(%ebx),%ebx
    80dd:	45                   	inc    %ebp
    80de:	1b 5b 5b             	sbb    0x5b(%ebx),%ebx
    80e1:	46                   	inc    %esi
    80e2:	1b 5b 5b             	sbb    0x5b(%ebx),%ebx
    80e5:	47                   	inc    %edi
    80e6:	1b 5b 5b             	sbb    0x5b(%ebx),%ebx
    80e9:	48                   	dec    %eax
    80ea:	1b 5b 5b             	sbb    0x5b(%ebx),%ebx
    80ed:	49                   	dec    %ecx
    80ee:	1b 5b 5b             	sbb    0x5b(%ebx),%ebx
    80f1:	4a                   	dec    %edx
    80f2:	1b 5b 5b             	sbb    0x5b(%ebx),%ebx
    80f5:	4b                   	dec    %ebx
    80f6:	1b 5b 5b             	sbb    0x5b(%ebx),%ebx
    80f9:	4c                   	dec    %esp
    80fa:	00 1b                	add    %bl,(%ebx)
    80fc:	31 32                	xor    %esi,(%edx)
    80fe:	33 34 35 36 37 38 39 	xor    0x39383736(,%esi,1),%esi
    8105:	30 2b                	xor    %ch,(%ebx)
    8107:	27                   	daa    
    8108:	7f 09                	jg     0x8113
    810a:	71 77                	jno    0x8183
    810c:	65 72 74             	gs jb  0x8183
    810f:	79 75                	jns    0x8186
    8111:	69 6f 70 7d 00 0a 00 	imul   $0xa007d,0x70(%edi),%ebp
    8118:	61                   	popa   
    8119:	73 64                	jae    0x817f
    811b:	66 67 68 6a 6b       	addr16 pushw $0x6b6a
    8120:	6c                   	insb   (%dx),%es:(%edi)
    8121:	7c 7b                	jl     0x819e
    8123:	00 00                	add    %al,(%eax)
    8125:	27                   	daa    
    8126:	7a 78                	jp     0x81a0
    8128:	63 76 62             	arpl   %si,0x62(%esi)
    812b:	6e                   	outsb  %ds:(%esi),(%dx)
    812c:	6d                   	insl   (%dx),%es:(%edi)
    812d:	2c 2e                	sub    $0x2e,%al
    812f:	2d 00 2a 00 20       	sub    $0x20002a00,%eax
	...
    8144:	2d 00 00 00 2b       	sub    $0x2b000000,%eax
    8149:	00 00                	add    %al,(%eax)
    814b:	00 00                	add    %al,(%eax)
    814d:	00 00                	add    %al,(%eax)
    814f:	00 3c 00             	add    %bh,(%eax,%eax,1)
	...
    815a:	00 00                	add    %al,(%eax)
    815c:	1b 21                	sbb    (%ecx),%esp
    815e:	22 23                	and    (%ebx),%ah
    8160:	24 25                	and    $0x25,%al
    8162:	26 2f                	es das 
    8164:	28 29                	sub    %ch,(%ecx)
    8166:	3d 3f 60 7f 09       	cmp    $0x97f603f,%eax
    816b:	51                   	push   %ecx
    816c:	57                   	push   %edi
    816d:	45                   	inc    %ebp
    816e:	52                   	push   %edx
    816f:	54                   	push   %esp
    8170:	59                   	pop    %ecx
    8171:	55                   	push   %ebp
    8172:	49                   	dec    %ecx
    8173:	4f                   	dec    %edi
    8174:	50                   	push   %eax
    8175:	5d                   	pop    %ebp
    8176:	5e                   	pop    %esi
    8177:	0a 00                	or     (%eax),%al
    8179:	41                   	inc    %ecx
    817a:	53                   	push   %ebx
    817b:	44                   	inc    %esp
    817c:	46                   	inc    %esi
    817d:	47                   	inc    %edi
    817e:	48                   	dec    %eax
    817f:	4a                   	dec    %edx
    8180:	4b                   	dec    %ebx
    8181:	4c                   	dec    %esp
    8182:	5c                   	pop    %esp
    8183:	5b                   	pop    %ebx
    8184:	00 00                	add    %al,(%eax)
    8186:	2a 5a 58             	sub    0x58(%edx),%bl
    8189:	43                   	inc    %ebx
    818a:	56                   	push   %esi
    818b:	42                   	inc    %edx
    818c:	4e                   	dec    %esi
    818d:	4d                   	dec    %ebp
    818e:	3b 3a                	cmp    (%edx),%edi
    8190:	5f                   	pop    %edi
    8191:	00 2a                	add    %ch,(%edx)
    8193:	00 20                	add    %ah,(%eax)
	...
    81a5:	2d 00 00 00 2b       	sub    $0x2b000000,%eax
    81aa:	00 00                	add    %al,(%eax)
    81ac:	00 00                	add    %al,(%eax)
    81ae:	00 00                	add    %al,(%eax)
    81b0:	00 3e                	add    %bh,(%esi)
	...
    81be:	00 40 00             	add    %al,0x0(%eax)
    81c1:	24 00                	and    $0x0,%al
    81c3:	00 7b 5b             	add    %bh,0x5b(%ebx)
    81c6:	5d                   	pop    %ebp
    81c7:	7d 5c                	jge    0x8225
	...
    81d5:	00 00                	add    %al,(%eax)
    81d7:	7e 0a                	jle    0x81e3
	...
    8211:	00 7c 00 00          	add    %bh,0x0(%eax,%eax,1)
	...
    821d:	8d 1d bc 81 00 00    	lea    0x81bc,%ebx
    8223:	f6 05 e1 7e 00 00 20 	testb  $0x20,0x7ee1
    822a:	75 15                	jne    0x8241
    822c:	8d 1d 5b 81 00 00    	lea    0x815b,%ebx
    8232:	f6 05 e1 7e 00 00 03 	testb  $0x3,0x7ee1
    8239:	75 06                	jne    0x8241
    823b:	8d 1d fa 80 00 00    	lea    0x80fa,%ebx
    8241:	8a 04 03             	mov    (%ebx,%eax,1),%al
    8244:	08 c0                	or     %al,%al
    8246:	74 3d                	je     0x8285
    8248:	f6 05 e1 7e 00 00 4c 	testb  $0x4c,0x7ee1
    824f:	74 0a                	je     0x825b
    8251:	3c 61                	cmp    $0x61,%al
    8253:	72 06                	jb     0x825b
    8255:	3c 7a                	cmp    $0x7a,%al
    8257:	77 02                	ja     0x825b
    8259:	2c 20                	sub    $0x20,%al
    825b:	f6 05 e1 7e 00 00 0c 	testb  $0xc,0x7ee1
    8262:	74 0a                	je     0x826e
    8264:	3c 40                	cmp    $0x40,%al
    8266:	72 06                	jb     0x826e
    8268:	3c 60                	cmp    $0x60,%al
    826a:	73 02                	jae    0x826e
    826c:	2c 40                	sub    $0x40,%al
    826e:	f6 05 e1 7e 00 00 10 	testb  $0x10,0x7ee1
    8275:	74 02                	je     0x8279
    8277:	0c 80                	or     $0x80,%al
    8279:	25 ff 00 00 00       	and    $0xff,%eax
    827e:	31 db                	xor    %ebx,%ebx
    8280:	e8 c5 fc ff ff       	call   0x7f4a
    8285:	c3                   	ret    
    8286:	80 3d e3 7e 00 00 01 	cmpb   $0x1,0x7ee3
    828d:	75 8e                	jne    0x821d
    828f:	b8 2f 00 00 00       	mov    $0x2f,%eax
    8294:	31 db                	xor    %ebx,%ebx
    8296:	e9 af fc ff ff       	jmp    0x7f4a
    829b:	85 82 00 00 1d 82    	test   %eax,-0x7de30000(%edx)
    82a1:	00 00                	add    %al,(%eax)
    82a3:	1d 82 00 00 1d       	sbb    $0x1d000082,%eax
    82a8:	82 00 00             	addb   $0x0,(%eax)
    82ab:	1d 82 00 00 1d       	sbb    $0x1d000082,%eax
    82b0:	82 00 00             	addb   $0x0,(%eax)
    82b3:	1d 82 00 00 1d       	sbb    $0x1d000082,%eax
    82b8:	82 00 00             	addb   $0x0,(%eax)
    82bb:	1d 82 00 00 1d       	sbb    $0x1d000082,%eax
    82c0:	82 00 00             	addb   $0x0,(%eax)
    82c3:	1d 82 00 00 1d       	sbb    $0x1d000082,%eax
    82c8:	82 00 00             	addb   $0x0,(%eax)
    82cb:	1d 82 00 00 1d       	sbb    $0x1d000082,%eax
    82d0:	82 00 00             	addb   $0x0,(%eax)
    82d3:	1d 82 00 00 1d       	sbb    $0x1d000082,%eax
    82d8:	82 00 00             	addb   $0x0,(%eax)
    82db:	1d 82 00 00 1d       	sbb    $0x1d000082,%eax
    82e0:	82 00 00             	addb   $0x0,(%eax)
    82e3:	1d 82 00 00 1d       	sbb    $0x1d000082,%eax
    82e8:	82 00 00             	addb   $0x0,(%eax)
    82eb:	1d 82 00 00 1d       	sbb    $0x1d000082,%eax
    82f0:	82 00 00             	addb   $0x0,(%eax)
    82f3:	1d 82 00 00 1d       	sbb    $0x1d000082,%eax
    82f8:	82 00 00             	addb   $0x0,(%eax)
    82fb:	1d 82 00 00 1d       	sbb    $0x1d000082,%eax
    8300:	82 00 00             	addb   $0x0,(%eax)
    8303:	1d 82 00 00 1d       	sbb    $0x1d000082,%eax
    8308:	82 00 00             	addb   $0x0,(%eax)
    830b:	1d 82 00 00 83       	sbb    $0x83000082,%eax
    8310:	7f 00                	jg     0x8312
    8312:	00 1d 82 00 00 1d    	add    %bl,0x1d000082
    8318:	82 00 00             	addb   $0x0,(%eax)
    831b:	1d 82 00 00 1d       	sbb    $0x1d000082,%eax
    8320:	82 00 00             	addb   $0x0,(%eax)
    8323:	1d 82 00 00 1d       	sbb    $0x1d000082,%eax
    8328:	82 00 00             	addb   $0x0,(%eax)
    832b:	1d 82 00 00 1d       	sbb    $0x1d000082,%eax
    8330:	82 00 00             	addb   $0x0,(%eax)
    8333:	1d 82 00 00 1d       	sbb    $0x1d000082,%eax
    8338:	82 00 00             	addb   $0x0,(%eax)
    833b:	1d 82 00 00 1d       	sbb    $0x1d000082,%eax
    8340:	82 00 00             	addb   $0x0,(%eax)
    8343:	b5 7f                	mov    $0x7f,%ch
    8345:	00 00                	add    %al,(%eax)
    8347:	1d 82 00 00 1d       	sbb    $0x1d000082,%eax
    834c:	82 00 00             	addb   $0x0,(%eax)
    834f:	1d 82 00 00 1d       	sbb    $0x1d000082,%eax
    8354:	82 00 00             	addb   $0x0,(%eax)
    8357:	1d 82 00 00 1d       	sbb    $0x1d000082,%eax
    835c:	82 00 00             	addb   $0x0,(%eax)
    835f:	1d 82 00 00 1d       	sbb    $0x1d000082,%eax
    8364:	82 00 00             	addb   $0x0,(%eax)
    8367:	1d 82 00 00 1d       	sbb    $0x1d000082,%eax
    836c:	82 00 00             	addb   $0x0,(%eax)
    836f:	86 82 00 00 c5 7f    	xchg   %al,0x7fc50000(%edx)
    8375:	00 00                	add    %al,(%eax)
    8377:	1d 82 00 00 87       	sbb    $0x87000082,%eax
    837c:	7f 00                	jg     0x837e
    837e:	00 1d 82 00 00 d5    	add    %bl,0xd5000082
    8384:	7f 00                	jg     0x8386
    8386:	00 a4 80 00 00 a4 80 	add    %ah,-0x7f5c0000(%eax,%eax,4)
    838d:	00 00                	add    %al,(%eax)
    838f:	a4                   	movsb  %ds:(%esi),%es:(%edi)
    8390:	80 00 00             	addb   $0x0,(%eax)
    8393:	a4                   	movsb  %ds:(%esi),%es:(%edi)
    8394:	80 00 00             	addb   $0x0,(%eax)
    8397:	a4                   	movsb  %ds:(%esi),%es:(%edi)
    8398:	80 00 00             	addb   $0x0,(%eax)
    839b:	a4                   	movsb  %ds:(%esi),%es:(%edi)
    839c:	80 00 00             	addb   $0x0,(%eax)
    839f:	a4                   	movsb  %ds:(%esi),%es:(%edi)
    83a0:	80 00 00             	addb   $0x0,(%eax)
    83a3:	a4                   	movsb  %ds:(%esi),%es:(%edi)
    83a4:	80 00 00             	addb   $0x0,(%eax)
    83a7:	a4                   	movsb  %ds:(%esi),%es:(%edi)
    83a8:	80 00 00             	addb   $0x0,(%eax)
    83ab:	a4                   	movsb  %ds:(%esi),%es:(%edi)
    83ac:	80 00 00             	addb   $0x0,(%eax)
    83af:	1e                   	push   %ds
    83b0:	80 00 00             	addb   $0x0,(%eax)
    83b3:	15 80 00 00 27       	adc    $0x27000080,%eax
    83b8:	80 00 00             	addb   $0x0,(%eax)
    83bb:	27                   	daa    
    83bc:	80 00 00             	addb   $0x0,(%eax)
    83bf:	27                   	daa    
    83c0:	80 00 00             	addb   $0x0,(%eax)
    83c3:	1d 82 00 00 27       	sbb    $0x27000082,%eax
    83c8:	80 00 00             	addb   $0x0,(%eax)
    83cb:	27                   	daa    
    83cc:	80 00 00             	addb   $0x0,(%eax)
    83cf:	27                   	daa    
    83d0:	80 00 00             	addb   $0x0,(%eax)
    83d3:	1d 82 00 00 27       	sbb    $0x27000082,%eax
    83d8:	80 00 00             	addb   $0x0,(%eax)
    83db:	27                   	daa    
    83dc:	80 00 00             	addb   $0x0,(%eax)
    83df:	27                   	daa    
    83e0:	80 00 00             	addb   $0x0,(%eax)
    83e3:	27                   	daa    
    83e4:	80 00 00             	addb   $0x0,(%eax)
    83e7:	27                   	daa    
    83e8:	80 00 00             	addb   $0x0,(%eax)
    83eb:	85 82 00 00 85 82    	test   %eax,-0x7d7b0000(%edx)
    83f1:	00 00                	add    %al,(%eax)
    83f3:	1d 82 00 00 a4       	sbb    $0xa4000082,%eax
    83f8:	80 00 00             	addb   $0x0,(%eax)
    83fb:	a4                   	movsb  %ds:(%esi),%es:(%edi)
    83fc:	80 00 00             	addb   $0x0,(%eax)
    83ff:	85 82 00 00 85 82    	test   %eax,-0x7d7b0000(%edx)
    8405:	00 00                	add    %al,(%eax)
    8407:	85 82 00 00 85 82    	test   %eax,-0x7d7b0000(%edx)
    840d:	00 00                	add    %al,(%eax)
    840f:	85 82 00 00 85 82    	test   %eax,-0x7d7b0000(%edx)
    8415:	00 00                	add    %al,(%eax)
    8417:	85 82 00 00 85 82    	test   %eax,-0x7d7b0000(%edx)
    841d:	00 00                	add    %al,(%eax)
    841f:	85 82 00 00 85 82    	test   %eax,-0x7d7b0000(%edx)
    8425:	00 00                	add    %al,(%eax)
    8427:	85 82 00 00 85 82    	test   %eax,-0x7d7b0000(%edx)
    842d:	00 00                	add    %al,(%eax)
    842f:	85 82 00 00 85 82    	test   %eax,-0x7d7b0000(%edx)
    8435:	00 00                	add    %al,(%eax)
    8437:	85 82 00 00 85 82    	test   %eax,-0x7d7b0000(%edx)
    843d:	00 00                	add    %al,(%eax)
    843f:	85 82 00 00 85 82    	test   %eax,-0x7d7b0000(%edx)
    8445:	00 00                	add    %al,(%eax)
    8447:	85 82 00 00 85 82    	test   %eax,-0x7d7b0000(%edx)
    844d:	00 00                	add    %al,(%eax)
    844f:	85 82 00 00 85 82    	test   %eax,-0x7d7b0000(%edx)
    8455:	00 00                	add    %al,(%eax)
    8457:	85 82 00 00 85 82    	test   %eax,-0x7d7b0000(%edx)
    845d:	00 00                	add    %al,(%eax)
    845f:	85 82 00 00 85 82    	test   %eax,-0x7d7b0000(%edx)
    8465:	00 00                	add    %al,(%eax)
    8467:	85 82 00 00 85 82    	test   %eax,-0x7d7b0000(%edx)
    846d:	00 00                	add    %al,(%eax)
    846f:	85 82 00 00 85 82    	test   %eax,-0x7d7b0000(%edx)
    8475:	00 00                	add    %al,(%eax)
    8477:	85 82 00 00 85 82    	test   %eax,-0x7d7b0000(%edx)
    847d:	00 00                	add    %al,(%eax)
    847f:	85 82 00 00 85 82    	test   %eax,-0x7d7b0000(%edx)
    8485:	00 00                	add    %al,(%eax)
    8487:	85 82 00 00 85 82    	test   %eax,-0x7d7b0000(%edx)
    848d:	00 00                	add    %al,(%eax)
    848f:	85 82 00 00 85 82    	test   %eax,-0x7d7b0000(%edx)
    8495:	00 00                	add    %al,(%eax)
    8497:	85 82 00 00 85 82    	test   %eax,-0x7d7b0000(%edx)
    849d:	00 00                	add    %al,(%eax)
    849f:	85 82 00 00 85 82    	test   %eax,-0x7d7b0000(%edx)
    84a5:	00 00                	add    %al,(%eax)
    84a7:	85 82 00 00 85 82    	test   %eax,-0x7d7b0000(%edx)
    84ad:	00 00                	add    %al,(%eax)
    84af:	85 82 00 00 85 82    	test   %eax,-0x7d7b0000(%edx)
    84b5:	00 00                	add    %al,(%eax)
    84b7:	85 82 00 00 85 82    	test   %eax,-0x7d7b0000(%edx)
    84bd:	00 00                	add    %al,(%eax)
    84bf:	85 82 00 00 85 82    	test   %eax,-0x7d7b0000(%edx)
    84c5:	00 00                	add    %al,(%eax)
    84c7:	85 82 00 00 85 82    	test   %eax,-0x7d7b0000(%edx)
    84cd:	00 00                	add    %al,(%eax)
    84cf:	85 82 00 00 85 82    	test   %eax,-0x7d7b0000(%edx)
    84d5:	00 00                	add    %al,(%eax)
    84d7:	85 82 00 00 85 82    	test   %eax,-0x7d7b0000(%edx)
    84dd:	00 00                	add    %al,(%eax)
    84df:	85 82 00 00 85 82    	test   %eax,-0x7d7b0000(%edx)
    84e5:	00 00                	add    %al,(%eax)
    84e7:	85 82 00 00 85 82    	test   %eax,-0x7d7b0000(%edx)
    84ed:	00 00                	add    %al,(%eax)
    84ef:	85 82 00 00 85 82    	test   %eax,-0x7d7b0000(%edx)
    84f5:	00 00                	add    %al,(%eax)
    84f7:	85 82 00 00 85 82    	test   %eax,-0x7d7b0000(%edx)
    84fd:	00 00                	add    %al,(%eax)
    84ff:	85 82 00 00 85 82    	test   %eax,-0x7d7b0000(%edx)
    8505:	00 00                	add    %al,(%eax)
    8507:	85 82 00 00 85 82    	test   %eax,-0x7d7b0000(%edx)
    850d:	00 00                	add    %al,(%eax)
    850f:	9b                   	fwait
    8510:	7f 00                	jg     0x8512
    8512:	00 85 82 00 00 85    	add    %al,-0x7affff7e(%ebp)
    8518:	82 00 00             	addb   $0x0,(%eax)
    851b:	85 82 00 00 85 82    	test   %eax,-0x7d7b0000(%edx)
    8521:	00 00                	add    %al,(%eax)
    8523:	85 82 00 00 85 82    	test   %eax,-0x7d7b0000(%edx)
    8529:	00 00                	add    %al,(%eax)
    852b:	85 82 00 00 85 82    	test   %eax,-0x7d7b0000(%edx)
    8531:	00 00                	add    %al,(%eax)
    8533:	85 82 00 00 85 82    	test   %eax,-0x7d7b0000(%edx)
    8539:	00 00                	add    %al,(%eax)
    853b:	85 82 00 00 85 82    	test   %eax,-0x7d7b0000(%edx)
    8541:	00 00                	add    %al,(%eax)
    8543:	bd 7f 00 00 85       	mov    $0x8500007f,%ebp
    8548:	82 00 00             	addb   $0x0,(%eax)
    854b:	85 82 00 00 85 82    	test   %eax,-0x7d7b0000(%edx)
    8551:	00 00                	add    %al,(%eax)
    8553:	85 82 00 00 85 82    	test   %eax,-0x7d7b0000(%edx)
    8559:	00 00                	add    %al,(%eax)
    855b:	85 82 00 00 85 82    	test   %eax,-0x7d7b0000(%edx)
    8561:	00 00                	add    %al,(%eax)
    8563:	85 82 00 00 85 82    	test   %eax,-0x7d7b0000(%edx)
    8569:	00 00                	add    %al,(%eax)
    856b:	85 82 00 00 85 82    	test   %eax,-0x7d7b0000(%edx)
    8571:	00 00                	add    %al,(%eax)
    8573:	cd 7f                	int    $0x7f
    8575:	00 00                	add    %al,(%eax)
    8577:	85 82 00 00 9f 7f    	test   %eax,0x7f9f0000(%edx)
    857d:	00 00                	add    %al,(%eax)
    857f:	85 82 00 00 0d 80    	test   %eax,-0x7ff30000(%edx)
    8585:	00 00                	add    %al,(%eax)
    8587:	85 82 00 00 85 82    	test   %eax,-0x7d7b0000(%edx)
    858d:	00 00                	add    %al,(%eax)
    858f:	85 82 00 00 85 82    	test   %eax,-0x7d7b0000(%edx)
    8595:	00 00                	add    %al,(%eax)
    8597:	85 82 00 00 85 82    	test   %eax,-0x7d7b0000(%edx)
    859d:	00 00                	add    %al,(%eax)
    859f:	85 82 00 00 85 82    	test   %eax,-0x7d7b0000(%edx)
    85a5:	00 00                	add    %al,(%eax)
    85a7:	85 82 00 00 85 82    	test   %eax,-0x7d7b0000(%edx)
    85ad:	00 00                	add    %al,(%eax)
    85af:	85 82 00 00 85 82    	test   %eax,-0x7d7b0000(%edx)
    85b5:	00 00                	add    %al,(%eax)
    85b7:	85 82 00 00 85 82    	test   %eax,-0x7d7b0000(%edx)
    85bd:	00 00                	add    %al,(%eax)
    85bf:	85 82 00 00 85 82    	test   %eax,-0x7d7b0000(%edx)
    85c5:	00 00                	add    %al,(%eax)
    85c7:	85 82 00 00 85 82    	test   %eax,-0x7d7b0000(%edx)
    85cd:	00 00                	add    %al,(%eax)
    85cf:	85 82 00 00 85 82    	test   %eax,-0x7d7b0000(%edx)
    85d5:	00 00                	add    %al,(%eax)
    85d7:	85 82 00 00 85 82    	test   %eax,-0x7d7b0000(%edx)
    85dd:	00 00                	add    %al,(%eax)
    85df:	85 82 00 00 85 82    	test   %eax,-0x7d7b0000(%edx)
    85e5:	00 00                	add    %al,(%eax)
    85e7:	85 82 00 00 85 82    	test   %eax,-0x7d7b0000(%edx)
    85ed:	00 00                	add    %al,(%eax)
    85ef:	85 82 00 00 85 82    	test   %eax,-0x7d7b0000(%edx)
    85f5:	00 00                	add    %al,(%eax)
    85f7:	85 82 00 00 85 82    	test   %eax,-0x7d7b0000(%edx)
    85fd:	00 00                	add    %al,(%eax)
    85ff:	85 82 00 00 85 82    	test   %eax,-0x7d7b0000(%edx)
    8605:	00 00                	add    %al,(%eax)
    8607:	85 82 00 00 85 82    	test   %eax,-0x7d7b0000(%edx)
    860d:	00 00                	add    %al,(%eax)
    860f:	85 82 00 00 85 82    	test   %eax,-0x7d7b0000(%edx)
    8615:	00 00                	add    %al,(%eax)
    8617:	85 82 00 00 85 82    	test   %eax,-0x7d7b0000(%edx)
    861d:	00 00                	add    %al,(%eax)
    861f:	85 82 00 00 85 82    	test   %eax,-0x7d7b0000(%edx)
    8625:	00 00                	add    %al,(%eax)
    8627:	85 82 00 00 85 82    	test   %eax,-0x7d7b0000(%edx)
    862d:	00 00                	add    %al,(%eax)
    862f:	85 82 00 00 85 82    	test   %eax,-0x7d7b0000(%edx)
    8635:	00 00                	add    %al,(%eax)
    8637:	85 82 00 00 85 82    	test   %eax,-0x7d7b0000(%edx)
    863d:	00 00                	add    %al,(%eax)
    863f:	85 82 00 00 85 82    	test   %eax,-0x7d7b0000(%edx)
    8645:	00 00                	add    %al,(%eax)
    8647:	85 82 00 00 85 82    	test   %eax,-0x7d7b0000(%edx)
    864d:	00 00                	add    %al,(%eax)
    864f:	85 82 00 00 85 82    	test   %eax,-0x7d7b0000(%edx)
    8655:	00 00                	add    %al,(%eax)
    8657:	85 82 00 00 85 82    	test   %eax,-0x7d7b0000(%edx)
    865d:	00 00                	add    %al,(%eax)
    865f:	85 82 00 00 85 82    	test   %eax,-0x7d7b0000(%edx)
    8665:	00 00                	add    %al,(%eax)
    8667:	85 82 00 00 85 82    	test   %eax,-0x7d7b0000(%edx)
    866d:	00 00                	add    %al,(%eax)
    866f:	85 82 00 00 85 82    	test   %eax,-0x7d7b0000(%edx)
    8675:	00 00                	add    %al,(%eax)
    8677:	85 82 00 00 85 82    	test   %eax,-0x7d7b0000(%edx)
    867d:	00 00                	add    %al,(%eax)
    867f:	85 82 00 00 85 82    	test   %eax,-0x7d7b0000(%edx)
    8685:	00 00                	add    %al,(%eax)
    8687:	85 82 00 00 85 82    	test   %eax,-0x7d7b0000(%edx)
    868d:	00 00                	add    %al,(%eax)
    868f:	85 82 00 00 85 82    	test   %eax,-0x7d7b0000(%edx)
    8695:	00 00                	add    %al,(%eax)
    8697:	85 82 00 00 50 e4    	test   %eax,-0x1bb00000(%edx)
    869d:	64 a8 02             	fs test $0x2,%al
    86a0:	75 fa                	jne    0x869c
    86a2:	58                   	pop    %eax
    86a3:	c3                   	ret    
    86a4:	e8 f2 ff ff ff       	call   0x869b
    86a9:	66 c7 05 72 04 00 00 	movw   $0x1234,0x472
    86b0:	34 12 
    86b2:	b0 fc                	mov    $0xfc,%al
    86b4:	e6 64                	out    %al,$0x64
    86b6:	eb fe                	jmp    0x86b6
    86b8:	68 48 3e 01 00       	push   $0x13e48
    86bd:	eb 06                	jmp    0x86c5
    86bf:	90                   	nop
    86c0:	68 50 3e 01 00       	push   $0x13e50
    86c5:	52                   	push   %edx
    86c6:	51                   	push   %ecx
    86c7:	53                   	push   %ebx
    86c8:	50                   	push   %eax
    86c9:	06                   	push   %es
    86ca:	1e                   	push   %ds
    86cb:	6a 10                	push   $0x10
    86cd:	1f                   	pop    %ds
    86ce:	6a 10                	push   $0x10
    86d0:	07                   	pop    %es
    86d1:	8b 54 24 18          	mov    0x18(%esp),%edx
    86d5:	8b 12                	mov    (%edx),%edx
    86d7:	8b 12                	mov    (%edx),%edx
    86d9:	83 c2 02             	add    $0x2,%edx
    86dc:	31 c0                	xor    %eax,%eax
    86de:	ec                   	in     (%dx),%al
    86df:	a8 01                	test   $0x1,%al
    86e1:	75 16                	jne    0x86f9
    86e3:	3c 06                	cmp    $0x6,%al
    86e5:	77 12                	ja     0x86f9
    86e7:	8b 4c 24 18          	mov    0x18(%esp),%ecx
    86eb:	52                   	push   %edx
    86ec:	83 ea 02             	sub    $0x2,%edx
    86ef:	ff 14 45 07 87 00 00 	call   *0x8707(,%eax,2)
    86f6:	5a                   	pop    %edx
    86f7:	eb e3                	jmp    0x86dc
    86f9:	b0 20                	mov    $0x20,%al
    86fb:	e6 20                	out    %al,$0x20
    86fd:	1f                   	pop    %ds
    86fe:	07                   	pop    %es
    86ff:	58                   	pop    %eax
    8700:	5b                   	pop    %ebx
    8701:	59                   	pop    %ecx
    8702:	5a                   	pop    %edx
    8703:	83 c4 04             	add    $0x4,%esp
    8706:	cf                   	iret   
    8707:	18 87 00 00 52 87    	sbb    %al,-0x78ae0000(%edi)
    870d:	00 00                	add    %al,(%eax)
    870f:	24 87                	and    $0x87,%al
    8711:	00 00                	add    %al,(%eax)
    8713:	1e                   	push   %ds
    8714:	87 00                	xchg   %eax,(%eax)
    8716:	00 90 83 c2 06 ec    	add    %dl,-0x13f93d7d(%eax)
    871c:	c3                   	ret    
    871d:	90                   	nop
    871e:	83 c2 05             	add    $0x5,%edx
    8721:	ec                   	in     (%dx),%al
    8722:	c3                   	ret    
    8723:	90                   	nop
    8724:	ec                   	in     (%dx),%al
    8725:	89 ca                	mov    %ecx,%edx
    8727:	81 ea 40 3e 01 00    	sub    $0x13e40,%edx
    872d:	c1 ea 03             	shr    $0x3,%edx
    8730:	8b 09                	mov    (%ecx),%ecx
    8732:	8b 59 04             	mov    0x4(%ecx),%ebx
    8735:	88 44 19 10          	mov    %al,0x10(%ecx,%ebx,1)
    8739:	43                   	inc    %ebx
    873a:	81 e3 ff 03 00 00    	and    $0x3ff,%ebx
    8740:	3b 59 08             	cmp    0x8(%ecx),%ebx
    8743:	74 0c                	je     0x8751
    8745:	89 59 04             	mov    %ebx,0x4(%ecx)
    8748:	52                   	push   %edx
    8749:	e8 de ea ff ff       	call   0x722c
    874e:	83 c4 04             	add    $0x4,%esp
    8751:	c3                   	ret    
    8752:	8b 49 04             	mov    0x4(%ecx),%ecx
    8755:	8b 59 04             	mov    0x4(%ecx),%ebx
    8758:	2b 59 08             	sub    0x8(%ecx),%ebx
    875b:	81 e3 ff 03 00 00    	and    $0x3ff,%ebx
    8761:	74 2d                	je     0x8790
    8763:	81 fb 00 01 00 00    	cmp    $0x100,%ebx
    8769:	77 0d                	ja     0x8778
    876b:	8b 59 0c             	mov    0xc(%ecx),%ebx
    876e:	85 db                	test   %ebx,%ebx
    8770:	74 06                	je     0x8778
    8772:	c7 03 00 00 00 00    	movl   $0x0,(%ebx)
    8778:	8b 59 08             	mov    0x8(%ecx),%ebx
    877b:	8a 44 19 10          	mov    0x10(%ecx,%ebx,1),%al
    877f:	ee                   	out    %al,(%dx)
    8780:	43                   	inc    %ebx
    8781:	81 e3 ff 03 00 00    	and    $0x3ff,%ebx
    8787:	89 59 08             	mov    %ebx,0x8(%ecx)
    878a:	3b 59 04             	cmp    0x4(%ecx),%ebx
    878d:	74 01                	je     0x8790
    878f:	c3                   	ret    
    8790:	8b 59 0c             	mov    0xc(%ecx),%ebx
    8793:	85 db                	test   %ebx,%ebx
    8795:	74 06                	je     0x879d
    8797:	c7 03 00 00 00 00    	movl   $0x0,(%ebx)
    879d:	42                   	inc    %edx
    879e:	ec                   	in     (%dx),%al
    879f:	eb 00                	jmp    0x87a1
    87a1:	eb 00                	jmp    0x87a3
    87a3:	24 0d                	and    $0xd,%al
    87a5:	ee                   	out    %al,(%dx)
    87a6:	c3                   	ret    
    87a7:	ba f7 01 00 00       	mov    $0x1f7,%edx
    87ac:	ec                   	in     (%dx),%al
    87ad:	88 c2                	mov    %al,%dl
    87af:	83 e2 f1             	and    $0xfffffff1,%edx
    87b2:	80 fa 50             	cmp    $0x50,%dl
    87b5:	74 10                	je     0x87c7
    87b7:	a8 01                	test   $0x1,%al
    87b9:	74 12                	je     0x87cd
    87bb:	ba f1 01 00 00       	mov    $0x1f1,%edx
    87c0:	ec                   	in     (%dx),%al
    87c1:	b8 01 00 00 00       	mov    $0x1,%eax
    87c6:	c3                   	ret    
    87c7:	b8 00 00 00 00       	mov    $0x0,%eax
    87cc:	c3                   	ret    
    87cd:	b8 01 00 00 00       	mov    $0x1,%eax
    87d2:	c3                   	ret    
    87d3:	ba f7 01 00 00       	mov    $0x1f7,%edx
    87d8:	ec                   	in     (%dx),%al
    87d9:	83 e0 c0             	and    $0xffffffc0,%eax
    87dc:	3c 40                	cmp    $0x40,%al
    87de:	74 10                	je     0x87f0
    87e0:	b9 9f 86 01 00       	mov    $0x1869f,%ecx
    87e5:	ec                   	in     (%dx),%al
    87e6:	83 e0 c0             	and    $0xffffffc0,%eax
    87e9:	3c 40                	cmp    $0x40,%al
    87eb:	74 03                	je     0x87f0
    87ed:	49                   	dec    %ecx
    87ee:	75 f5                	jne    0x87e5
    87f0:	ba f7 01 00 00       	mov    $0x1f7,%edx
    87f5:	ec                   	in     (%dx),%al
    87f6:	b8 00 00 00 00       	mov    $0x0,%eax
    87fb:	c3                   	ret    
    87fc:	57                   	push   %edi
    87fd:	56                   	push   %esi
    87fe:	53                   	push   %ebx
    87ff:	89 c3                	mov    %eax,%ebx
    8801:	89 d7                	mov    %edx,%edi
    8803:	89 ce                	mov    %ecx,%esi
    8805:	83 f8 01             	cmp    $0x1,%eax
    8808:	77 07                	ja     0x8811
    880a:	83 7c 24 10 0f       	cmpl   $0xf,0x10(%esp)
    880f:	76 10                	jbe    0x8821
    8811:	83 ec 0c             	sub    $0xc,%esp
    8814:	68 cb f2 00 00       	push   $0xf2cb
    8819:	e8 65 dc ff ff       	call   0x6483
    881e:	83 c4 10             	add    $0x10,%esp
    8821:	b9 e7 03 00 00       	mov    $0x3e7,%ecx
    8826:	ba f7 01 00 00       	mov    $0x1f7,%edx
    882b:	ec                   	in     (%dx),%al
    882c:	83 e0 c0             	and    $0xffffffc0,%eax
    882f:	3c 40                	cmp    $0x40,%al
    8831:	74 13                	je     0x8846
    8833:	49                   	dec    %ecx
    8834:	75 f5                	jne    0x882b
    8836:	83 ec 0c             	sub    $0xc,%esp
    8839:	68 e6 f2 00 00       	push   $0xf2e6
    883e:	e8 40 dc ff ff       	call   0x6483
    8843:	83 c4 10             	add    $0x10,%esp
    8846:	8b 44 24 1c          	mov    0x1c(%esp),%eax
    884a:	a3 c0 6d 01 00       	mov    %eax,0x16dc0
    884f:	b8 00 00 00 00       	mov    $0x0,%eax
    8854:	ba f6 03 00 00       	mov    $0x3f6,%edx
    8859:	ee                   	out    %al,(%dx)
    885a:	ba f1 01 00 00       	mov    $0x1f1,%edx
    885f:	b8 4b 00 00 00       	mov    $0x4b,%eax
    8864:	ee                   	out    %al,(%dx)
    8865:	eb 00                	jmp    0x8867
    8867:	eb 00                	jmp    0x8869
    8869:	ba f2 01 00 00       	mov    $0x1f2,%edx
    886e:	89 f8                	mov    %edi,%eax
    8870:	ee                   	out    %al,(%dx)
    8871:	eb 00                	jmp    0x8873
    8873:	eb 00                	jmp    0x8875
    8875:	ba f3 01 00 00       	mov    $0x1f3,%edx
    887a:	89 f0                	mov    %esi,%eax
    887c:	ee                   	out    %al,(%dx)
    887d:	eb 00                	jmp    0x887f
    887f:	eb 00                	jmp    0x8881
    8881:	ba f4 01 00 00       	mov    $0x1f4,%edx
    8886:	8b 44 24 14          	mov    0x14(%esp),%eax
    888a:	ee                   	out    %al,(%dx)
    888b:	eb 00                	jmp    0x888d
    888d:	eb 00                	jmp    0x888f
    888f:	c1 e8 08             	shr    $0x8,%eax
    8892:	ba f5 01 00 00       	mov    $0x1f5,%edx
    8897:	ee                   	out    %al,(%dx)
    8898:	eb 00                	jmp    0x889a
    889a:	eb 00                	jmp    0x889c
    889c:	8b 44 24 10          	mov    0x10(%esp),%eax
    88a0:	0c a0                	or     $0xa0,%al
    88a2:	c1 e3 04             	shl    $0x4,%ebx
    88a5:	09 d8                	or     %ebx,%eax
    88a7:	ba f6 01 00 00       	mov    $0x1f6,%edx
    88ac:	ee                   	out    %al,(%dx)
    88ad:	eb 00                	jmp    0x88af
    88af:	eb 00                	jmp    0x88b1
    88b1:	ba f7 01 00 00       	mov    $0x1f7,%edx
    88b6:	8b 44 24 18          	mov    0x18(%esp),%eax
    88ba:	ee                   	out    %al,(%dx)
    88bb:	5b                   	pop    %ebx
    88bc:	5e                   	pop    %esi
    88bd:	5f                   	pop    %edi
    88be:	c3                   	ret    
    88bf:	56                   	push   %esi
    88c0:	53                   	push   %ebx
    88c1:	83 ec 04             	sub    $0x4,%esp
    88c4:	89 c6                	mov    %eax,%esi
    88c6:	b8 04 00 00 00       	mov    $0x4,%eax
    88cb:	ba f6 03 00 00       	mov    $0x3f6,%edx
    88d0:	ee                   	out    %al,(%dx)
    88d1:	b8 e8 03 00 00       	mov    $0x3e8,%eax
    88d6:	90                   	nop
    88d7:	48                   	dec    %eax
    88d8:	75 fc                	jne    0x88d6
    88da:	b8 00 00 00 00       	mov    $0x0,%eax
    88df:	ba f6 03 00 00       	mov    $0x3f6,%edx
    88e4:	ee                   	out    %al,(%dx)
    88e5:	bb 10 27 00 00       	mov    $0x2710,%ebx
    88ea:	e8 e4 fe ff ff       	call   0x87d3
    88ef:	85 c0                	test   %eax,%eax
    88f1:	74 03                	je     0x88f6
    88f3:	4b                   	dec    %ebx
    88f4:	75 f4                	jne    0x88ea
    88f6:	e8 d8 fe ff ff       	call   0x87d3
    88fb:	85 c0                	test   %eax,%eax
    88fd:	75 47                	jne    0x8946
    88ff:	ba 01 00 00 00       	mov    $0x1,%edx
    8904:	ec                   	in     (%dx),%al
    8905:	0f b6 c0             	movzbl %al,%eax
    8908:	83 f8 01             	cmp    $0x1,%eax
    890b:	74 11                	je     0x891e
    890d:	83 ec 08             	sub    $0x8,%esp
    8910:	50                   	push   %eax
    8911:	68 58 f8 00 00       	push   $0xf858
    8916:	e8 93 db ff ff       	call   0x64ae
    891b:	83 c4 10             	add    $0x10,%esp
    891e:	68 58 89 00 00       	push   $0x8958
    8923:	68 91 00 00 00       	push   $0x91
    8928:	68 d1 03 00 00       	push   $0x3d1
    892d:	6a 04                	push   $0x4
    892f:	b9 11 00 00 00       	mov    $0x11,%ecx
    8934:	ba 11 00 00 00       	mov    $0x11,%edx
    8939:	89 f0                	mov    %esi,%eax
    893b:	e8 bc fe ff ff       	call   0x87fc
    8940:	83 c4 14             	add    $0x14,%esp
    8943:	5b                   	pop    %ebx
    8944:	5e                   	pop    %esi
    8945:	c3                   	ret    
    8946:	83 ec 0c             	sub    $0xc,%esp
    8949:	68 fe f2 00 00       	push   $0xf2fe
    894e:	e8 5b db ff ff       	call   0x64ae
    8953:	83 c4 10             	add    $0x10,%esp
    8956:	eb a7                	jmp    0x88ff
    8958:	83 3d c8 6d 01 00 00 	cmpl   $0x0,0x16dc8
    895f:	0f 85 cd 00 00 00    	jne    0x8a32
    8965:	a1 cc 6d 01 00       	mov    0x16dcc,%eax
    896a:	85 c0                	test   %eax,%eax
    896c:	74 2a                	je     0x8998
    896e:	56                   	push   %esi
    896f:	83 ec 08             	sub    $0x8,%esp
    8972:	8b 50 14             	mov    0x14(%eax),%edx
    8975:	83 fa 30             	cmp    $0x30,%edx
    8978:	74 29                	je     0x89a3
    897a:	83 fa 20             	cmp    $0x20,%edx
    897d:	0f 84 8d 00 00 00    	je     0x8a10
    8983:	83 ec 0c             	sub    $0xc,%esp
    8986:	68 19 f3 00 00       	push   $0xf319
    898b:	e8 f3 da ff ff       	call   0x6483
    8990:	83 c4 10             	add    $0x10,%esp
    8993:	83 c4 08             	add    $0x8,%esp
    8996:	5e                   	pop    %esi
    8997:	c3                   	ret    
    8998:	c7 05 c0 6d 01 00 00 	movl   $0x0,0x16dc0
    899f:	00 00 00 
    89a2:	c3                   	ret    
    89a3:	8b 48 08             	mov    0x8(%eax),%ecx
    89a6:	8b 50 04             	mov    0x4(%eax),%edx
    89a9:	68 72 8d 00 00       	push   $0x8d72
    89ae:	6a 30                	push   $0x30
    89b0:	ff 70 10             	pushl  0x10(%eax)
    89b3:	ff 70 0c             	pushl  0xc(%eax)
    89b6:	8b 00                	mov    (%eax),%eax
    89b8:	e8 3f fe ff ff       	call   0x87fc
    89bd:	ba f7 01 00 00       	mov    $0x1f7,%edx
    89c2:	ec                   	in     (%dx),%al
    89c3:	eb 00                	jmp    0x89c5
    89c5:	eb 00                	jmp    0x89c7
    89c7:	83 c4 10             	add    $0x10,%esp
    89ca:	b9 b7 0b 00 00       	mov    $0xbb7,%ecx
    89cf:	a8 08                	test   $0x8,%al
    89d1:	75 1a                	jne    0x89ed
    89d3:	ec                   	in     (%dx),%al
    89d4:	eb 00                	jmp    0x89d6
    89d6:	eb 00                	jmp    0x89d8
    89d8:	a8 08                	test   $0x8,%al
    89da:	75 11                	jne    0x89ed
    89dc:	49                   	dec    %ecx
    89dd:	75 f4                	jne    0x89d3
    89df:	a1 cc 6d 01 00       	mov    0x16dcc,%eax
    89e4:	8b 00                	mov    (%eax),%eax
    89e6:	e8 d4 fe ff ff       	call   0x88bf
    89eb:	eb a6                	jmp    0x8993
    89ed:	a1 cc 6d 01 00       	mov    0x16dcc,%eax
    89f2:	8b 50 1c             	mov    0x1c(%eax),%edx
    89f5:	8b 70 04             	mov    0x4(%eax),%esi
    89f8:	83 e6 01             	and    $0x1,%esi
    89fb:	c1 e6 09             	shl    $0x9,%esi
    89fe:	03 32                	add    (%edx),%esi
    8a00:	ba f0 01 00 00       	mov    $0x1f0,%edx
    8a05:	b9 00 01 00 00       	mov    $0x100,%ecx
    8a0a:	fc                   	cld    
    8a0b:	f3 66 6f             	rep outsw %ds:(%esi),(%dx)
    8a0e:	eb 83                	jmp    0x8993
    8a10:	8b 48 08             	mov    0x8(%eax),%ecx
    8a13:	8b 50 04             	mov    0x4(%eax),%edx
    8a16:	68 ba 8c 00 00       	push   $0x8cba
    8a1b:	6a 20                	push   $0x20
    8a1d:	ff 70 10             	pushl  0x10(%eax)
    8a20:	ff 70 0c             	pushl  0xc(%eax)
    8a23:	8b 00                	mov    (%eax),%eax
    8a25:	e8 d2 fd ff ff       	call   0x87fc
    8a2a:	83 c4 10             	add    $0x10,%esp
    8a2d:	e9 61 ff ff ff       	jmp    0x8993
    8a32:	c3                   	ret    
    8a33:	55                   	push   %ebp
    8a34:	57                   	push   %edi
    8a35:	56                   	push   %esi
    8a36:	53                   	push   %ebx
    8a37:	83 ec 1c             	sub    $0x1c,%esp
    8a3a:	89 c3                	mov    %eax,%ebx
    8a3c:	89 d6                	mov    %edx,%esi
    8a3e:	89 cf                	mov    %ecx,%edi
    8a40:	8b 6c 24 38          	mov    0x38(%esp),%ebp
    8a44:	83 f8 01             	cmp    $0x1,%eax
    8a47:	77 0c                	ja     0x8a55
    8a49:	80 7d 0b 00          	cmpb   $0x0,0xb(%ebp)
    8a4d:	75 18                	jne    0x8a67
    8a4f:	c6 45 0b 01          	movb   $0x1,0xb(%ebp)
    8a53:	eb 3f                	jmp    0x8a94
    8a55:	83 ec 0c             	sub    $0xc,%esp
    8a58:	68 2c f3 00 00       	push   $0xf32c
    8a5d:	e8 21 da ff ff       	call   0x6483
    8a62:	83 c4 10             	add    $0x10,%esp
    8a65:	eb e2                	jmp    0x8a49
    8a67:	83 ec 0c             	sub    $0xc,%esp
    8a6a:	68 48 f3 00 00       	push   $0xf348
    8a6f:	e8 3a da ff ff       	call   0x64ae
    8a74:	83 c4 10             	add    $0x10,%esp
    8a77:	eb d6                	jmp    0x8a4f
    8a79:	3d 60 72 01 00       	cmp    $0x17260,%eax
    8a7e:	0f 85 47 01 00 00    	jne    0x8bcb
    8a84:	83 ec 0c             	sub    $0xc,%esp
    8a87:	68 c4 6d 01 00       	push   $0x16dc4
    8a8c:	e8 cf cb ff ff       	call   0x5660
    8a91:	83 c4 10             	add    $0x10,%esp
    8a94:	83 3d e0 6d 01 00 00 	cmpl   $0x0,0x16de0
    8a9b:	0f 88 25 01 00 00    	js     0x8bc6
    8aa1:	b8 04 6e 01 00       	mov    $0x16e04,%eax
    8aa6:	83 38 00             	cmpl   $0x0,(%eax)
    8aa9:	0f 88 1c 01 00 00    	js     0x8bcb
    8aaf:	83 c0 24             	add    $0x24,%eax
    8ab2:	3d 60 72 01 00       	cmp    $0x17260,%eax
    8ab7:	72 ed                	jb     0x8aa6
    8ab9:	eb be                	jmp    0x8a79
    8abb:	a3 cc 6d 01 00       	mov    %eax,0x16dcc
    8ac0:	e9 c2 00 00 00       	jmp    0x8b87
    8ac5:	8b 7b 10             	mov    0x10(%ebx),%edi
    8ac8:	39 7c 24 04          	cmp    %edi,0x4(%esp)
    8acc:	7f 1e                	jg     0x8aec
    8ace:	39 7c 24 04          	cmp    %edi,0x4(%esp)
    8ad2:	75 39                	jne    0x8b0d
    8ad4:	8b 7b 0c             	mov    0xc(%ebx),%edi
    8ad7:	39 7c 24 08          	cmp    %edi,0x8(%esp)
    8adb:	7f 0f                	jg     0x8aec
    8add:	39 7c 24 08          	cmp    %edi,0x8(%esp)
    8ae1:	75 2a                	jne    0x8b0d
    8ae3:	8b 7c 24 0c          	mov    0xc(%esp),%edi
    8ae7:	3b 7b 08             	cmp    0x8(%ebx),%edi
    8aea:	7e 21                	jle    0x8b0d
    8aec:	8b 32                	mov    (%edx),%esi
    8aee:	39 f1                	cmp    %esi,%ecx
    8af0:	0f 8c 8b 00 00 00    	jl     0x8b81
    8af6:	39 f1                	cmp    %esi,%ecx
    8af8:	74 45                	je     0x8b3f
    8afa:	89 d3                	mov    %edx,%ebx
    8afc:	8b 53 20             	mov    0x20(%ebx),%edx
    8aff:	85 d2                	test   %edx,%edx
    8b01:	74 7e                	je     0x8b81
    8b03:	8b 33                	mov    (%ebx),%esi
    8b05:	39 f1                	cmp    %esi,%ecx
    8b07:	7f e3                	jg     0x8aec
    8b09:	39 f1                	cmp    %esi,%ecx
    8b0b:	74 b8                	je     0x8ac5
    8b0d:	8b 3a                	mov    (%edx),%edi
    8b0f:	39 fe                	cmp    %edi,%esi
    8b11:	7c 5f                	jl     0x8b72
    8b13:	39 fe                	cmp    %edi,%esi
    8b15:	75 d5                	jne    0x8aec
    8b17:	8b 7b 10             	mov    0x10(%ebx),%edi
    8b1a:	8b 72 10             	mov    0x10(%edx),%esi
    8b1d:	39 f7                	cmp    %esi,%edi
    8b1f:	7c 55                	jl     0x8b76
    8b21:	39 f7                	cmp    %esi,%edi
    8b23:	75 c7                	jne    0x8aec
    8b25:	8b 7b 0c             	mov    0xc(%ebx),%edi
    8b28:	8b 72 0c             	mov    0xc(%edx),%esi
    8b2b:	39 f7                	cmp    %esi,%edi
    8b2d:	7c 4b                	jl     0x8b7a
    8b2f:	39 f7                	cmp    %esi,%edi
    8b31:	75 b9                	jne    0x8aec
    8b33:	8b 7a 08             	mov    0x8(%edx),%edi
    8b36:	39 7b 08             	cmp    %edi,0x8(%ebx)
    8b39:	7d b1                	jge    0x8aec
    8b3b:	89 d3                	mov    %edx,%ebx
    8b3d:	eb bd                	jmp    0x8afc
    8b3f:	8b 72 10             	mov    0x10(%edx),%esi
    8b42:	8b 7c 24 04          	mov    0x4(%esp),%edi
    8b46:	39 f7                	cmp    %esi,%edi
    8b48:	7c 37                	jl     0x8b81
    8b4a:	39 f7                	cmp    %esi,%edi
    8b4c:	74 04                	je     0x8b52
    8b4e:	89 d3                	mov    %edx,%ebx
    8b50:	eb aa                	jmp    0x8afc
    8b52:	8b 72 0c             	mov    0xc(%edx),%esi
    8b55:	8b 7c 24 08          	mov    0x8(%esp),%edi
    8b59:	39 f7                	cmp    %esi,%edi
    8b5b:	7c 24                	jl     0x8b81
    8b5d:	39 f7                	cmp    %esi,%edi
    8b5f:	74 04                	je     0x8b65
    8b61:	89 d3                	mov    %edx,%ebx
    8b63:	eb 97                	jmp    0x8afc
    8b65:	8b 7c 24 0c          	mov    0xc(%esp),%edi
    8b69:	3b 7a 08             	cmp    0x8(%edx),%edi
    8b6c:	7c 13                	jl     0x8b81
    8b6e:	89 d3                	mov    %edx,%ebx
    8b70:	eb 8a                	jmp    0x8afc
    8b72:	89 d3                	mov    %edx,%ebx
    8b74:	eb 86                	jmp    0x8afc
    8b76:	89 d3                	mov    %edx,%ebx
    8b78:	eb 82                	jmp    0x8afc
    8b7a:	89 d3                	mov    %edx,%ebx
    8b7c:	e9 7b ff ff ff       	jmp    0x8afc
    8b81:	89 50 20             	mov    %edx,0x20(%eax)
    8b84:	89 43 20             	mov    %eax,0x20(%ebx)
    8b87:	c7 05 c8 6d 01 00 00 	movl   $0x0,0x16dc8
    8b8e:	00 00 00 
    8b91:	83 3d c0 6d 01 00 00 	cmpl   $0x0,0x16dc0
    8b98:	74 25                	je     0x8bbf
    8b9a:	fa                   	cli    
    8b9b:	80 7d 0b 00          	cmpb   $0x0,0xb(%ebp)
    8b9f:	74 15                	je     0x8bb6
    8ba1:	8d 5d 0c             	lea    0xc(%ebp),%ebx
    8ba4:	83 ec 0c             	sub    $0xc,%esp
    8ba7:	53                   	push   %ebx
    8ba8:	e8 b3 ca ff ff       	call   0x5660
    8bad:	83 c4 10             	add    $0x10,%esp
    8bb0:	80 7d 0b 00          	cmpb   $0x0,0xb(%ebp)
    8bb4:	75 ee                	jne    0x8ba4
    8bb6:	fb                   	sti    
    8bb7:	83 c4 1c             	add    $0x1c,%esp
    8bba:	5b                   	pop    %ebx
    8bbb:	5e                   	pop    %esi
    8bbc:	5f                   	pop    %edi
    8bbd:	5d                   	pop    %ebp
    8bbe:	c3                   	ret    
    8bbf:	e8 94 fd ff ff       	call   0x8958
    8bc4:	eb d4                	jmp    0x8b9a
    8bc6:	b8 e0 6d 01 00       	mov    $0x16de0,%eax
    8bcb:	89 f1                	mov    %esi,%ecx
    8bcd:	89 30                	mov    %esi,(%eax)
    8bcf:	c7 40 04 02 00 00 00 	movl   $0x2,0x4(%eax)
    8bd6:	89 7c 24 0c          	mov    %edi,0xc(%esp)
    8bda:	89 78 08             	mov    %edi,0x8(%eax)
    8bdd:	8b 7c 24 30          	mov    0x30(%esp),%edi
    8be1:	89 7c 24 08          	mov    %edi,0x8(%esp)
    8be5:	89 78 0c             	mov    %edi,0xc(%eax)
    8be8:	8b 7c 24 34          	mov    0x34(%esp),%edi
    8bec:	89 7c 24 04          	mov    %edi,0x4(%esp)
    8bf0:	89 78 10             	mov    %edi,0x10(%eax)
    8bf3:	83 fb 01             	cmp    $0x1,%ebx
    8bf6:	19 d2                	sbb    %edx,%edx
    8bf8:	83 e2 f0             	and    $0xfffffff0,%edx
    8bfb:	83 c2 30             	add    $0x30,%edx
    8bfe:	89 50 14             	mov    %edx,0x14(%eax)
    8c01:	89 68 1c             	mov    %ebp,0x1c(%eax)
    8c04:	c7 40 18 00 00 00 00 	movl   $0x0,0x18(%eax)
    8c0b:	c7 40 20 00 00 00 00 	movl   $0x0,0x20(%eax)
    8c12:	c7 05 c8 6d 01 00 01 	movl   $0x1,0x16dc8
    8c19:	00 00 00 
    8c1c:	8b 15 cc 6d 01 00    	mov    0x16dcc,%edx
    8c22:	85 d2                	test   %edx,%edx
    8c24:	0f 84 91 fe ff ff    	je     0x8abb
    8c2a:	8b 5a 20             	mov    0x20(%edx),%ebx
    8c2d:	85 db                	test   %ebx,%ebx
    8c2f:	0f 85 c7 fe ff ff    	jne    0x8afc
    8c35:	89 42 20             	mov    %eax,0x20(%edx)
    8c38:	e9 4a ff ff ff       	jmp    0x8b87
    8c3d:	56                   	push   %esi
    8c3e:	53                   	push   %ebx
    8c3f:	83 ec 04             	sub    $0x4,%esp
    8c42:	a1 cc 6d 01 00       	mov    0x16dcc,%eax
    8c47:	8b 30                	mov    (%eax),%esi
    8c49:	8b 50 18             	mov    0x18(%eax),%edx
    8c4c:	8d 4a 01             	lea    0x1(%edx),%ecx
    8c4f:	89 48 18             	mov    %ecx,0x18(%eax)
    8c52:	83 fa 04             	cmp    $0x4,%edx
    8c55:	7f 0d                	jg     0x8c64
    8c57:	89 f0                	mov    %esi,%eax
    8c59:	e8 61 fc ff ff       	call   0x88bf
    8c5e:	83 c4 04             	add    $0x4,%esp
    8c61:	5b                   	pop    %ebx
    8c62:	5e                   	pop    %esi
    8c63:	c3                   	ret    
    8c64:	8b 50 1c             	mov    0x1c(%eax),%edx
    8c67:	c6 42 08 00          	movb   $0x0,0x8(%edx)
    8c6b:	8b 58 1c             	mov    0x1c(%eax),%ebx
    8c6e:	80 7b 0b 00          	cmpb   $0x0,0xb(%ebx)
    8c72:	74 34                	je     0x8ca8
    8c74:	c6 43 0b 00          	movb   $0x0,0xb(%ebx)
    8c78:	83 ec 0c             	sub    $0xc,%esp
    8c7b:	83 c3 0c             	add    $0xc,%ebx
    8c7e:	53                   	push   %ebx
    8c7f:	e8 a0 ca ff ff       	call   0x5724
    8c84:	c7 04 24 c4 6d 01 00 	movl   $0x16dc4,(%esp)
    8c8b:	e8 94 ca ff ff       	call   0x5724
    8c90:	a1 cc 6d 01 00       	mov    0x16dcc,%eax
    8c95:	c7 00 ff ff ff ff    	movl   $0xffffffff,(%eax)
    8c9b:	8b 40 20             	mov    0x20(%eax),%eax
    8c9e:	a3 cc 6d 01 00       	mov    %eax,0x16dcc
    8ca3:	83 c4 10             	add    $0x10,%esp
    8ca6:	eb af                	jmp    0x8c57
    8ca8:	83 ec 0c             	sub    $0xc,%esp
    8cab:	68 7c f8 00 00       	push   $0xf87c
    8cb0:	e8 f9 d7 ff ff       	call   0x64ae
    8cb5:	83 c4 10             	add    $0x10,%esp
    8cb8:	eb ba                	jmp    0x8c74
    8cba:	57                   	push   %edi
    8cbb:	53                   	push   %ebx
    8cbc:	83 ec 04             	sub    $0x4,%esp
    8cbf:	e8 e3 fa ff ff       	call   0x87a7
    8cc4:	85 c0                	test   %eax,%eax
    8cc6:	75 3b                	jne    0x8d03
    8cc8:	a1 cc 6d 01 00       	mov    0x16dcc,%eax
    8ccd:	8b 58 1c             	mov    0x1c(%eax),%ebx
    8cd0:	8b 78 04             	mov    0x4(%eax),%edi
    8cd3:	83 e7 01             	and    $0x1,%edi
    8cd6:	c1 e7 09             	shl    $0x9,%edi
    8cd9:	03 3b                	add    (%ebx),%edi
    8cdb:	ba f0 01 00 00       	mov    $0x1f0,%edx
    8ce0:	b9 00 01 00 00       	mov    $0x100,%ecx
    8ce5:	fc                   	cld    
    8ce6:	f3 66 6d             	rep insw (%dx),%es:(%edi)
    8ce9:	c7 40 18 00 00 00 00 	movl   $0x0,0x18(%eax)
    8cf0:	8b 48 04             	mov    0x4(%eax),%ecx
    8cf3:	8d 51 ff             	lea    -0x1(%ecx),%edx
    8cf6:	89 50 04             	mov    %edx,0x4(%eax)
    8cf9:	85 d2                	test   %edx,%edx
    8cfb:	74 0d                	je     0x8d0a
    8cfd:	83 c4 04             	add    $0x4,%esp
    8d00:	5b                   	pop    %ebx
    8d01:	5f                   	pop    %edi
    8d02:	c3                   	ret    
    8d03:	e8 35 ff ff ff       	call   0x8c3d
    8d08:	eb f3                	jmp    0x8cfd
    8d0a:	c6 43 08 01          	movb   $0x1,0x8(%ebx)
    8d0e:	8b 40 1c             	mov    0x1c(%eax),%eax
    8d11:	c6 40 09 00          	movb   $0x0,0x9(%eax)
    8d15:	83 ec 0c             	sub    $0xc,%esp
    8d18:	68 c4 6d 01 00       	push   $0x16dc4
    8d1d:	e8 02 ca ff ff       	call   0x5724
    8d22:	a1 cc 6d 01 00       	mov    0x16dcc,%eax
    8d27:	8b 58 1c             	mov    0x1c(%eax),%ebx
    8d2a:	83 c4 10             	add    $0x10,%esp
    8d2d:	80 7b 0b 00          	cmpb   $0x0,0xb(%ebx)
    8d31:	74 2d                	je     0x8d60
    8d33:	c6 43 0b 00          	movb   $0x0,0xb(%ebx)
    8d37:	83 ec 0c             	sub    $0xc,%esp
    8d3a:	83 c3 0c             	add    $0xc,%ebx
    8d3d:	53                   	push   %ebx
    8d3e:	e8 e1 c9 ff ff       	call   0x5724
    8d43:	a1 cc 6d 01 00       	mov    0x16dcc,%eax
    8d48:	c7 00 ff ff ff ff    	movl   $0xffffffff,(%eax)
    8d4e:	8b 40 20             	mov    0x20(%eax),%eax
    8d51:	a3 cc 6d 01 00       	mov    %eax,0x16dcc
    8d56:	e8 fd fb ff ff       	call   0x8958
    8d5b:	83 c4 10             	add    $0x10,%esp
    8d5e:	eb 9d                	jmp    0x8cfd
    8d60:	83 ec 0c             	sub    $0xc,%esp
    8d63:	68 7c f8 00 00       	push   $0xf87c
    8d68:	e8 41 d7 ff ff       	call   0x64ae
    8d6d:	83 c4 10             	add    $0x10,%esp
    8d70:	eb c1                	jmp    0x8d33
    8d72:	56                   	push   %esi
    8d73:	83 ec 08             	sub    $0x8,%esp
    8d76:	e8 2c fa ff ff       	call   0x87a7
    8d7b:	85 c0                	test   %eax,%eax
    8d7d:	75 2f                	jne    0x8dae
    8d7f:	8b 15 cc 6d 01 00    	mov    0x16dcc,%edx
    8d85:	8b 42 04             	mov    0x4(%edx),%eax
    8d88:	48                   	dec    %eax
    8d89:	89 42 04             	mov    %eax,0x4(%edx)
    8d8c:	85 c0                	test   %eax,%eax
    8d8e:	74 25                	je     0x8db5
    8d90:	8b 42 1c             	mov    0x1c(%edx),%eax
    8d93:	8b 30                	mov    (%eax),%esi
    8d95:	81 c6 00 02 00 00    	add    $0x200,%esi
    8d9b:	ba f0 01 00 00       	mov    $0x1f0,%edx
    8da0:	b9 00 01 00 00       	mov    $0x100,%ecx
    8da5:	fc                   	cld    
    8da6:	f3 66 6f             	rep outsw %ds:(%esi),(%dx)
    8da9:	83 c4 08             	add    $0x8,%esp
    8dac:	5e                   	pop    %esi
    8dad:	c3                   	ret    
    8dae:	e8 8a fe ff ff       	call   0x8c3d
    8db3:	eb f4                	jmp    0x8da9
    8db5:	8b 42 1c             	mov    0x1c(%edx),%eax
    8db8:	c6 40 08 01          	movb   $0x1,0x8(%eax)
    8dbc:	8b 42 1c             	mov    0x1c(%edx),%eax
    8dbf:	c6 40 09 00          	movb   $0x0,0x9(%eax)
    8dc3:	83 ec 0c             	sub    $0xc,%esp
    8dc6:	68 c4 6d 01 00       	push   $0x16dc4
    8dcb:	e8 54 c9 ff ff       	call   0x5724
    8dd0:	a1 cc 6d 01 00       	mov    0x16dcc,%eax
    8dd5:	8b 70 1c             	mov    0x1c(%eax),%esi
    8dd8:	83 c4 10             	add    $0x10,%esp
    8ddb:	80 7e 0b 00          	cmpb   $0x0,0xb(%esi)
    8ddf:	74 2d                	je     0x8e0e
    8de1:	c6 46 0b 00          	movb   $0x0,0xb(%esi)
    8de5:	83 ec 0c             	sub    $0xc,%esp
    8de8:	83 c6 0c             	add    $0xc,%esi
    8deb:	56                   	push   %esi
    8dec:	e8 33 c9 ff ff       	call   0x5724
    8df1:	a1 cc 6d 01 00       	mov    0x16dcc,%eax
    8df6:	c7 00 ff ff ff ff    	movl   $0xffffffff,(%eax)
    8dfc:	8b 40 20             	mov    0x20(%eax),%eax
    8dff:	a3 cc 6d 01 00       	mov    %eax,0x16dcc
    8e04:	e8 4f fb ff ff       	call   0x8958
    8e09:	83 c4 10             	add    $0x10,%esp
    8e0c:	eb 9b                	jmp    0x8da9
    8e0e:	83 ec 0c             	sub    $0xc,%esp
    8e11:	68 7c f8 00 00       	push   $0xf87c
    8e16:	e8 93 d6 ff ff       	call   0x64ae
    8e1b:	83 c4 10             	add    $0x10,%esp
    8e1e:	eb c1                	jmp    0x8de1
    8e20:	55                   	push   %ebp
    8e21:	57                   	push   %edi
    8e22:	56                   	push   %esi
    8e23:	53                   	push   %ebx
    8e24:	83 ec 0c             	sub    $0xc,%esp
    8e27:	8b 5c 24 24          	mov    0x24(%esp),%ebx
    8e2b:	0f b6 43 04          	movzbl 0x4(%ebx),%eax
    8e2f:	83 f8 09             	cmp    $0x9,%eax
    8e32:	77 12                	ja     0x8e46
    8e34:	0f b7 4b 06          	movzwl 0x6(%ebx),%ecx
    8e38:	01 c9                	add    %ecx,%ecx
    8e3a:	8d 51 02             	lea    0x2(%ecx),%edx
    8e3d:	3b 14 c5 64 72 01 00 	cmp    0x17264(,%eax,8),%edx
    8e44:	76 08                	jbe    0x8e4e
    8e46:	83 c4 0c             	add    $0xc,%esp
    8e49:	5b                   	pop    %ebx
    8e4a:	5e                   	pop    %esi
    8e4b:	5f                   	pop    %edi
    8e4c:	5d                   	pop    %ebp
    8e4d:	c3                   	ret    
    8e4e:	03 0c c5 60 72 01 00 	add    0x17260(,%eax,8),%ecx
    8e55:	ba cd cc cc cc       	mov    $0xcccccccd,%edx
    8e5a:	f7 e2                	mul    %edx
    8e5c:	89 d7                	mov    %edx,%edi
    8e5e:	c1 ef 02             	shr    $0x2,%edi
    8e61:	be 00 00 00 00       	mov    $0x0,%esi
    8e66:	8d 2c 3f             	lea    (%edi,%edi,1),%ebp
    8e69:	01 fd                	add    %edi,%ebp
    8e6b:	c1 e5 03             	shl    $0x3,%ebp
    8e6e:	89 c8                	mov    %ecx,%eax
    8e70:	89 f2                	mov    %esi,%edx
    8e72:	8b 8d 84 ef 00 00    	mov    0xef84(%ebp),%ecx
    8e78:	f7 f1                	div    %ecx
    8e7a:	89 d1                	mov    %edx,%ecx
    8e7c:	8b ad 80 ef 00 00    	mov    0xef80(%ebp),%ebp
    8e82:	89 f2                	mov    %esi,%edx
    8e84:	f7 f5                	div    %ebp
    8e86:	41                   	inc    %ecx
    8e87:	83 ec 04             	sub    $0x4,%esp
    8e8a:	53                   	push   %ebx
    8e8b:	50                   	push   %eax
    8e8c:	52                   	push   %edx
    8e8d:	89 fa                	mov    %edi,%edx
    8e8f:	8b 44 24 30          	mov    0x30(%esp),%eax
    8e93:	e8 9b fb ff ff       	call   0x8a33
    8e98:	83 c4 10             	add    $0x10,%esp
    8e9b:	eb a9                	jmp    0x8e46
    8e9d:	83 3d 90 63 01 00 00 	cmpl   $0x0,0x16390
    8ea4:	0f 84 05 01 00 00    	je     0x8faf
    8eaa:	57                   	push   %edi
    8eab:	56                   	push   %esi
    8eac:	53                   	push   %ebx
    8ead:	c7 05 90 63 01 00 00 	movl   $0x0,0x16390
    8eb4:	00 00 00 
    8eb7:	be 60 72 01 00       	mov    $0x17260,%esi
    8ebc:	bb 00 00 00 00       	mov    $0x0,%ebx
    8ec1:	eb 73                	jmp    0x8f36
    8ec3:	83 ec 08             	sub    $0x8,%esp
    8ec6:	53                   	push   %ebx
    8ec7:	68 a0 f8 00 00       	push   $0xf8a0
    8ecc:	e8 dd d5 ff ff       	call   0x64ae
    8ed1:	c7 04 24 66 f3 00 00 	movl   $0xf366,(%esp)
    8ed8:	e8 a6 d5 ff ff       	call   0x6483
    8edd:	83 c4 10             	add    $0x10,%esp
    8ee0:	e9 81 00 00 00       	jmp    0x8f66
    8ee5:	83 ec 08             	sub    $0x8,%esp
    8ee8:	53                   	push   %ebx
    8ee9:	68 d0 f8 00 00       	push   $0xf8d0
    8eee:	e8 bb d5 ff ff       	call   0x64ae
    8ef3:	c7 04 24 66 f3 00 00 	movl   $0xf366,(%esp)
    8efa:	e8 84 d5 ff ff       	call   0x6483
    8eff:	83 c4 10             	add    $0x10,%esp
    8f02:	a1 d0 63 01 00       	mov    0x163d0,%eax
    8f07:	8b 08                	mov    (%eax),%ecx
    8f09:	8d 81 be 01 00 00    	lea    0x1be(%ecx),%eax
    8f0f:	81 c1 fe 01 00 00    	add    $0x1fe,%ecx
    8f15:	89 f2                	mov    %esi,%edx
    8f17:	8b 78 08             	mov    0x8(%eax),%edi
    8f1a:	89 7a 08             	mov    %edi,0x8(%edx)
    8f1d:	8b 78 0c             	mov    0xc(%eax),%edi
    8f20:	89 7a 0c             	mov    %edi,0xc(%edx)
    8f23:	83 c0 10             	add    $0x10,%eax
    8f26:	83 c2 08             	add    $0x8,%edx
    8f29:	39 c8                	cmp    %ecx,%eax
    8f2b:	75 ea                	jne    0x8f17
    8f2d:	43                   	inc    %ebx
    8f2e:	83 c6 28             	add    $0x28,%esi
    8f31:	83 fb 02             	cmp    $0x2,%ebx
    8f34:	74 56                	je     0x8f8c
    8f36:	83 ec 04             	sub    $0x4,%esp
    8f39:	ff 35 d0 63 01 00    	pushl  0x163d0
    8f3f:	6a 00                	push   $0x0
    8f41:	6a 00                	push   $0x0
    8f43:	b9 01 00 00 00       	mov    $0x1,%ecx
    8f48:	89 da                	mov    %ebx,%edx
    8f4a:	b8 00 00 00 00       	mov    $0x0,%eax
    8f4f:	e8 df fa ff ff       	call   0x8a33
    8f54:	83 c4 10             	add    $0x10,%esp
    8f57:	a1 d0 63 01 00       	mov    0x163d0,%eax
    8f5c:	80 78 08 00          	cmpb   $0x0,0x8(%eax)
    8f60:	0f 84 5d ff ff ff    	je     0x8ec3
    8f66:	a1 d0 63 01 00       	mov    0x163d0,%eax
    8f6b:	8b 00                	mov    (%eax),%eax
    8f6d:	80 b8 fe 01 00 00 55 	cmpb   $0x55,0x1fe(%eax)
    8f74:	0f 85 6b ff ff ff    	jne    0x8ee5
    8f7a:	80 b8 ff 01 00 00 aa 	cmpb   $0xaa,0x1ff(%eax)
    8f81:	0f 85 5e ff ff ff    	jne    0x8ee5
    8f87:	e9 76 ff ff ff       	jmp    0x8f02
    8f8c:	83 ec 08             	sub    $0x8,%esp
    8f8f:	68 67 f3 00 00       	push   $0xf367
    8f94:	68 69 f3 00 00       	push   $0xf369
    8f99:	e8 10 d5 ff ff       	call   0x64ae
    8f9e:	e8 8e 28 00 00       	call   0xb831
    8fa3:	83 c4 10             	add    $0x10,%esp
    8fa6:	b8 00 00 00 00       	mov    $0x0,%eax
    8fab:	5b                   	pop    %ebx
    8fac:	5e                   	pop    %esi
    8fad:	5f                   	pop    %edi
    8fae:	c3                   	ret    
    8faf:	b8 ff ff ff ff       	mov    $0xffffffff,%eax
    8fb4:	c3                   	ret    
    8fb5:	83 ec 18             	sub    $0x18,%esp
    8fb8:	68 81 f3 00 00       	push   $0xf381
    8fbd:	e8 c1 d4 ff ff       	call   0x6483
    8fc2:	83 c4 1c             	add    $0x1c,%esp
    8fc5:	c3                   	ret    
    8fc6:	b8 e0 6d 01 00       	mov    $0x16de0,%eax
    8fcb:	ba 60 72 01 00       	mov    $0x17260,%edx
    8fd0:	c7 00 ff ff ff ff    	movl   $0xffffffff,(%eax)
    8fd6:	c7 40 20 00 00 00 00 	movl   $0x0,0x20(%eax)
    8fdd:	83 c0 24             	add    $0x24,%eax
    8fe0:	39 d0                	cmp    %edx,%eax
    8fe2:	75 ec                	jne    0x8fd0
    8fe4:	c7 05 60 72 01 00 00 	movl   $0x0,0x17260
    8feb:	00 00 00 
    8fee:	c7 05 64 72 01 00 64 	movl   $0x14564,0x17264
    8ff5:	45 01 00 
    8ff8:	c7 05 88 72 01 00 00 	movl   $0x0,0x17288
    8fff:	00 00 00 
    9002:	c7 05 8c 72 01 00 64 	movl   $0x14564,0x1728c
    9009:	45 01 00 
    900c:	ba 0c 5a 00 00       	mov    $0x5a0c,%edx
    9011:	b8 00 00 08 00       	mov    $0x80000,%eax
    9016:	66 89 d0             	mov    %dx,%ax
    9019:	66 ba 00 8f          	mov    $0x8f00,%dx
    901d:	a3 e8 41 00 00       	mov    %eax,0x41e8
    9022:	89 15 ec 41 00 00    	mov    %edx,0x41ec
    9028:	ba 21 00 00 00       	mov    $0x21,%edx
    902d:	ec                   	in     (%dx),%al
    902e:	eb 00                	jmp    0x9030
    9030:	eb 00                	jmp    0x9032
    9032:	25 fb 00 00 00       	and    $0xfb,%eax
    9037:	ee                   	out    %al,(%dx)
    9038:	eb 00                	jmp    0x903a
    903a:	eb 00                	jmp    0x903c
    903c:	ba a1 00 00 00       	mov    $0xa1,%edx
    9041:	ec                   	in     (%dx),%al
    9042:	eb 00                	jmp    0x9044
    9044:	eb 00                	jmp    0x9046
    9046:	25 bf 00 00 00       	and    $0xbf,%eax
    904b:	ee                   	out    %al,(%dx)
    904c:	c3                   	ret    
    904d:	b8 da ff ff ff       	mov    $0xffffffda,%eax
    9052:	c3                   	ret    
    9053:	b8 da ff ff ff       	mov    $0xffffffda,%eax
    9058:	c3                   	ret    
    9059:	b8 da ff ff ff       	mov    $0xffffffda,%eax
    905e:	c3                   	ret    
    905f:	b8 da ff ff ff       	mov    $0xffffffda,%eax
    9064:	c3                   	ret    
    9065:	b8 da ff ff ff       	mov    $0xffffffda,%eax
    906a:	c3                   	ret    
    906b:	b8 ff ff ff ff       	mov    $0xffffffff,%eax
    9070:	c3                   	ret    
    9071:	b8 da ff ff ff       	mov    $0xffffffda,%eax
    9076:	c3                   	ret    
    9077:	b8 da ff ff ff       	mov    $0xffffffda,%eax
    907c:	c3                   	ret    
    907d:	b8 da ff ff ff       	mov    $0xffffffda,%eax
    9082:	c3                   	ret    
    9083:	b8 da ff ff ff       	mov    $0xffffffda,%eax
    9088:	c3                   	ret    
    9089:	b8 da ff ff ff       	mov    $0xffffffda,%eax
    908e:	c3                   	ret    
    908f:	8b 54 24 04          	mov    0x4(%esp),%edx
    9093:	a1 00 2d 01 00       	mov    0x12d00,%eax
    9098:	66 83 b8 be 00 00 00 	cmpw   $0x0,0xbe(%eax)
    909f:	00 
    90a0:	74 2d                	je     0x90cf
    90a2:	66 83 b8 bc 00 00 00 	cmpw   $0x0,0xbc(%eax)
    90a9:	00 
    90aa:	74 23                	je     0x90cf
    90ac:	0f b7 88 c2 00 00 00 	movzwl 0xc2(%eax),%ecx
    90b3:	39 d1                	cmp    %edx,%ecx
    90b5:	74 0b                	je     0x90c2
    90b7:	0f b7 88 c6 00 00 00 	movzwl 0xc6(%eax),%ecx
    90be:	39 d1                	cmp    %edx,%ecx
    90c0:	75 21                	jne    0x90e3
    90c2:	66 89 90 c4 00 00 00 	mov    %dx,0xc4(%eax)
    90c9:	b8 00 00 00 00       	mov    $0x0,%eax
    90ce:	c3                   	ret    
    90cf:	66 89 90 c4 00 00 00 	mov    %dx,0xc4(%eax)
    90d6:	66 89 90 c2 00 00 00 	mov    %dx,0xc2(%eax)
    90dd:	b8 00 00 00 00       	mov    $0x0,%eax
    90e2:	c3                   	ret    
    90e3:	b8 ff ff ff ff       	mov    $0xffffffff,%eax
    90e8:	c3                   	ret    
    90e9:	b8 da ff ff ff       	mov    $0xffffffda,%eax
    90ee:	c3                   	ret    
    90ef:	b8 da ff ff ff       	mov    $0xffffffda,%eax
    90f4:	c3                   	ret    
    90f5:	b8 da ff ff ff       	mov    $0xffffffda,%eax
    90fa:	c3                   	ret    
    90fb:	b8 da ff ff ff       	mov    $0xffffffda,%eax
    9100:	c3                   	ret    
    9101:	b8 da ff ff ff       	mov    $0xffffffda,%eax
    9106:	c3                   	ret    
    9107:	56                   	push   %esi
    9108:	53                   	push   %ebx
    9109:	83 ec 04             	sub    $0x4,%esp
    910c:	8b 74 24 10          	mov    0x10(%esp),%esi
    9110:	8b 0d 08 69 01 00    	mov    0x16908,%ecx
    9116:	b8 1f 85 eb 51       	mov    $0x51eb851f,%eax
    911b:	f7 e9                	imul   %ecx
    911d:	89 d3                	mov    %edx,%ebx
    911f:	c1 fb 05             	sar    $0x5,%ebx
    9122:	c1 f9 1f             	sar    $0x1f,%ecx
    9125:	29 cb                	sub    %ecx,%ebx
    9127:	03 1d 04 69 01 00    	add    0x16904,%ebx
    912d:	85 f6                	test   %esi,%esi
    912f:	74 11                	je     0x9142
    9131:	83 ec 08             	sub    $0x8,%esp
    9134:	6a 04                	push   $0x4
    9136:	56                   	push   %esi
    9137:	e8 0d cf ff ff       	call   0x6049
    913c:	64 89 1e             	mov    %ebx,%fs:(%esi)
    913f:	83 c4 10             	add    $0x10,%esp
    9142:	89 d8                	mov    %ebx,%eax
    9144:	83 c4 04             	add    $0x4,%esp
    9147:	5b                   	pop    %ebx
    9148:	5e                   	pop    %esi
    9149:	c3                   	ret    
    914a:	53                   	push   %ebx
    914b:	8b 54 24 08          	mov    0x8(%esp),%edx
    914f:	a1 00 2d 01 00       	mov    0x12d00,%eax
    9154:	66 83 b8 be 00 00 00 	cmpw   $0x0,0xbe(%eax)
    915b:	00 
    915c:	74 29                	je     0x9187
    915e:	8b 88 bc 00 00 00    	mov    0xbc(%eax),%ecx
    9164:	66 85 c9             	test   %cx,%cx
    9167:	74 1e                	je     0x9187
    9169:	0f b7 d9             	movzwl %cx,%ebx
    916c:	39 d3                	cmp    %edx,%ebx
    916e:	74 09                	je     0x9179
    9170:	66 3b 88 c0 00 00 00 	cmp    0xc0(%eax),%cx
    9177:	75 23                	jne    0x919c
    9179:	66 89 90 be 00 00 00 	mov    %dx,0xbe(%eax)
    9180:	b8 00 00 00 00       	mov    $0x0,%eax
    9185:	eb 13                	jmp    0x919a
    9187:	66 89 90 bc 00 00 00 	mov    %dx,0xbc(%eax)
    918e:	66 89 90 be 00 00 00 	mov    %dx,0xbe(%eax)
    9195:	b8 00 00 00 00       	mov    $0x0,%eax
    919a:	5b                   	pop    %ebx
    919b:	c3                   	ret    
    919c:	b8 ff ff ff ff       	mov    $0xffffffff,%eax
    91a1:	eb f7                	jmp    0x919a
    91a3:	a1 00 2d 01 00       	mov    0x12d00,%eax
    91a8:	66 83 b8 be 00 00 00 	cmpw   $0x0,0xbe(%eax)
    91af:	00 
    91b0:	74 0a                	je     0x91bc
    91b2:	66 83 b8 bc 00 00 00 	cmpw   $0x0,0xbc(%eax)
    91b9:	00 
    91ba:	75 2e                	jne    0x91ea
    91bc:	53                   	push   %ebx
    91bd:	8b 44 24 08          	mov    0x8(%esp),%eax
    91c1:	64 8b 18             	mov    %fs:(%eax),%ebx
    91c4:	8b 0d 08 69 01 00    	mov    0x16908,%ecx
    91ca:	b8 1f 85 eb 51       	mov    $0x51eb851f,%eax
    91cf:	f7 e9                	imul   %ecx
    91d1:	89 d0                	mov    %edx,%eax
    91d3:	c1 f8 05             	sar    $0x5,%eax
    91d6:	c1 f9 1f             	sar    $0x1f,%ecx
    91d9:	29 c8                	sub    %ecx,%eax
    91db:	29 c3                	sub    %eax,%ebx
    91dd:	89 1d 04 69 01 00    	mov    %ebx,0x16904
    91e3:	b8 00 00 00 00       	mov    $0x0,%eax
    91e8:	5b                   	pop    %ebx
    91e9:	c3                   	ret    
    91ea:	b8 ff ff ff ff       	mov    $0xffffffff,%eax
    91ef:	c3                   	ret    
    91f0:	53                   	push   %ebx
    91f1:	83 ec 08             	sub    $0x8,%esp
    91f4:	8b 5c 24 10          	mov    0x10(%esp),%ebx
    91f8:	85 db                	test   %ebx,%ebx
    91fa:	74 44                	je     0x9240
    91fc:	83 ec 08             	sub    $0x8,%esp
    91ff:	6a 10                	push   $0x10
    9201:	53                   	push   %ebx
    9202:	e8 42 ce ff ff       	call   0x6049
    9207:	a1 00 2d 01 00       	mov    0x12d00,%eax
    920c:	8b 90 cc 00 00 00    	mov    0xcc(%eax),%edx
    9212:	64 89 13             	mov    %edx,%fs:(%ebx)
    9215:	8b 90 d0 00 00 00    	mov    0xd0(%eax),%edx
    921b:	64 89 53 04          	mov    %edx,%fs:0x4(%ebx)
    921f:	8b 90 d4 00 00 00    	mov    0xd4(%eax),%edx
    9225:	64 89 53 08          	mov    %edx,%fs:0x8(%ebx)
    9229:	8b 80 d8 00 00 00    	mov    0xd8(%eax),%eax
    922f:	64 89 43 0c          	mov    %eax,%fs:0xc(%ebx)
    9233:	a1 08 69 01 00       	mov    0x16908,%eax
    9238:	83 c4 10             	add    $0x10,%esp
    923b:	83 c4 08             	add    $0x8,%esp
    923e:	5b                   	pop    %ebx
    923f:	c3                   	ret    
    9240:	a1 08 69 01 00       	mov    0x16908,%eax
    9245:	eb f4                	jmp    0x923b
    9247:	8b 54 24 04          	mov    0x4(%esp),%edx
    924b:	a1 00 2d 01 00       	mov    0x12d00,%eax
    9250:	39 90 98 00 00 00    	cmp    %edx,0x98(%eax)
    9256:	77 16                	ja     0x926e
    9258:	8b 88 a4 00 00 00    	mov    0xa4(%eax),%ecx
    925e:	81 e9 00 40 00 00    	sub    $0x4000,%ecx
    9264:	39 d1                	cmp    %edx,%ecx
    9266:	76 06                	jbe    0x926e
    9268:	89 90 a0 00 00 00    	mov    %edx,0xa0(%eax)
    926e:	8b 80 a0 00 00 00    	mov    0xa0(%eax),%eax
    9274:	c3                   	ret    
    9275:	56                   	push   %esi
    9276:	53                   	push   %ebx
    9277:	8b 5c 24 0c          	mov    0xc(%esp),%ebx
    927b:	8b 74 24 10          	mov    0x10(%esp),%esi
    927f:	85 db                	test   %ebx,%ebx
    9281:	75 0b                	jne    0x928e
    9283:	a1 00 2d 01 00       	mov    0x12d00,%eax
    9288:	8b 98 a8 00 00 00    	mov    0xa8(%eax),%ebx
    928e:	85 f6                	test   %esi,%esi
    9290:	75 02                	jne    0x9294
    9292:	89 de                	mov    %ebx,%esi
    9294:	b8 00 2c 01 00       	mov    $0x12c00,%eax
    9299:	b9 00 2d 01 00       	mov    $0x12d00,%ecx
    929e:	eb 07                	jmp    0x92a7
    92a0:	83 c0 04             	add    $0x4,%eax
    92a3:	39 c8                	cmp    %ecx,%eax
    92a5:	74 38                	je     0x92df
    92a7:	8b 10                	mov    (%eax),%edx
    92a9:	85 d2                	test   %edx,%edx
    92ab:	74 f3                	je     0x92a0
    92ad:	39 9a a8 00 00 00    	cmp    %ebx,0xa8(%edx)
    92b3:	75 eb                	jne    0x92a0
    92b5:	83 ba b8 00 00 00 00 	cmpl   $0x0,0xb8(%edx)
    92bc:	75 28                	jne    0x92e6
    92be:	a1 00 2d 01 00       	mov    0x12d00,%eax
    92c3:	8b 80 b4 00 00 00    	mov    0xb4(%eax),%eax
    92c9:	39 82 b4 00 00 00    	cmp    %eax,0xb4(%edx)
    92cf:	75 1c                	jne    0x92ed
    92d1:	89 b2 b0 00 00 00    	mov    %esi,0xb0(%edx)
    92d7:	b8 00 00 00 00       	mov    $0x0,%eax
    92dc:	5b                   	pop    %ebx
    92dd:	5e                   	pop    %esi
    92de:	c3                   	ret    
    92df:	b8 fd ff ff ff       	mov    $0xfffffffd,%eax
    92e4:	eb f6                	jmp    0x92dc
    92e6:	b8 ff ff ff ff       	mov    $0xffffffff,%eax
    92eb:	eb ef                	jmp    0x92dc
    92ed:	b8 ff ff ff ff       	mov    $0xffffffff,%eax
    92f2:	eb e8                	jmp    0x92dc
    92f4:	a1 00 2d 01 00       	mov    0x12d00,%eax
    92f9:	8b 80 b0 00 00 00    	mov    0xb0(%eax),%eax
    92ff:	c3                   	ret    
    9300:	8b 15 00 2d 01 00    	mov    0x12d00,%edx
    9306:	66 83 ba bc 00 00 00 	cmpw   $0x0,0xbc(%edx)
    930d:	00 
    930e:	74 0a                	je     0x931a
    9310:	66 83 ba be 00 00 00 	cmpw   $0x0,0xbe(%edx)
    9317:	00 
    9318:	75 30                	jne    0x934a
    931a:	83 ba b8 00 00 00 00 	cmpl   $0x0,0xb8(%edx)
    9321:	75 2d                	jne    0x9350
    9323:	c7 82 b8 00 00 00 01 	movl   $0x1,0xb8(%edx)
    932a:	00 00 00 
    932d:	8b 82 a8 00 00 00    	mov    0xa8(%edx),%eax
    9333:	89 82 b0 00 00 00    	mov    %eax,0xb0(%edx)
    9339:	89 82 b4 00 00 00    	mov    %eax,0xb4(%edx)
    933f:	c7 82 e4 00 00 00 ff 	movl   $0xffffffff,0xe4(%edx)
    9346:	ff ff ff 
    9349:	c3                   	ret    
    934a:	b8 ff ff ff ff       	mov    $0xffffffff,%eax
    934f:	c3                   	ret    
    9350:	b8 ff ff ff ff       	mov    $0xffffffff,%eax
    9355:	c3                   	ret    
    9356:	53                   	push   %ebx
    9357:	83 ec 08             	sub    $0x8,%esp
    935a:	8b 5c 24 10          	mov    0x10(%esp),%ebx
    935e:	85 db                	test   %ebx,%ebx
    9360:	74 2d                	je     0x938f
    9362:	83 ec 08             	sub    $0x8,%esp
    9365:	6a 2d                	push   $0x2d
    9367:	53                   	push   %ebx
    9368:	e8 dc cc ff ff       	call   0x6049
    936d:	83 c4 10             	add    $0x10,%esp
    9370:	b8 00 00 00 00       	mov    $0x0,%eax
    9375:	8a 90 a0 63 01 00    	mov    0x163a0(%eax),%dl
    937b:	64 88 14 03          	mov    %dl,%fs:(%ebx,%eax,1)
    937f:	40                   	inc    %eax
    9380:	83 f8 2d             	cmp    $0x2d,%eax
    9383:	75 f0                	jne    0x9375
    9385:	b8 00 00 00 00       	mov    $0x0,%eax
    938a:	83 c4 08             	add    $0x8,%esp
    938d:	5b                   	pop    %ebx
    938e:	c3                   	ret    
    938f:	b8 ff ff ff ff       	mov    $0xffffffff,%eax
    9394:	eb f4                	jmp    0x938a
    9396:	8b 0d 00 2d 01 00    	mov    0x12d00,%ecx
    939c:	0f b7 81 e8 00 00 00 	movzwl 0xe8(%ecx),%eax
    93a3:	8b 54 24 04          	mov    0x4(%esp),%edx
    93a7:	81 e2 ff 01 00 00    	and    $0x1ff,%edx
    93ad:	66 89 91 e8 00 00 00 	mov    %dx,0xe8(%ecx)
    93b4:	c3                   	ret    
    93b5:	83 ec 0c             	sub    $0xc,%esp
    93b8:	8b 54 24 10          	mov    0x10(%esp),%edx
    93bc:	85 d2                	test   %edx,%edx
    93be:	74 4f                	je     0x940f
    93c0:	3b 15 04 2c 01 00    	cmp    0x12c04,%edx
    93c6:	74 26                	je     0x93ee
    93c8:	b8 02 00 00 00       	mov    $0x2,%eax
    93cd:	39 14 85 00 2c 01 00 	cmp    %edx,0x12c00(,%eax,4)
    93d4:	74 1d                	je     0x93f3
    93d6:	40                   	inc    %eax
    93d7:	83 f8 40             	cmp    $0x40,%eax
    93da:	75 f1                	jne    0x93cd
    93dc:	83 ec 0c             	sub    $0xc,%esp
    93df:	68 f4 f8 00 00       	push   $0xf8f4
    93e4:	e8 9a d0 ff ff       	call   0x6483
    93e9:	83 c4 10             	add    $0x10,%esp
    93ec:	eb 21                	jmp    0x940f
    93ee:	b8 01 00 00 00       	mov    $0x1,%eax
    93f3:	c7 04 85 00 2c 01 00 	movl   $0x0,0x12c00(,%eax,4)
    93fa:	00 00 00 00 
    93fe:	83 ec 0c             	sub    $0xc,%esp
    9401:	52                   	push   %edx
    9402:	e8 fc 06 00 00       	call   0x9b03
    9407:	e8 2a c1 ff ff       	call   0x5536
    940c:	83 c4 10             	add    $0x10,%esp
    940f:	83 c4 0c             	add    $0xc,%esp
    9412:	c3                   	ret    
    9413:	55                   	push   %ebp
    9414:	57                   	push   %edi
    9415:	56                   	push   %esi
    9416:	53                   	push   %ebx
    9417:	83 ec 08             	sub    $0x8,%esp
    941a:	8b 5c 24 1c          	mov    0x1c(%esp),%ebx
    941e:	8b 54 24 20          	mov    0x20(%esp),%edx
    9422:	85 db                	test   %ebx,%ebx
    9424:	75 7f                	jne    0x94a5
    9426:	8b 1d 00 2d 01 00    	mov    0x12d00,%ebx
    942c:	8d 4a ff             	lea    -0x1(%edx),%ecx
    942f:	b8 01 00 00 00       	mov    $0x1,%eax
    9434:	d3 e0                	shl    %cl,%eax
    9436:	89 c5                	mov    %eax,%ebp
    9438:	b8 fc 2c 01 00       	mov    $0x12cfc,%eax
    943d:	eb 11                	jmp    0x9450
    943f:	09 6a 0c             	or     %ebp,0xc(%edx)
    9442:	83 e8 04             	sub    $0x4,%eax
    9445:	3d 00 2c 01 00       	cmp    $0x12c00,%eax
    944a:	0f 86 f3 01 00 00    	jbe    0x9643
    9450:	8b 10                	mov    (%eax),%edx
    9452:	85 d2                	test   %edx,%edx
    9454:	74 ec                	je     0x9442
    9456:	8b bb a8 00 00 00    	mov    0xa8(%ebx),%edi
    945c:	39 ba b0 00 00 00    	cmp    %edi,0xb0(%edx)
    9462:	75 de                	jne    0x9442
    9464:	83 f9 1f             	cmp    $0x1f,%ecx
    9467:	77 d9                	ja     0x9442
    9469:	83 7c 24 24 00       	cmpl   $0x0,0x24(%esp)
    946e:	75 cf                	jne    0x943f
    9470:	8b bb bc 00 00 00    	mov    0xbc(%ebx),%edi
    9476:	8b b2 bc 00 00 00    	mov    0xbc(%edx),%esi
    947c:	66 89 3c 24          	mov    %di,(%esp)
    9480:	66 39 f7             	cmp    %si,%di
    9483:	74 ba                	je     0x943f
    9485:	66 8b bb be 00 00 00 	mov    0xbe(%ebx),%di
    948c:	66 39 fe             	cmp    %di,%si
    948f:	74 ae                	je     0x943f
    9491:	66 8b b2 be 00 00 00 	mov    0xbe(%edx),%si
    9498:	66 39 34 24          	cmp    %si,(%esp)
    949c:	74 a1                	je     0x943f
    949e:	66 39 f7             	cmp    %si,%di
    94a1:	75 9f                	jne    0x9442
    94a3:	eb 9a                	jmp    0x943f
    94a5:	85 db                	test   %ebx,%ebx
    94a7:	0f 8e 91 00 00 00    	jle    0x953e
    94ad:	8b 35 00 2d 01 00    	mov    0x12d00,%esi
    94b3:	8d 4a ff             	lea    -0x1(%edx),%ecx
    94b6:	b8 01 00 00 00       	mov    $0x1,%eax
    94bb:	d3 e0                	shl    %cl,%eax
    94bd:	89 c7                	mov    %eax,%edi
    94bf:	b8 fc 2c 01 00       	mov    $0x12cfc,%eax
    94c4:	89 cd                	mov    %ecx,%ebp
    94c6:	89 34 24             	mov    %esi,(%esp)
    94c9:	eb 11                	jmp    0x94dc
    94cb:	09 7a 0c             	or     %edi,0xc(%edx)
    94ce:	83 e8 04             	sub    $0x4,%eax
    94d1:	3d 00 2c 01 00       	cmp    $0x12c00,%eax
    94d6:	0f 86 67 01 00 00    	jbe    0x9643
    94dc:	8b 10                	mov    (%eax),%edx
    94de:	85 d2                	test   %edx,%edx
    94e0:	74 ec                	je     0x94ce
    94e2:	39 9a a8 00 00 00    	cmp    %ebx,0xa8(%edx)
    94e8:	75 e4                	jne    0x94ce
    94ea:	83 fd 1f             	cmp    $0x1f,%ebp
    94ed:	77 df                	ja     0x94ce
    94ef:	83 7c 24 24 00       	cmpl   $0x0,0x24(%esp)
    94f4:	75 d5                	jne    0x94cb
    94f6:	8b 34 24             	mov    (%esp),%esi
    94f9:	8b 8e bc 00 00 00    	mov    0xbc(%esi),%ecx
    94ff:	8b b2 bc 00 00 00    	mov    0xbc(%edx),%esi
    9505:	66 89 74 24 04       	mov    %si,0x4(%esp)
    950a:	89 ce                	mov    %ecx,%esi
    950c:	66 3b 4c 24 04       	cmp    0x4(%esp),%cx
    9511:	74 b8                	je     0x94cb
    9513:	8b 0c 24             	mov    (%esp),%ecx
    9516:	66 8b 89 be 00 00 00 	mov    0xbe(%ecx),%cx
    951d:	66 89 4c 24 06       	mov    %cx,0x6(%esp)
    9522:	66 39 4c 24 04       	cmp    %cx,0x4(%esp)
    9527:	74 a2                	je     0x94cb
    9529:	66 8b 8a be 00 00 00 	mov    0xbe(%edx),%cx
    9530:	66 39 ce             	cmp    %cx,%si
    9533:	74 96                	je     0x94cb
    9535:	66 39 4c 24 06       	cmp    %cx,0x6(%esp)
    953a:	75 92                	jne    0x94ce
    953c:	eb 8d                	jmp    0x94cb
    953e:	83 fb ff             	cmp    $0xffffffff,%ebx
    9541:	74 1d                	je     0x9560
    9543:	8b 35 00 2d 01 00    	mov    0x12d00,%esi
    9549:	8d 4a ff             	lea    -0x1(%edx),%ecx
    954c:	b8 01 00 00 00       	mov    $0x1,%eax
    9551:	d3 e0                	shl    %cl,%eax
    9553:	89 c7                	mov    %eax,%edi
    9555:	b8 fc 2c 01 00       	mov    $0x12cfc,%eax
    955a:	f7 db                	neg    %ebx
    955c:	89 cd                	mov    %ecx,%ebp
    955e:	eb 7d                	jmp    0x95dd
    9560:	8b 1d 00 2d 01 00    	mov    0x12d00,%ebx
    9566:	8d 4a ff             	lea    -0x1(%edx),%ecx
    9569:	b8 01 00 00 00       	mov    $0x1,%eax
    956e:	d3 e0                	shl    %cl,%eax
    9570:	89 04 24             	mov    %eax,(%esp)
    9573:	b8 fc 2c 01 00       	mov    $0x12cfc,%eax
    9578:	eb 14                	jmp    0x958e
    957a:	8b 34 24             	mov    (%esp),%esi
    957d:	09 72 0c             	or     %esi,0xc(%edx)
    9580:	83 e8 04             	sub    $0x4,%eax
    9583:	3d 00 2c 01 00       	cmp    $0x12c00,%eax
    9588:	0f 86 b5 00 00 00    	jbe    0x9643
    958e:	8b 10                	mov    (%eax),%edx
    9590:	85 d2                	test   %edx,%edx
    9592:	74 ec                	je     0x9580
    9594:	83 f9 1f             	cmp    $0x1f,%ecx
    9597:	77 e7                	ja     0x9580
    9599:	83 7c 24 24 00       	cmpl   $0x0,0x24(%esp)
    959e:	75 da                	jne    0x957a
    95a0:	8b bb bc 00 00 00    	mov    0xbc(%ebx),%edi
    95a6:	8b b2 bc 00 00 00    	mov    0xbc(%edx),%esi
    95ac:	66 39 f7             	cmp    %si,%di
    95af:	74 c9                	je     0x957a
    95b1:	66 8b ab be 00 00 00 	mov    0xbe(%ebx),%bp
    95b8:	66 39 ee             	cmp    %bp,%si
    95bb:	74 bd                	je     0x957a
    95bd:	66 8b b2 be 00 00 00 	mov    0xbe(%edx),%si
    95c4:	66 39 f7             	cmp    %si,%di
    95c7:	74 b1                	je     0x957a
    95c9:	66 39 f5             	cmp    %si,%bp
    95cc:	75 b2                	jne    0x9580
    95ce:	eb aa                	jmp    0x957a
    95d0:	09 7a 0c             	or     %edi,0xc(%edx)
    95d3:	83 e8 04             	sub    $0x4,%eax
    95d6:	3d 00 2c 01 00       	cmp    $0x12c00,%eax
    95db:	76 66                	jbe    0x9643
    95dd:	8b 10                	mov    (%eax),%edx
    95df:	85 d2                	test   %edx,%edx
    95e1:	74 f0                	je     0x95d3
    95e3:	39 9a b0 00 00 00    	cmp    %ebx,0xb0(%edx)
    95e9:	75 e8                	jne    0x95d3
    95eb:	83 fd 1f             	cmp    $0x1f,%ebp
    95ee:	77 e3                	ja     0x95d3
    95f0:	83 7c 24 24 00       	cmpl   $0x0,0x24(%esp)
    95f5:	75 d9                	jne    0x95d0
    95f7:	8b 8e bc 00 00 00    	mov    0xbc(%esi),%ecx
    95fd:	66 89 0c 24          	mov    %cx,(%esp)
    9601:	8b 8a bc 00 00 00    	mov    0xbc(%edx),%ecx
    9607:	66 89 4c 24 04       	mov    %cx,0x4(%esp)
    960c:	8b 0c 24             	mov    (%esp),%ecx
    960f:	66 89 4c 24 06       	mov    %cx,0x6(%esp)
    9614:	66 3b 4c 24 04       	cmp    0x4(%esp),%cx
    9619:	74 b5                	je     0x95d0
    961b:	66 8b 8e be 00 00 00 	mov    0xbe(%esi),%cx
    9622:	66 89 0c 24          	mov    %cx,(%esp)
    9626:	66 39 4c 24 04       	cmp    %cx,0x4(%esp)
    962b:	74 a3                	je     0x95d0
    962d:	66 8b 8a be 00 00 00 	mov    0xbe(%edx),%cx
    9634:	66 39 4c 24 06       	cmp    %cx,0x6(%esp)
    9639:	74 95                	je     0x95d0
    963b:	66 39 0c 24          	cmp    %cx,(%esp)
    963f:	75 92                	jne    0x95d3
    9641:	eb 8d                	jmp    0x95d0
    9643:	83 c4 08             	add    $0x8,%esp
    9646:	5b                   	pop    %ebx
    9647:	5e                   	pop    %esi
    9648:	5f                   	pop    %edi
    9649:	5d                   	pop    %ebp
    964a:	c3                   	ret    
    964b:	a1 00 2d 01 00       	mov    0x12d00,%eax
    9650:	83 b8 bc 00 00 00 00 	cmpl   $0x0,0xbc(%eax)
    9657:	0f 94 c0             	sete   %al
    965a:	0f b6 c0             	movzbl %al,%eax
    965d:	50                   	push   %eax
    965e:	ff 74 24 0c          	pushl  0xc(%esp)
    9662:	ff 74 24 0c          	pushl  0xc(%esp)
    9666:	e8 a8 fd ff ff       	call   0x9413
    966b:	83 c4 0c             	add    $0xc,%esp
    966e:	b8 00 00 00 00       	mov    $0x0,%eax
    9673:	c3                   	ret    
    9674:	56                   	push   %esi
    9675:	53                   	push   %ebx
    9676:	83 ec 0c             	sub    $0xc,%esp
    9679:	b8 0f 00 00 00       	mov    $0xf,%eax
    967e:	0f 03 c0             	lsl    %ax,%eax
    9681:	40                   	inc    %eax
    9682:	8b 15 00 2d 01 00    	mov    0x12d00,%edx
    9688:	8a b2 57 01 00 00    	mov    0x157(%edx),%dh
    968e:	8a 92 54 01 00 00    	mov    0x154(%edx),%dl
    9694:	c1 e2 10             	shl    $0x10,%edx
    9697:	66 8b 92 52 01 00 00 	mov    0x152(%edx),%dx
    969e:	50                   	push   %eax
    969f:	52                   	push   %edx
    96a0:	e8 be 04 00 00       	call   0x9b63
    96a5:	b8 17 00 00 00       	mov    $0x17,%eax
    96aa:	0f 03 c0             	lsl    %ax,%eax
    96ad:	40                   	inc    %eax
    96ae:	8b 15 00 2d 01 00    	mov    0x12d00,%edx
    96b4:	8a b2 5f 01 00 00    	mov    0x15f(%edx),%dh
    96ba:	8a 92 5c 01 00 00    	mov    0x15c(%edx),%dl
    96c0:	c1 e2 10             	shl    $0x10,%edx
    96c3:	66 8b 92 5a 01 00 00 	mov    0x15a(%edx),%dx
    96ca:	83 c4 08             	add    $0x8,%esp
    96cd:	50                   	push   %eax
    96ce:	52                   	push   %edx
    96cf:	e8 8f 04 00 00       	call   0x9b63
    96d4:	8b 1d 00 2d 01 00    	mov    0x12d00,%ebx
    96da:	b8 00 2c 01 00       	mov    $0x12c00,%eax
    96df:	b9 00 2d 01 00       	mov    $0x12d00,%ecx
    96e4:	83 c4 10             	add    $0x10,%esp
    96e7:	eb 07                	jmp    0x96f0
    96e9:	83 c0 04             	add    $0x4,%eax
    96ec:	39 c8                	cmp    %ecx,%eax
    96ee:	74 20                	je     0x9710
    96f0:	8b 10                	mov    (%eax),%edx
    96f2:	85 d2                	test   %edx,%edx
    96f4:	74 f3                	je     0x96e9
    96f6:	8b b3 a8 00 00 00    	mov    0xa8(%ebx),%esi
    96fc:	39 b2 ac 00 00 00    	cmp    %esi,0xac(%edx)
    9702:	75 e5                	jne    0x96e9
    9704:	c7 82 ac 00 00 00 00 	movl   $0x0,0xac(%edx)
    970b:	00 00 00 
    970e:	eb d9                	jmp    0x96e9
    9710:	bb 00 00 00 00       	mov    $0x0,%ebx
    9715:	eb 12                	jmp    0x9729
    9717:	83 ec 0c             	sub    $0xc,%esp
    971a:	53                   	push   %ebx
    971b:	e8 79 0d 00 00       	call   0xa499
    9720:	83 c4 10             	add    $0x10,%esp
    9723:	43                   	inc    %ebx
    9724:	83 fb 14             	cmp    $0x14,%ebx
    9727:	74 11                	je     0x973a
    9729:	a1 00 2d 01 00       	mov    0x12d00,%eax
    972e:	83 bc 98 f8 00 00 00 	cmpl   $0x0,0xf8(%eax,%ebx,4)
    9735:	00 
    9736:	75 df                	jne    0x9717
    9738:	eb e9                	jmp    0x9723
    973a:	83 ec 0c             	sub    $0xc,%esp
    973d:	a1 00 2d 01 00       	mov    0x12d00,%eax
    9742:	ff b0 ec 00 00 00    	pushl  0xec(%eax)
    9748:	e8 d9 15 00 00       	call   0xad26
    974d:	a1 00 2d 01 00       	mov    0x12d00,%eax
    9752:	c7 80 ec 00 00 00 00 	movl   $0x0,0xec(%eax)
    9759:	00 00 00 
    975c:	83 c4 04             	add    $0x4,%esp
    975f:	ff b0 f0 00 00 00    	pushl  0xf0(%eax)
    9765:	e8 bc 15 00 00       	call   0xad26
    976a:	a1 00 2d 01 00       	mov    0x12d00,%eax
    976f:	c7 80 f0 00 00 00 00 	movl   $0x0,0xf0(%eax)
    9776:	00 00 00 
    9779:	83 c4 10             	add    $0x10,%esp
    977c:	83 b8 b8 00 00 00 00 	cmpl   $0x0,0xb8(%eax)
    9783:	74 23                	je     0x97a8
    9785:	8b 88 e4 00 00 00    	mov    0xe4(%eax),%ecx
    978b:	85 c9                	test   %ecx,%ecx
    978d:	78 19                	js     0x97a8
    978f:	8d 14 09             	lea    (%ecx,%ecx,1),%edx
    9792:	01 ca                	add    %ecx,%edx
    9794:	89 d1                	mov    %edx,%ecx
    9796:	c1 e1 05             	shl    $0x5,%ecx
    9799:	01 ca                	add    %ecx,%edx
    979b:	c1 e2 05             	shl    $0x5,%edx
    979e:	c7 82 84 3e 01 00 00 	movl   $0x0,0x13e84(%edx)
    97a5:	00 00 00 
    97a8:	3b 05 00 69 01 00    	cmp    0x16900,%eax
    97ae:	74 25                	je     0x97d5
    97b0:	83 b8 ac 00 00 00 00 	cmpl   $0x0,0xac(%eax)
    97b7:	75 28                	jne    0x97e1
    97b9:	83 ec 0c             	sub    $0xc,%esp
    97bc:	50                   	push   %eax
    97bd:	e8 f3 fb ff ff       	call   0x93b5
    97c2:	83 c4 10             	add    $0x10,%esp
    97c5:	e8 6c bd ff ff       	call   0x5536
    97ca:	b8 ff ff ff ff       	mov    $0xffffffff,%eax
    97cf:	83 c4 04             	add    $0x4,%esp
    97d2:	5b                   	pop    %ebx
    97d3:	5e                   	pop    %esi
    97d4:	c3                   	ret    
    97d5:	c7 05 00 69 01 00 00 	movl   $0x0,0x16900
    97dc:	00 00 00 
    97df:	eb cf                	jmp    0x97b0
    97e1:	c7 00 03 00 00 00    	movl   $0x3,(%eax)
    97e7:	83 ec 04             	sub    $0x4,%esp
    97ea:	6a 01                	push   $0x1
    97ec:	6a 11                	push   $0x11
    97ee:	a1 00 2d 01 00       	mov    0x12d00,%eax
    97f3:	ff b0 ac 00 00 00    	pushl  0xac(%eax)
    97f9:	e8 15 fc ff ff       	call   0x9413
    97fe:	8b 54 24 20          	mov    0x20(%esp),%edx
    9802:	a1 00 2d 01 00       	mov    0x12d00,%eax
    9807:	89 90 94 00 00 00    	mov    %edx,0x94(%eax)
    980d:	83 c4 10             	add    $0x10,%esp
    9810:	eb b3                	jmp    0x97c5
    9812:	83 ec 18             	sub    $0x18,%esp
    9815:	8b 44 24 1c          	mov    0x1c(%esp),%eax
    9819:	c1 e0 08             	shl    $0x8,%eax
    981c:	0f b7 c0             	movzwl %ax,%eax
    981f:	50                   	push   %eax
    9820:	e8 4f fe ff ff       	call   0x9674
    9825:	83 c4 1c             	add    $0x1c,%esp
    9828:	c3                   	ret    
    9829:	55                   	push   %ebp
    982a:	57                   	push   %edi
    982b:	56                   	push   %esi
    982c:	53                   	push   %ebx
    982d:	83 ec 24             	sub    $0x24,%esp
    9830:	8b 5c 24 38          	mov    0x38(%esp),%ebx
    9834:	6a 04                	push   $0x4
    9836:	ff 74 24 40          	pushl  0x40(%esp)
    983a:	e8 0a c8 ff ff       	call   0x6049
    983f:	83 c4 10             	add    $0x10,%esp
    9842:	be 00 00 00 00       	mov    $0x0,%esi
    9847:	89 dd                	mov    %ebx,%ebp
    9849:	f7 dd                	neg    %ebp
    984b:	bf 01 00 00 00       	mov    $0x1,%edi
    9850:	e9 ca 00 00 00       	jmp    0x991f
    9855:	85 db                	test   %ebx,%ebx
    9857:	79 1a                	jns    0x9873
    9859:	8b 6c 24 0c          	mov    0xc(%esp),%ebp
    985d:	39 aa b0 00 00 00    	cmp    %ebp,0xb0(%edx)
    9863:	75 0e                	jne    0x9873
    9865:	8b a9 a8 00 00 00    	mov    0xa8(%ecx),%ebp
    986b:	39 aa ac 00 00 00    	cmp    %ebp,0xac(%edx)
    9871:	74 35                	je     0x98a8
    9873:	83 e8 04             	sub    $0x4,%eax
    9876:	3d 00 2c 01 00       	cmp    $0x12c00,%eax
    987b:	76 79                	jbe    0x98f6
    987d:	8b 10                	mov    (%eax),%edx
    987f:	85 d2                	test   %edx,%edx
    9881:	74 f0                	je     0x9873
    9883:	39 ca                	cmp    %ecx,%edx
    9885:	74 ec                	je     0x9873
    9887:	83 fb ff             	cmp    $0xffffffff,%ebx
    988a:	74 d9                	je     0x9865
    988c:	39 9a a8 00 00 00    	cmp    %ebx,0xa8(%edx)
    9892:	74 d1                	je     0x9865
    9894:	85 db                	test   %ebx,%ebx
    9896:	75 bd                	jne    0x9855
    9898:	8b a9 b0 00 00 00    	mov    0xb0(%ecx),%ebp
    989e:	39 aa b0 00 00 00    	cmp    %ebp,0xb0(%edx)
    98a4:	75 cd                	jne    0x9873
    98a6:	eb bd                	jmp    0x9865
    98a8:	83 3a 03             	cmpl   $0x3,(%edx)
    98ab:	74 04                	je     0x98b1
    98ad:	89 fe                	mov    %edi,%esi
    98af:	eb c2                	jmp    0x9873
    98b1:	8b 9a 94 00 00 00    	mov    0x94(%edx),%ebx
    98b7:	8b 7c 24 34          	mov    0x34(%esp),%edi
    98bb:	64 89 1f             	mov    %ebx,%fs:(%edi)
    98be:	8b 92 cc 00 00 00    	mov    0xcc(%edx),%edx
    98c4:	01 91 d4 00 00 00    	add    %edx,0xd4(%ecx)
    98ca:	8b 10                	mov    (%eax),%edx
    98cc:	8b 92 d0 00 00 00    	mov    0xd0(%edx),%edx
    98d2:	01 91 d8 00 00 00    	add    %edx,0xd8(%ecx)
    98d8:	8b 00                	mov    (%eax),%eax
    98da:	8b 98 a8 00 00 00    	mov    0xa8(%eax),%ebx
    98e0:	83 ec 0c             	sub    $0xc,%esp
    98e3:	50                   	push   %eax
    98e4:	e8 cc fa ff ff       	call   0x93b5
    98e9:	83 c4 10             	add    $0x10,%esp
    98ec:	89 d8                	mov    %ebx,%eax
    98ee:	83 c4 1c             	add    $0x1c,%esp
    98f1:	5b                   	pop    %ebx
    98f2:	5e                   	pop    %esi
    98f3:	5f                   	pop    %edi
    98f4:	5d                   	pop    %ebp
    98f5:	c3                   	ret    
    98f6:	8b 6c 24 0c          	mov    0xc(%esp),%ebp
    98fa:	85 f6                	test   %esi,%esi
    98fc:	74 3c                	je     0x993a
    98fe:	f6 44 24 38 01       	testb  $0x1,0x38(%esp)
    9903:	75 3c                	jne    0x9941
    9905:	e8 3a bd ff ff       	call   0x5644
    990a:	8b 15 00 2d 01 00    	mov    0x12d00,%edx
    9910:	8b 42 0c             	mov    0xc(%edx),%eax
    9913:	25 ff ff fe ff       	and    $0xfffeffff,%eax
    9918:	89 42 0c             	mov    %eax,0xc(%edx)
    991b:	85 c0                	test   %eax,%eax
    991d:	75 14                	jne    0x9933
    991f:	8b 0d 00 2d 01 00    	mov    0x12d00,%ecx
    9925:	b8 fc 2c 01 00       	mov    $0x12cfc,%eax
    992a:	89 6c 24 0c          	mov    %ebp,0xc(%esp)
    992e:	e9 4a ff ff ff       	jmp    0x987d
    9933:	bb fc ff ff ff       	mov    $0xfffffffc,%ebx
    9938:	eb b2                	jmp    0x98ec
    993a:	bb f6 ff ff ff       	mov    $0xfffffff6,%ebx
    993f:	eb ab                	jmp    0x98ec
    9941:	bb 00 00 00 00       	mov    $0x0,%ebx
    9946:	eb a4                	jmp    0x98ec
    9948:	56                   	push   %esi
    9949:	53                   	push   %ebx
    994a:	89 c1                	mov    %eax,%ecx
    994c:	8d 70 03             	lea    0x3(%eax),%esi
    994f:	b8 80 00 00 00       	mov    $0x80,%eax
    9954:	89 f2                	mov    %esi,%edx
    9956:	ee                   	out    %al,(%dx)
    9957:	eb 00                	jmp    0x9959
    9959:	eb 00                	jmp    0x995b
    995b:	b8 30 00 00 00       	mov    $0x30,%eax
    9960:	89 ca                	mov    %ecx,%edx
    9962:	ee                   	out    %al,(%dx)
    9963:	eb 00                	jmp    0x9965
    9965:	eb 00                	jmp    0x9967
    9967:	8d 59 01             	lea    0x1(%ecx),%ebx
    996a:	b8 00 00 00 00       	mov    $0x0,%eax
    996f:	89 da                	mov    %ebx,%edx
    9971:	ee                   	out    %al,(%dx)
    9972:	eb 00                	jmp    0x9974
    9974:	eb 00                	jmp    0x9976
    9976:	b8 03 00 00 00       	mov    $0x3,%eax
    997b:	89 f2                	mov    %esi,%edx
    997d:	ee                   	out    %al,(%dx)
    997e:	eb 00                	jmp    0x9980
    9980:	eb 00                	jmp    0x9982
    9982:	8d 51 04             	lea    0x4(%ecx),%edx
    9985:	b8 0b 00 00 00       	mov    $0xb,%eax
    998a:	ee                   	out    %al,(%dx)
    998b:	eb 00                	jmp    0x998d
    998d:	eb 00                	jmp    0x998f
    998f:	b8 0d 00 00 00       	mov    $0xd,%eax
    9994:	89 da                	mov    %ebx,%edx
    9996:	ee                   	out    %al,(%dx)
    9997:	eb 00                	jmp    0x9999
    9999:	eb 00                	jmp    0x999b
    999b:	89 ca                	mov    %ecx,%edx
    999d:	ec                   	in     (%dx),%al
    999e:	5b                   	pop    %ebx
    999f:	5e                   	pop    %esi
    99a0:	c3                   	ret    
    99a1:	b8 00 00 08 00       	mov    $0x80000,%eax
    99a6:	ba b8 86 00 00       	mov    $0x86b8,%edx
    99ab:	66 89 d0             	mov    %dx,%ax
    99ae:	66 ba 00 8e          	mov    $0x8e00,%dx
    99b2:	a3 98 41 00 00       	mov    %eax,0x4198
    99b7:	89 15 9c 41 00 00    	mov    %edx,0x419c
    99bd:	ba c0 86 00 00       	mov    $0x86c0,%edx
    99c2:	66 89 d0             	mov    %dx,%ax
    99c5:	66 ba 00 8e          	mov    $0x8e00,%dx
    99c9:	a3 90 41 00 00       	mov    %eax,0x4190
    99ce:	89 15 94 41 00 00    	mov    %edx,0x4194
    99d4:	a1 f0 4a 01 00       	mov    0x14af0,%eax
    99d9:	e8 6a ff ff ff       	call   0x9948
    99de:	a1 50 57 01 00       	mov    0x15750,%eax
    99e3:	e8 60 ff ff ff       	call   0x9948
    99e8:	ba 21 00 00 00       	mov    $0x21,%edx
    99ed:	ec                   	in     (%dx),%al
    99ee:	eb 00                	jmp    0x99f0
    99f0:	eb 00                	jmp    0x99f2
    99f2:	25 e7 00 00 00       	and    $0xe7,%eax
    99f7:	ee                   	out    %al,(%dx)
    99f8:	c3                   	ret    
    99f9:	8b 44 24 04          	mov    0x4(%esp),%eax
    99fd:	fa                   	cli    
    99fe:	8b 88 48 04 00 00    	mov    0x448(%eax),%ecx
    9a04:	39 88 44 04 00 00    	cmp    %ecx,0x444(%eax)
    9a0a:	74 13                	je     0x9a1f
    9a0c:	8b 90 40 04 00 00    	mov    0x440(%eax),%edx
    9a12:	42                   	inc    %edx
    9a13:	ec                   	in     (%dx),%al
    9a14:	eb 00                	jmp    0x9a16
    9a16:	eb 00                	jmp    0x9a18
    9a18:	83 c8 02             	or     $0x2,%eax
    9a1b:	0f b6 c0             	movzbl %al,%eax
    9a1e:	ee                   	out    %al,(%dx)
    9a1f:	fb                   	sti    
    9a20:	c3                   	ret    
    9a21:	56                   	push   %esi
    9a22:	53                   	push   %ebx
    9a23:	8b 54 24 0c          	mov    0xc(%esp),%edx
    9a27:	8b 5a 14             	mov    0x14(%edx),%ebx
    9a2a:	8d 4b bb             	lea    -0x45(%ebx),%ecx
    9a2d:	89 c8                	mov    %ecx,%eax
    9a2f:	85 c9                	test   %ecx,%ecx
    9a31:	0f 88 8c 00 00 00    	js     0x9ac3
    9a37:	c1 f8 02             	sar    $0x2,%eax
    9a3a:	8d 0c 80             	lea    (%eax,%eax,4),%ecx
    9a3d:	8d 0c 88             	lea    (%eax,%ecx,4),%ecx
    9a40:	8d 0c c8             	lea    (%eax,%ecx,8),%ecx
    9a43:	c1 e1 02             	shl    $0x2,%ecx
    9a46:	29 c1                	sub    %eax,%ecx
    9a48:	89 c8                	mov    %ecx,%eax
    9a4a:	8d 4b ba             	lea    -0x46(%ebx),%ecx
    9a4d:	89 ce                	mov    %ecx,%esi
    9a4f:	c1 e6 09             	shl    $0x9,%esi
    9a52:	01 ce                	add    %ecx,%esi
    9a54:	8d 34 b1             	lea    (%ecx,%esi,4),%esi
    9a57:	8d 34 f1             	lea    (%ecx,%esi,8),%esi
    9a5a:	89 f1                	mov    %esi,%ecx
    9a5c:	c1 e1 04             	shl    $0x4,%ecx
    9a5f:	29 f1                	sub    %esi,%ecx
    9a61:	8d 0c 01             	lea    (%ecx,%eax,1),%ecx
    9a64:	c1 e1 07             	shl    $0x7,%ecx
    9a67:	8b 42 10             	mov    0x10(%edx),%eax
    9a6a:	03 0c 85 c0 ef 00 00 	add    0xefc0(,%eax,4),%ecx
    9a71:	83 f8 01             	cmp    $0x1,%eax
    9a74:	7e 0b                	jle    0x9a81
    9a76:	f6 c3 03             	test   $0x3,%bl
    9a79:	74 06                	je     0x9a81
    9a7b:	81 e9 80 51 01 00    	sub    $0x15180,%ecx
    9a81:	8b 42 0c             	mov    0xc(%edx),%eax
    9a84:	8d 58 ff             	lea    -0x1(%eax),%ebx
    9a87:	8d 04 9b             	lea    (%ebx,%ebx,4),%eax
    9a8a:	8d 04 83             	lea    (%ebx,%eax,4),%eax
    9a8d:	8d 04 c3             	lea    (%ebx,%eax,8),%eax
    9a90:	c1 e0 02             	shl    $0x2,%eax
    9a93:	29 d8                	sub    %ebx,%eax
    9a95:	c1 e0 07             	shl    $0x7,%eax
    9a98:	01 c1                	add    %eax,%ecx
    9a9a:	8b 5a 08             	mov    0x8(%edx),%ebx
    9a9d:	8d 04 1b             	lea    (%ebx,%ebx,1),%eax
    9aa0:	01 d8                	add    %ebx,%eax
    9aa2:	01 c0                	add    %eax,%eax
    9aa4:	01 d8                	add    %ebx,%eax
    9aa6:	c1 e0 05             	shl    $0x5,%eax
    9aa9:	01 d8                	add    %ebx,%eax
    9aab:	c1 e0 04             	shl    $0x4,%eax
    9aae:	01 c8                	add    %ecx,%eax
    9ab0:	8b 5a 04             	mov    0x4(%edx),%ebx
    9ab3:	8d 0c 1b             	lea    (%ebx,%ebx,1),%ecx
    9ab6:	01 d9                	add    %ebx,%ecx
    9ab8:	8d 0c 89             	lea    (%ecx,%ecx,4),%ecx
    9abb:	8d 04 88             	lea    (%eax,%ecx,4),%eax
    9abe:	03 02                	add    (%edx),%eax
    9ac0:	5b                   	pop    %ebx
    9ac1:	5e                   	pop    %esi
    9ac2:	c3                   	ret    
    9ac3:	8d 43 be             	lea    -0x42(%ebx),%eax
    9ac6:	e9 6c ff ff ff       	jmp    0x9a37
    9acb:	53                   	push   %ebx
    9acc:	b8 00 00 00 00       	mov    $0x0,%eax
    9ad1:	b9 00 06 00 00       	mov    $0x600,%ecx
    9ad6:	bb be 7e 01 00       	mov    $0x17ebe,%ebx
    9adb:	fd                   	std    
    9adc:	f2 66 af             	repnz scas %es:(%edi),%ax
    9adf:	75 20                	jne    0x9b01
    9ae1:	66 c7 47 02 01 00    	movw   $0x1,0x2(%edi)
    9ae7:	c1 e1 0c             	shl    $0xc,%ecx
    9aea:	89 ca                	mov    %ecx,%edx
    9aec:	81 c2 00 00 20 00    	add    $0x200000,%edx
    9af2:	b9 00 04 00 00       	mov    $0x400,%ecx
    9af7:	8d ba fc 0f 00 00    	lea    0xffc(%edx),%edi
    9afd:	f3 ab                	rep stos %eax,%es:(%edi)
    9aff:	89 d0                	mov    %edx,%eax
    9b01:	5b                   	pop    %ebx
    9b02:	c3                   	ret    
    9b03:	53                   	push   %ebx
    9b04:	83 ec 08             	sub    $0x8,%esp
    9b07:	8b 5c 24 10          	mov    0x10(%esp),%ebx
    9b0b:	81 fb ff ff 1f 00    	cmp    $0x1fffff,%ebx
    9b11:	76 27                	jbe    0x9b3a
    9b13:	81 fb 00 00 80 00    	cmp    $0x800000,%ebx
    9b19:	77 24                	ja     0x9b3f
    9b1b:	81 eb 00 00 20 00    	sub    $0x200000,%ebx
    9b21:	c1 eb 0c             	shr    $0xc,%ebx
    9b24:	66 8b 84 1b c0 72 01 	mov    0x172c0(%ebx,%ebx,1),%ax
    9b2b:	00 
    9b2c:	66 85 c0             	test   %ax,%ax
    9b2f:	74 20                	je     0x9b51
    9b31:	48                   	dec    %eax
    9b32:	66 89 84 1b c0 72 01 	mov    %ax,0x172c0(%ebx,%ebx,1)
    9b39:	00 
    9b3a:	83 c4 08             	add    $0x8,%esp
    9b3d:	5b                   	pop    %ebx
    9b3e:	c3                   	ret    
    9b3f:	83 ec 0c             	sub    $0xc,%esp
    9b42:	68 18 f9 00 00       	push   $0xf918
    9b47:	e8 37 c9 ff ff       	call   0x6483
    9b4c:	83 c4 10             	add    $0x10,%esp
    9b4f:	eb ca                	jmp    0x9b1b
    9b51:	83 ec 0c             	sub    $0xc,%esp
    9b54:	68 9b f3 00 00       	push   $0xf39b
    9b59:	e8 25 c9 ff ff       	call   0x6483
    9b5e:	83 c4 10             	add    $0x10,%esp
    9b61:	eb d7                	jmp    0x9b3a
    9b63:	55                   	push   %ebp
    9b64:	57                   	push   %edi
    9b65:	56                   	push   %esi
    9b66:	53                   	push   %ebx
    9b67:	83 ec 0c             	sub    $0xc,%esp
    9b6a:	8b 7c 24 20          	mov    0x20(%esp),%edi
    9b6e:	f7 c7 ff ff 3f 00    	test   $0x3fffff,%edi
    9b74:	75 30                	jne    0x9ba6
    9b76:	85 ff                	test   %edi,%edi
    9b78:	74 3e                	je     0x9bb8
    9b7a:	8b 44 24 24          	mov    0x24(%esp),%eax
    9b7e:	05 ff ff 3f 00       	add    $0x3fffff,%eax
    9b83:	c1 e8 16             	shr    $0x16,%eax
    9b86:	c1 ef 14             	shr    $0x14,%edi
    9b89:	81 e7 fc 0f 00 00    	and    $0xffc,%edi
    9b8f:	8d 68 ff             	lea    -0x1(%eax),%ebp
    9b92:	85 c0                	test   %eax,%eax
    9b94:	75 7c                	jne    0x9c12
    9b96:	b8 00 00 00 00       	mov    $0x0,%eax
    9b9b:	0f 22 d8             	mov    %eax,%cr3
    9b9e:	83 c4 0c             	add    $0xc,%esp
    9ba1:	5b                   	pop    %ebx
    9ba2:	5e                   	pop    %esi
    9ba3:	5f                   	pop    %edi
    9ba4:	5d                   	pop    %ebp
    9ba5:	c3                   	ret    
    9ba6:	83 ec 0c             	sub    $0xc,%esp
    9ba9:	68 38 f9 00 00       	push   $0xf938
    9bae:	e8 d0 c8 ff ff       	call   0x6483
    9bb3:	83 c4 10             	add    $0x10,%esp
    9bb6:	eb be                	jmp    0x9b76
    9bb8:	83 ec 0c             	sub    $0xc,%esp
    9bbb:	68 68 f9 00 00       	push   $0xf968
    9bc0:	e8 be c8 ff ff       	call   0x6483
    9bc5:	83 c4 10             	add    $0x10,%esp
    9bc8:	eb b0                	jmp    0x9b7a
    9bca:	c7 03 00 00 00 00    	movl   $0x0,(%ebx)
    9bd0:	83 c3 04             	add    $0x4,%ebx
    9bd3:	39 de                	cmp    %ebx,%esi
    9bd5:	74 19                	je     0x9bf0
    9bd7:	8b 03                	mov    (%ebx),%eax
    9bd9:	a8 01                	test   $0x1,%al
    9bdb:	74 ed                	je     0x9bca
    9bdd:	83 ec 0c             	sub    $0xc,%esp
    9be0:	25 00 f0 ff ff       	and    $0xfffff000,%eax
    9be5:	50                   	push   %eax
    9be6:	e8 18 ff ff ff       	call   0x9b03
    9beb:	83 c4 10             	add    $0x10,%esp
    9bee:	eb da                	jmp    0x9bca
    9bf0:	83 ec 0c             	sub    $0xc,%esp
    9bf3:	8b 07                	mov    (%edi),%eax
    9bf5:	25 00 f0 ff ff       	and    $0xfffff000,%eax
    9bfa:	50                   	push   %eax
    9bfb:	e8 03 ff ff ff       	call   0x9b03
    9c00:	c7 07 00 00 00 00    	movl   $0x0,(%edi)
    9c06:	83 c4 10             	add    $0x10,%esp
    9c09:	83 c7 04             	add    $0x4,%edi
    9c0c:	4d                   	dec    %ebp
    9c0d:	83 fd ff             	cmp    $0xffffffff,%ebp
    9c10:	74 84                	je     0x9b96
    9c12:	8b 37                	mov    (%edi),%esi
    9c14:	f7 c6 01 00 00 00    	test   $0x1,%esi
    9c1a:	74 ed                	je     0x9c09
    9c1c:	81 e6 00 f0 ff ff    	and    $0xfffff000,%esi
    9c22:	89 f3                	mov    %esi,%ebx
    9c24:	81 c6 00 10 00 00    	add    $0x1000,%esi
    9c2a:	eb ab                	jmp    0x9bd7
    9c2c:	55                   	push   %ebp
    9c2d:	57                   	push   %edi
    9c2e:	56                   	push   %esi
    9c2f:	53                   	push   %ebx
    9c30:	83 ec 1c             	sub    $0x1c,%esp
    9c33:	8b 5c 24 30          	mov    0x30(%esp),%ebx
    9c37:	8b 74 24 34          	mov    0x34(%esp),%esi
    9c3b:	89 d8                	mov    %ebx,%eax
    9c3d:	09 f0                	or     %esi,%eax
    9c3f:	a9 ff ff 3f 00       	test   $0x3fffff,%eax
    9c44:	74 10                	je     0x9c56
    9c46:	83 ec 0c             	sub    $0xc,%esp
    9c49:	68 90 f9 00 00       	push   $0xf990
    9c4e:	e8 30 c8 ff ff       	call   0x6483
    9c53:	83 c4 10             	add    $0x10,%esp
    9c56:	89 d9                	mov    %ebx,%ecx
    9c58:	c1 e9 14             	shr    $0x14,%ecx
    9c5b:	81 e1 fc 0f 00 00    	and    $0xffc,%ecx
    9c61:	89 f0                	mov    %esi,%eax
    9c63:	c1 e8 14             	shr    $0x14,%eax
    9c66:	25 fc 0f 00 00       	and    $0xffc,%eax
    9c6b:	89 c6                	mov    %eax,%esi
    9c6d:	8b 7c 24 38          	mov    0x38(%esp),%edi
    9c71:	8d 97 ff ff 3f 00    	lea    0x3fffff(%edi),%edx
    9c77:	c1 ea 16             	shr    $0x16,%edx
    9c7a:	8d 7a ff             	lea    -0x1(%edx),%edi
    9c7d:	85 d2                	test   %edx,%edx
    9c7f:	0f 8e a4 00 00 00    	jle    0x9d29
    9c85:	83 fb 01             	cmp    $0x1,%ebx
    9c88:	19 d2                	sbb    %edx,%edx
    9c8a:	81 e2 a0 fc ff ff    	and    $0xfffffca0,%edx
    9c90:	8d 9a ff 03 00 00    	lea    0x3ff(%edx),%ebx
    9c96:	89 5c 24 0c          	mov    %ebx,0xc(%esp)
    9c9a:	29 c1                	sub    %eax,%ecx
    9c9c:	89 4c 24 08          	mov    %ecx,0x8(%esp)
    9ca0:	eb 51                	jmp    0x9cf3
    9ca2:	83 ec 0c             	sub    $0xc,%esp
    9ca5:	68 c0 f9 00 00       	push   $0xf9c0
    9caa:	e8 d4 c7 ff ff       	call   0x6483
    9caf:	83 c4 10             	add    $0x10,%esp
    9cb2:	eb 4b                	jmp    0x9cff
    9cb4:	83 c3 04             	add    $0x4,%ebx
    9cb7:	49                   	dec    %ecx
    9cb8:	83 f9 ff             	cmp    $0xffffffff,%ecx
    9cbb:	74 2d                	je     0x9cea
    9cbd:	8d 2c 03             	lea    (%ebx,%eax,1),%ebp
    9cc0:	8b 13                	mov    (%ebx),%edx
    9cc2:	f6 c2 01             	test   $0x1,%dl
    9cc5:	74 ed                	je     0x9cb4
    9cc7:	83 e2 fd             	and    $0xfffffffd,%edx
    9cca:	89 55 00             	mov    %edx,0x0(%ebp)
    9ccd:	81 fa 00 00 20 00    	cmp    $0x200000,%edx
    9cd3:	76 df                	jbe    0x9cb4
    9cd5:	89 13                	mov    %edx,(%ebx)
    9cd7:	81 ea 00 00 20 00    	sub    $0x200000,%edx
    9cdd:	c1 ea 0c             	shr    $0xc,%edx
    9ce0:	66 ff 84 12 c0 72 01 	incw   0x172c0(%edx,%edx,1)
    9ce7:	00 
    9ce8:	eb ca                	jmp    0x9cb4
    9cea:	83 c6 04             	add    $0x4,%esi
    9ced:	4f                   	dec    %edi
    9cee:	83 ff ff             	cmp    $0xffffffff,%edi
    9cf1:	74 36                	je     0x9d29
    9cf3:	8b 44 24 08          	mov    0x8(%esp),%eax
    9cf7:	8d 1c 06             	lea    (%esi,%eax,1),%ebx
    9cfa:	f6 06 01             	testb  $0x1,(%esi)
    9cfd:	75 a3                	jne    0x9ca2
    9cff:	8b 2b                	mov    (%ebx),%ebp
    9d01:	f7 c5 01 00 00 00    	test   $0x1,%ebp
    9d07:	74 e1                	je     0x9cea
    9d09:	81 e5 00 f0 ff ff    	and    $0xfffff000,%ebp
    9d0f:	89 eb                	mov    %ebp,%ebx
    9d11:	e8 b5 fd ff ff       	call   0x9acb
    9d16:	85 c0                	test   %eax,%eax
    9d18:	74 1f                	je     0x9d39
    9d1a:	89 c2                	mov    %eax,%edx
    9d1c:	83 ca 07             	or     $0x7,%edx
    9d1f:	89 16                	mov    %edx,(%esi)
    9d21:	8b 4c 24 0c          	mov    0xc(%esp),%ecx
    9d25:	29 e8                	sub    %ebp,%eax
    9d27:	eb 94                	jmp    0x9cbd
    9d29:	b8 00 00 00 00       	mov    $0x0,%eax
    9d2e:	0f 22 d8             	mov    %eax,%cr3
    9d31:	83 c4 1c             	add    $0x1c,%esp
    9d34:	5b                   	pop    %ebx
    9d35:	5e                   	pop    %esi
    9d36:	5f                   	pop    %edi
    9d37:	5d                   	pop    %ebp
    9d38:	c3                   	ret    
    9d39:	b8 ff ff ff ff       	mov    $0xffffffff,%eax
    9d3e:	eb f1                	jmp    0x9d31
    9d40:	57                   	push   %edi
    9d41:	56                   	push   %esi
    9d42:	53                   	push   %ebx
    9d43:	8b 74 24 10          	mov    0x10(%esp),%esi
    9d47:	8b 5c 24 14          	mov    0x14(%esp),%ebx
    9d4b:	8d be 00 00 e0 ff    	lea    -0x200000(%esi),%edi
    9d51:	81 ff 00 00 60 00    	cmp    $0x600000,%edi
    9d57:	77 3b                	ja     0x9d94
    9d59:	c1 ef 0c             	shr    $0xc,%edi
    9d5c:	66 83 bc 3f c0 72 01 	cmpw   $0x1,0x172c0(%edi,%edi,1)
    9d63:	00 01 
    9d65:	75 41                	jne    0x9da8
    9d67:	89 df                	mov    %ebx,%edi
    9d69:	c1 ef 14             	shr    $0x14,%edi
    9d6c:	81 e7 fc 0f 00 00    	and    $0xffc,%edi
    9d72:	8b 07                	mov    (%edi),%eax
    9d74:	a8 01                	test   $0x1,%al
    9d76:	74 44                	je     0x9dbc
    9d78:	25 00 f0 ff ff       	and    $0xfffff000,%eax
    9d7d:	c1 eb 0c             	shr    $0xc,%ebx
    9d80:	81 e3 ff 03 00 00    	and    $0x3ff,%ebx
    9d86:	89 f2                	mov    %esi,%edx
    9d88:	83 ca 07             	or     $0x7,%edx
    9d8b:	89 14 98             	mov    %edx,(%eax,%ebx,4)
    9d8e:	89 f0                	mov    %esi,%eax
    9d90:	5b                   	pop    %ebx
    9d91:	5e                   	pop    %esi
    9d92:	5f                   	pop    %edi
    9d93:	c3                   	ret    
    9d94:	83 ec 04             	sub    $0x4,%esp
    9d97:	53                   	push   %ebx
    9d98:	56                   	push   %esi
    9d99:	68 b4 f3 00 00       	push   $0xf3b4
    9d9e:	e8 0b c7 ff ff       	call   0x64ae
    9da3:	83 c4 10             	add    $0x10,%esp
    9da6:	eb b1                	jmp    0x9d59
    9da8:	83 ec 04             	sub    $0x4,%esp
    9dab:	53                   	push   %ebx
    9dac:	56                   	push   %esi
    9dad:	68 e0 f9 00 00       	push   $0xf9e0
    9db2:	e8 f7 c6 ff ff       	call   0x64ae
    9db7:	83 c4 10             	add    $0x10,%esp
    9dba:	eb ab                	jmp    0x9d67
    9dbc:	e8 0a fd ff ff       	call   0x9acb
    9dc1:	85 c0                	test   %eax,%eax
    9dc3:	74 cb                	je     0x9d90
    9dc5:	89 c2                	mov    %eax,%edx
    9dc7:	83 ca 07             	or     $0x7,%edx
    9dca:	89 17                	mov    %edx,(%edi)
    9dcc:	eb af                	jmp    0x9d7d
    9dce:	57                   	push   %edi
    9dcf:	56                   	push   %esi
    9dd0:	53                   	push   %ebx
    9dd1:	8b 5c 24 10          	mov    0x10(%esp),%ebx
    9dd5:	8b 13                	mov    (%ebx),%edx
    9dd7:	89 d6                	mov    %edx,%esi
    9dd9:	81 e6 00 f0 ff ff    	and    $0xfffff000,%esi
    9ddf:	81 fe ff ff 1f 00    	cmp    $0x1fffff,%esi
    9de5:	76 57                	jbe    0x9e3e
    9de7:	8d 86 00 00 e0 ff    	lea    -0x200000(%esi),%eax
    9ded:	c1 e8 0c             	shr    $0xc,%eax
    9df0:	66 83 bc 00 c0 72 01 	cmpw   $0x1,0x172c0(%eax,%eax,1)
    9df7:	00 01 
    9df9:	74 3c                	je     0x9e37
    9dfb:	e8 cb fc ff ff       	call   0x9acb
    9e00:	89 c7                	mov    %eax,%edi
    9e02:	85 c0                	test   %eax,%eax
    9e04:	75 0d                	jne    0x9e13
    9e06:	83 ec 0c             	sub    $0xc,%esp
    9e09:	6a 0b                	push   $0xb
    9e0b:	e8 64 f8 ff ff       	call   0x9674
    9e10:	83 c4 10             	add    $0x10,%esp
    9e13:	8d 86 00 00 e0 ff    	lea    -0x200000(%esi),%eax
    9e19:	c1 e8 0c             	shr    $0xc,%eax
    9e1c:	66 ff 8c 00 c0 72 01 	decw   0x172c0(%eax,%eax,1)
    9e23:	00 
    9e24:	89 f8                	mov    %edi,%eax
    9e26:	83 c8 07             	or     $0x7,%eax
    9e29:	89 03                	mov    %eax,(%ebx)
    9e2b:	b9 00 04 00 00       	mov    $0x400,%ecx
    9e30:	fc                   	cld    
    9e31:	f3 a5                	rep movsl %ds:(%esi),%es:(%edi)
    9e33:	5b                   	pop    %ebx
    9e34:	5e                   	pop    %esi
    9e35:	5f                   	pop    %edi
    9e36:	c3                   	ret    
    9e37:	83 ca 02             	or     $0x2,%edx
    9e3a:	89 13                	mov    %edx,(%ebx)
    9e3c:	eb f5                	jmp    0x9e33
    9e3e:	e8 88 fc ff ff       	call   0x9acb
    9e43:	89 c7                	mov    %eax,%edi
    9e45:	85 c0                	test   %eax,%eax
    9e47:	75 db                	jne    0x9e24
    9e49:	83 ec 0c             	sub    $0xc,%esp
    9e4c:	6a 0b                	push   $0xb
    9e4e:	e8 21 f8 ff ff       	call   0x9674
    9e53:	83 c4 10             	add    $0x10,%esp
    9e56:	eb cc                	jmp    0x9e24
    9e58:	83 ec 18             	sub    $0x18,%esp
    9e5b:	8b 44 24 20          	mov    0x20(%esp),%eax
    9e5f:	89 c2                	mov    %eax,%edx
    9e61:	c1 ea 14             	shr    $0x14,%edx
    9e64:	81 e2 fc 0f 00 00    	and    $0xffc,%edx
    9e6a:	8b 12                	mov    (%edx),%edx
    9e6c:	81 e2 00 f0 ff ff    	and    $0xfffff000,%edx
    9e72:	c1 e8 0a             	shr    $0xa,%eax
    9e75:	25 fc 0f 00 00       	and    $0xffc,%eax
    9e7a:	09 d0                	or     %edx,%eax
    9e7c:	50                   	push   %eax
    9e7d:	e8 4c ff ff ff       	call   0x9dce
    9e82:	83 c4 1c             	add    $0x1c,%esp
    9e85:	c3                   	ret    
    9e86:	83 ec 0c             	sub    $0xc,%esp
    9e89:	8b 44 24 10          	mov    0x10(%esp),%eax
    9e8d:	c1 e8 14             	shr    $0x14,%eax
    9e90:	25 fc 0f 00 00       	and    $0xffc,%eax
    9e95:	8b 00                	mov    (%eax),%eax
    9e97:	a8 01                	test   $0x1,%al
    9e99:	74 1f                	je     0x9eba
    9e9b:	25 00 f0 ff ff       	and    $0xfffff000,%eax
    9ea0:	89 c2                	mov    %eax,%edx
    9ea2:	8b 44 24 10          	mov    0x10(%esp),%eax
    9ea6:	c1 e8 0a             	shr    $0xa,%eax
    9ea9:	25 fc 0f 00 00       	and    $0xffc,%eax
    9eae:	09 d0                	or     %edx,%eax
    9eb0:	8b 10                	mov    (%eax),%edx
    9eb2:	83 e2 03             	and    $0x3,%edx
    9eb5:	83 fa 01             	cmp    $0x1,%edx
    9eb8:	74 04                	je     0x9ebe
    9eba:	83 c4 0c             	add    $0xc,%esp
    9ebd:	c3                   	ret    
    9ebe:	83 ec 0c             	sub    $0xc,%esp
    9ec1:	50                   	push   %eax
    9ec2:	e8 07 ff ff ff       	call   0x9dce
    9ec7:	83 c4 10             	add    $0x10,%esp
    9eca:	eb ee                	jmp    0x9eba
    9ecc:	83 ec 0c             	sub    $0xc,%esp
    9ecf:	e8 f7 fb ff ff       	call   0x9acb
    9ed4:	85 c0                	test   %eax,%eax
    9ed6:	74 14                	je     0x9eec
    9ed8:	83 ec 08             	sub    $0x8,%esp
    9edb:	ff 74 24 1c          	pushl  0x1c(%esp)
    9edf:	50                   	push   %eax
    9ee0:	e8 5b fe ff ff       	call   0x9d40
    9ee5:	83 c4 10             	add    $0x10,%esp
    9ee8:	85 c0                	test   %eax,%eax
    9eea:	75 0d                	jne    0x9ef9
    9eec:	83 ec 0c             	sub    $0xc,%esp
    9eef:	6a 0b                	push   $0xb
    9ef1:	e8 7e f7 ff ff       	call   0x9674
    9ef6:	83 c4 10             	add    $0x10,%esp
    9ef9:	83 c4 0c             	add    $0xc,%esp
    9efc:	c3                   	ret    
    9efd:	56                   	push   %esi
    9efe:	53                   	push   %ebx
    9eff:	83 ec 04             	sub    $0x4,%esp
    9f02:	b8 c0 72 01 00       	mov    $0x172c0,%eax
    9f07:	b9 c0 7e 01 00       	mov    $0x17ec0,%ecx
    9f0c:	ba 00 00 00 00       	mov    $0x0,%edx
    9f11:	eb 07                	jmp    0x9f1a
    9f13:	83 c0 02             	add    $0x2,%eax
    9f16:	39 c8                	cmp    %ecx,%eax
    9f18:	74 09                	je     0x9f23
    9f1a:	66 83 38 00          	cmpw   $0x0,(%eax)
    9f1e:	75 f3                	jne    0x9f13
    9f20:	42                   	inc    %edx
    9f21:	eb f0                	jmp    0x9f13
    9f23:	83 ec 04             	sub    $0x4,%esp
    9f26:	68 00 06 00 00       	push   $0x600
    9f2b:	52                   	push   %edx
    9f2c:	68 d1 f3 00 00       	push   $0xf3d1
    9f31:	e8 78 c5 ff ff       	call   0x64ae
    9f36:	83 c4 10             	add    $0x10,%esp
    9f39:	bb 02 00 00 00       	mov    $0x2,%ebx
    9f3e:	eb 1b                	jmp    0x9f5b
    9f40:	83 ec 04             	sub    $0x4,%esp
    9f43:	52                   	push   %edx
    9f44:	53                   	push   %ebx
    9f45:	68 e9 f3 00 00       	push   $0xf3e9
    9f4a:	e8 5f c5 ff ff       	call   0x64ae
    9f4f:	83 c4 10             	add    $0x10,%esp
    9f52:	43                   	inc    %ebx
    9f53:	81 fb 00 04 00 00    	cmp    $0x400,%ebx
    9f59:	74 2f                	je     0x9f8a
    9f5b:	8b 04 9d 00 00 00 00 	mov    0x0(,%ebx,4),%eax
    9f62:	a8 01                	test   $0x1,%al
    9f64:	74 ec                	je     0x9f52
    9f66:	25 00 f0 ff ff       	and    $0xfffff000,%eax
    9f6b:	8d b0 00 10 00 00    	lea    0x1000(%eax),%esi
    9f71:	ba 00 00 00 00       	mov    $0x0,%edx
    9f76:	f6 00 01             	testb  $0x1,(%eax)
    9f79:	0f 95 c1             	setne  %cl
    9f7c:	0f b6 c9             	movzbl %cl,%ecx
    9f7f:	01 ca                	add    %ecx,%edx
    9f81:	83 c0 04             	add    $0x4,%eax
    9f84:	39 c6                	cmp    %eax,%esi
    9f86:	75 ee                	jne    0x9f76
    9f88:	eb b6                	jmp    0x9f40
    9f8a:	83 c4 04             	add    $0x4,%esp
    9f8d:	5b                   	pop    %ebx
    9f8e:	5e                   	pop    %esi
    9f8f:	c3                   	ret    
    9f90:	87 04 24             	xchg   %eax,(%esp)
    9f93:	51                   	push   %ecx
    9f94:	52                   	push   %edx
    9f95:	1e                   	push   %ds
    9f96:	06                   	push   %es
    9f97:	0f a0                	push   %fs
    9f99:	ba 10 00 00 00       	mov    $0x10,%edx
    9f9e:	8e da                	mov    %edx,%ds
    9fa0:	8e c2                	mov    %edx,%es
    9fa2:	8e e2                	mov    %edx,%fs
    9fa4:	0f 20 d2             	mov    %cr2,%edx
    9fa7:	52                   	push   %edx
    9fa8:	50                   	push   %eax
    9fa9:	a9 01 00 00 00       	test   $0x1,%eax
    9fae:	75 07                	jne    0x9fb7
    9fb0:	e8 17 ff ff ff       	call   0x9ecc
    9fb5:	eb 05                	jmp    0x9fbc
    9fb7:	e8 9c fe ff ff       	call   0x9e58
    9fbc:	83 c4 08             	add    $0x8,%esp
    9fbf:	0f a1                	pop    %fs
    9fc1:	07                   	pop    %es
    9fc2:	1f                   	pop    %ds
    9fc3:	5a                   	pop    %edx
    9fc4:	59                   	pop    %ecx
    9fc5:	58                   	pop    %eax
    9fc6:	cf                   	iret   
    9fc7:	53                   	push   %ebx
    9fc8:	83 ec 14             	sub    $0x14,%esp
    9fcb:	8b 5c 24 20          	mov    0x20(%esp),%ebx
    9fcf:	ff 74 24 1c          	pushl  0x1c(%esp)
    9fd3:	e8 83 32 00 00       	call   0xd25b
    9fd8:	83 c4 10             	add    $0x10,%esp
    9fdb:	85 c0                	test   %eax,%eax
    9fdd:	74 4e                	je     0xa02d
    9fdf:	89 c1                	mov    %eax,%ecx
    9fe1:	85 db                	test   %ebx,%ebx
    9fe3:	74 27                	je     0xa00c
    9fe5:	64 8b 03             	mov    %fs:(%ebx),%eax
    9fe8:	64 8b 53 04          	mov    %fs:0x4(%ebx),%edx
    9fec:	89 41 24             	mov    %eax,0x24(%ecx)
    9fef:	89 51 08             	mov    %edx,0x8(%ecx)
    9ff2:	c6 41 33 01          	movb   $0x1,0x33(%ecx)
    9ff6:	83 ec 0c             	sub    $0xc,%esp
    9ff9:	51                   	push   %ecx
    9ffa:	e8 27 0d 00 00       	call   0xad26
    9fff:	83 c4 10             	add    $0x10,%esp
    a002:	b8 00 00 00 00       	mov    $0x0,%eax
    a007:	83 c4 08             	add    $0x8,%esp
    a00a:	5b                   	pop    %ebx
    a00b:	c3                   	ret    
    a00c:	8b 1d 08 69 01 00    	mov    0x16908,%ebx
    a012:	b8 1f 85 eb 51       	mov    $0x51eb851f,%eax
    a017:	f7 eb                	imul   %ebx
    a019:	89 d0                	mov    %edx,%eax
    a01b:	c1 f8 05             	sar    $0x5,%eax
    a01e:	c1 fb 1f             	sar    $0x1f,%ebx
    a021:	29 d8                	sub    %ebx,%eax
    a023:	03 05 04 69 01 00    	add    0x16904,%eax
    a029:	89 c2                	mov    %eax,%edx
    a02b:	eb bf                	jmp    0x9fec
    a02d:	b8 fe ff ff ff       	mov    $0xfffffffe,%eax
    a032:	eb d3                	jmp    0xa007
    a034:	57                   	push   %edi
    a035:	56                   	push   %esi
    a036:	53                   	push   %ebx
    a037:	8b 74 24 14          	mov    0x14(%esp),%esi
    a03b:	83 e6 07             	and    $0x7,%esi
    a03e:	83 ec 0c             	sub    $0xc,%esp
    a041:	ff 74 24 1c          	pushl  0x1c(%esp)
    a045:	e8 11 32 00 00       	call   0xd25b
    a04a:	83 c4 10             	add    $0x10,%esp
    a04d:	85 c0                	test   %eax,%eax
    a04f:	74 7d                	je     0xa0ce
    a051:	89 c7                	mov    %eax,%edi
    a053:	8b 18                	mov    (%eax),%ebx
    a055:	83 ec 0c             	sub    $0xc,%esp
    a058:	50                   	push   %eax
    a059:	e8 c8 0c 00 00       	call   0xad26
    a05e:	8b 15 00 2d 01 00    	mov    0x12d00,%edx
    a064:	66 8b 8a be 00 00 00 	mov    0xbe(%edx),%cx
    a06b:	83 c4 10             	add    $0x10,%esp
    a06e:	66 85 c9             	test   %cx,%cx
    a071:	74 13                	je     0xa086
    a073:	66 83 ba bc 00 00 00 	cmpw   $0x0,0xbc(%edx)
    a07a:	00 
    a07b:	74 09                	je     0xa086
    a07d:	89 d8                	mov    %ebx,%eax
    a07f:	25 ff 01 00 00       	and    $0x1ff,%eax
    a084:	eb 13                	jmp    0xa099
    a086:	89 d8                	mov    %ebx,%eax
    a088:	83 e0 49             	and    $0x49,%eax
    a08b:	66 83 f8 01          	cmp    $0x1,%ax
    a08f:	19 c0                	sbb    %eax,%eax
    a091:	83 e0 b7             	and    $0xffffffb7,%eax
    a094:	05 ff 01 00 00       	add    $0x1ff,%eax
    a099:	66 3b 4f 02          	cmp    0x2(%edi),%cx
    a09d:	74 1e                	je     0xa0bd
    a09f:	0f b6 4f 0c          	movzbl 0xc(%edi),%ecx
    a0a3:	66 39 8a c4 00 00 00 	cmp    %cx,0xc4(%edx)
    a0aa:	74 16                	je     0xa0c2
    a0ac:	21 f0                	and    %esi,%eax
    a0ae:	89 c2                	mov    %eax,%edx
    a0b0:	b8 00 00 00 00       	mov    $0x0,%eax
    a0b5:	39 f2                	cmp    %esi,%edx
    a0b7:	75 0e                	jne    0xa0c7
    a0b9:	5b                   	pop    %ebx
    a0ba:	5e                   	pop    %esi
    a0bb:	5f                   	pop    %edi
    a0bc:	c3                   	ret    
    a0bd:	c1 f8 06             	sar    $0x6,%eax
    a0c0:	eb ea                	jmp    0xa0ac
    a0c2:	c1 f8 06             	sar    $0x6,%eax
    a0c5:	eb e5                	jmp    0xa0ac
    a0c7:	b8 f3 ff ff ff       	mov    $0xfffffff3,%eax
    a0cc:	eb eb                	jmp    0xa0b9
    a0ce:	b8 f3 ff ff ff       	mov    $0xfffffff3,%eax
    a0d3:	eb e4                	jmp    0xa0b9
    a0d5:	53                   	push   %ebx
    a0d6:	83 ec 14             	sub    $0x14,%esp
    a0d9:	ff 74 24 1c          	pushl  0x1c(%esp)
    a0dd:	e8 79 31 00 00       	call   0xd25b
    a0e2:	83 c4 10             	add    $0x10,%esp
    a0e5:	85 c0                	test   %eax,%eax
    a0e7:	74 4d                	je     0xa136
    a0e9:	89 c3                	mov    %eax,%ebx
    a0eb:	8b 00                	mov    (%eax),%eax
    a0ed:	25 00 f0 ff ff       	and    $0xfffff000,%eax
    a0f2:	66 3d 00 40          	cmp    $0x4000,%ax
    a0f6:	75 2b                	jne    0xa123
    a0f8:	83 ec 0c             	sub    $0xc,%esp
    a0fb:	a1 00 2d 01 00       	mov    0x12d00,%eax
    a100:	ff b0 ec 00 00 00    	pushl  0xec(%eax)
    a106:	e8 1b 0c 00 00       	call   0xad26
    a10b:	a1 00 2d 01 00       	mov    0x12d00,%eax
    a110:	89 98 ec 00 00 00    	mov    %ebx,0xec(%eax)
    a116:	83 c4 10             	add    $0x10,%esp
    a119:	b8 00 00 00 00       	mov    $0x0,%eax
    a11e:	83 c4 08             	add    $0x8,%esp
    a121:	5b                   	pop    %ebx
    a122:	c3                   	ret    
    a123:	83 ec 0c             	sub    $0xc,%esp
    a126:	53                   	push   %ebx
    a127:	e8 fa 0b 00 00       	call   0xad26
    a12c:	83 c4 10             	add    $0x10,%esp
    a12f:	b8 ec ff ff ff       	mov    $0xffffffec,%eax
    a134:	eb e8                	jmp    0xa11e
    a136:	b8 fe ff ff ff       	mov    $0xfffffffe,%eax
    a13b:	eb e1                	jmp    0xa11e
    a13d:	53                   	push   %ebx
    a13e:	83 ec 14             	sub    $0x14,%esp
    a141:	ff 74 24 1c          	pushl  0x1c(%esp)
    a145:	e8 11 31 00 00       	call   0xd25b
    a14a:	83 c4 10             	add    $0x10,%esp
    a14d:	85 c0                	test   %eax,%eax
    a14f:	74 4d                	je     0xa19e
    a151:	89 c3                	mov    %eax,%ebx
    a153:	8b 00                	mov    (%eax),%eax
    a155:	25 00 f0 ff ff       	and    $0xfffff000,%eax
    a15a:	66 3d 00 40          	cmp    $0x4000,%ax
    a15e:	75 2b                	jne    0xa18b
    a160:	83 ec 0c             	sub    $0xc,%esp
    a163:	a1 00 2d 01 00       	mov    0x12d00,%eax
    a168:	ff b0 f0 00 00 00    	pushl  0xf0(%eax)
    a16e:	e8 b3 0b 00 00       	call   0xad26
    a173:	a1 00 2d 01 00       	mov    0x12d00,%eax
    a178:	89 98 f0 00 00 00    	mov    %ebx,0xf0(%eax)
    a17e:	83 c4 10             	add    $0x10,%esp
    a181:	b8 00 00 00 00       	mov    $0x0,%eax
    a186:	83 c4 08             	add    $0x8,%esp
    a189:	5b                   	pop    %ebx
    a18a:	c3                   	ret    
    a18b:	83 ec 0c             	sub    $0xc,%esp
    a18e:	53                   	push   %ebx
    a18f:	e8 92 0b 00 00       	call   0xad26
    a194:	83 c4 10             	add    $0x10,%esp
    a197:	b8 ec ff ff ff       	mov    $0xffffffec,%eax
    a19c:	eb e8                	jmp    0xa186
    a19e:	b8 fe ff ff ff       	mov    $0xfffffffe,%eax
    a1a3:	eb e1                	jmp    0xa186
    a1a5:	56                   	push   %esi
    a1a6:	53                   	push   %ebx
    a1a7:	83 ec 10             	sub    $0x10,%esp
    a1aa:	8b 5c 24 20          	mov    0x20(%esp),%ebx
    a1ae:	ff 74 24 1c          	pushl  0x1c(%esp)
    a1b2:	e8 a4 30 00 00       	call   0xd25b
    a1b7:	83 c4 10             	add    $0x10,%esp
    a1ba:	85 c0                	test   %eax,%eax
    a1bc:	74 7c                	je     0xa23a
    a1be:	8b 15 00 2d 01 00    	mov    0x12d00,%edx
    a1c4:	8b 8a bc 00 00 00    	mov    0xbc(%edx),%ecx
    a1ca:	66 85 c9             	test   %cx,%cx
    a1cd:	74 2a                	je     0xa1f9
    a1cf:	66 8b 92 be 00 00 00 	mov    0xbe(%edx),%dx
    a1d6:	66 85 d2             	test   %dx,%dx
    a1d9:	74 1e                	je     0xa1f9
    a1db:	66 8b 70 02          	mov    0x2(%eax),%si
    a1df:	66 39 f1             	cmp    %si,%cx
    a1e2:	74 05                	je     0xa1e9
    a1e4:	66 39 f2             	cmp    %si,%dx
    a1e7:	75 3e                	jne    0xa227
    a1e9:	81 e3 ff 01 00 00    	and    $0x1ff,%ebx
    a1ef:	8b 08                	mov    (%eax),%ecx
    a1f1:	81 e1 00 0e 00 00    	and    $0xe00,%ecx
    a1f7:	09 cb                	or     %ecx,%ebx
    a1f9:	8b 10                	mov    (%eax),%edx
    a1fb:	81 e2 00 f0 ff ff    	and    $0xfffff000,%edx
    a201:	81 e3 ff 0f 00 00    	and    $0xfff,%ebx
    a207:	09 da                	or     %ebx,%edx
    a209:	66 89 10             	mov    %dx,(%eax)
    a20c:	c6 40 33 01          	movb   $0x1,0x33(%eax)
    a210:	83 ec 0c             	sub    $0xc,%esp
    a213:	50                   	push   %eax
    a214:	e8 0d 0b 00 00       	call   0xad26
    a219:	83 c4 10             	add    $0x10,%esp
    a21c:	b8 00 00 00 00       	mov    $0x0,%eax
    a221:	83 c4 04             	add    $0x4,%esp
    a224:	5b                   	pop    %ebx
    a225:	5e                   	pop    %esi
    a226:	c3                   	ret    
    a227:	83 ec 0c             	sub    $0xc,%esp
    a22a:	50                   	push   %eax
    a22b:	e8 f6 0a 00 00       	call   0xad26
    a230:	83 c4 10             	add    $0x10,%esp
    a233:	b8 f3 ff ff ff       	mov    $0xfffffff3,%eax
    a238:	eb e7                	jmp    0xa221
    a23a:	b8 fe ff ff ff       	mov    $0xfffffffe,%eax
    a23f:	eb e0                	jmp    0xa221
    a241:	83 ec 18             	sub    $0x18,%esp
    a244:	ff 74 24 1c          	pushl  0x1c(%esp)
    a248:	e8 0e 30 00 00       	call   0xd25b
    a24d:	83 c4 10             	add    $0x10,%esp
    a250:	85 c0                	test   %eax,%eax
    a252:	74 55                	je     0xa2a9
    a254:	8b 15 00 2d 01 00    	mov    0x12d00,%edx
    a25a:	66 83 ba bc 00 00 00 	cmpw   $0x0,0xbc(%edx)
    a261:	00 
    a262:	74 0a                	je     0xa26e
    a264:	66 83 ba be 00 00 00 	cmpw   $0x0,0xbe(%edx)
    a26b:	00 
    a26c:	75 28                	jne    0xa296
    a26e:	8b 54 24 14          	mov    0x14(%esp),%edx
    a272:	66 89 50 02          	mov    %dx,0x2(%eax)
    a276:	8b 54 24 18          	mov    0x18(%esp),%edx
    a27a:	88 50 0c             	mov    %dl,0xc(%eax)
    a27d:	c6 40 33 01          	movb   $0x1,0x33(%eax)
    a281:	83 ec 0c             	sub    $0xc,%esp
    a284:	50                   	push   %eax
    a285:	e8 9c 0a 00 00       	call   0xad26
    a28a:	83 c4 10             	add    $0x10,%esp
    a28d:	b8 00 00 00 00       	mov    $0x0,%eax
    a292:	83 c4 0c             	add    $0xc,%esp
    a295:	c3                   	ret    
    a296:	83 ec 0c             	sub    $0xc,%esp
    a299:	50                   	push   %eax
    a29a:	e8 87 0a 00 00       	call   0xad26
    a29f:	83 c4 10             	add    $0x10,%esp
    a2a2:	b8 f3 ff ff ff       	mov    $0xfffffff3,%eax
    a2a7:	eb e9                	jmp    0xa292
    a2a9:	b8 fe ff ff ff       	mov    $0xfffffffe,%eax
    a2ae:	eb e2                	jmp    0xa292
    a2b0:	55                   	push   %ebp
    a2b1:	57                   	push   %edi
    a2b2:	56                   	push   %esi
    a2b3:	53                   	push   %ebx
    a2b4:	83 ec 1c             	sub    $0x1c,%esp
    a2b7:	8b 6c 24 30          	mov    0x30(%esp),%ebp
    a2bb:	8b 7c 24 34          	mov    0x34(%esp),%edi
    a2bf:	65 a1 14 00 00 00    	mov    %gs:0x14,%eax
    a2c5:	89 44 24 0c          	mov    %eax,0xc(%esp)
    a2c9:	31 c0                	xor    %eax,%eax
    a2cb:	a1 00 2d 01 00       	mov    0x12d00,%eax
    a2d0:	0f b7 90 e8 00 00 00 	movzwl 0xe8(%eax),%edx
    a2d7:	f7 d2                	not    %edx
    a2d9:	81 e2 ff 01 00 00    	and    $0x1ff,%edx
    a2df:	23 54 24 38          	and    0x38(%esp),%edx
    a2e3:	83 b8 f8 00 00 00 00 	cmpl   $0x0,0xf8(%eax)
    a2ea:	0f 84 e0 00 00 00    	je     0xa3d0
    a2f0:	be 01 00 00 00       	mov    $0x1,%esi
    a2f5:	83 bc b0 f8 00 00 00 	cmpl   $0x0,0xf8(%eax,%esi,4)
    a2fc:	00 
    a2fd:	0f 84 d2 00 00 00    	je     0xa3d5
    a303:	46                   	inc    %esi
    a304:	83 fe 14             	cmp    $0x14,%esi
    a307:	75 ec                	jne    0xa2f5
    a309:	be ea ff ff ff       	mov    $0xffffffea,%esi
    a30e:	e9 51 01 00 00       	jmp    0xa464
    a313:	8b 15 00 2d 01 00    	mov    0x12d00,%edx
    a319:	c7 84 b2 f8 00 00 00 	movl   $0x0,0xf8(%edx,%esi,4)
    a320:	00 00 00 00 
    a324:	66 c7 43 04 00 00    	movw   $0x0,0x4(%ebx)
    a32a:	89 c6                	mov    %eax,%esi
    a32c:	e9 33 01 00 00       	jmp    0xa464
    a331:	66 8b 48 0e          	mov    0xe(%eax),%cx
    a335:	89 ca                	mov    %ecx,%edx
    a337:	66 c1 ea 08          	shr    $0x8,%dx
    a33b:	66 83 fa 04          	cmp    $0x4,%dx
    a33f:	74 49                	je     0xa38a
    a341:	66 83 fa 05          	cmp    $0x5,%dx
    a345:	0f 85 00 01 00 00    	jne    0xa44b
    a34b:	8b 15 00 2d 01 00    	mov    0x12d00,%edx
    a351:	83 ba e4 00 00 00 00 	cmpl   $0x0,0xe4(%edx)
    a358:	0f 89 ed 00 00 00    	jns    0xa44b
    a35e:	83 ec 0c             	sub    $0xc,%esp
    a361:	50                   	push   %eax
    a362:	e8 bf 09 00 00       	call   0xad26
    a367:	a1 00 2d 01 00       	mov    0x12d00,%eax
    a36c:	c7 84 b0 f8 00 00 00 	movl   $0x0,0xf8(%eax,%esi,4)
    a373:	00 00 00 00 
    a377:	66 c7 43 04 00 00    	movw   $0x0,0x4(%ebx)
    a37d:	83 c4 10             	add    $0x10,%esp
    a380:	be ff ff ff ff       	mov    $0xffffffff,%esi
    a385:	e9 da 00 00 00       	jmp    0xa464
    a38a:	8b 15 00 2d 01 00    	mov    0x12d00,%edx
    a390:	83 ba b8 00 00 00 00 	cmpl   $0x0,0xb8(%edx)
    a397:	0f 84 ae 00 00 00    	je     0xa44b
    a39d:	83 ba e4 00 00 00 00 	cmpl   $0x0,0xe4(%edx)
    a3a4:	0f 89 a1 00 00 00    	jns    0xa44b
    a3aa:	0f b6 c9             	movzbl %cl,%ecx
    a3ad:	89 8a e4 00 00 00    	mov    %ecx,0xe4(%edx)
    a3b3:	8b 92 b0 00 00 00    	mov    0xb0(%edx),%edx
    a3b9:	8d 2c 09             	lea    (%ecx,%ecx,1),%ebp
    a3bc:	01 e9                	add    %ebp,%ecx
    a3be:	89 cd                	mov    %ecx,%ebp
    a3c0:	c1 e5 05             	shl    $0x5,%ebp
    a3c3:	01 e9                	add    %ebp,%ecx
    a3c5:	c1 e1 05             	shl    $0x5,%ecx
    a3c8:	89 91 84 3e 01 00    	mov    %edx,0x13e84(%ecx)
    a3ce:	eb 7b                	jmp    0xa44b
    a3d0:	be 00 00 00 00       	mov    $0x0,%esi
    a3d5:	bb fe ff ff ff       	mov    $0xfffffffe,%ebx
    a3da:	89 f1                	mov    %esi,%ecx
    a3dc:	d3 c3                	rol    %cl,%ebx
    a3de:	21 98 f4 00 00 00    	and    %ebx,0xf4(%eax)
    a3e4:	bb 10 9e 01 00       	mov    $0x19e10,%ebx
    a3e9:	66 83 3d 04 9e 01 00 	cmpw   $0x0,0x19e04
    a3f0:	00 
    a3f1:	74 19                	je     0xa40c
    a3f3:	66 83 7b 04 00       	cmpw   $0x0,0x4(%ebx)
    a3f8:	74 17                	je     0xa411
    a3fa:	83 c3 10             	add    $0x10,%ebx
    a3fd:	81 fb 00 a2 01 00    	cmp    $0x1a200,%ebx
    a403:	75 ee                	jne    0xa3f3
    a405:	be ea ff ff ff       	mov    $0xffffffea,%esi
    a40a:	eb 58                	jmp    0xa464
    a40c:	bb 00 9e 01 00       	mov    $0x19e00,%ebx
    a411:	89 9c b0 f8 00 00 00 	mov    %ebx,0xf8(%eax,%esi,4)
    a418:	66 ff 43 04          	incw   0x4(%ebx)
    a41c:	8d 44 24 08          	lea    0x8(%esp),%eax
    a420:	50                   	push   %eax
    a421:	52                   	push   %edx
    a422:	57                   	push   %edi
    a423:	55                   	push   %ebp
    a424:	e8 08 2f 00 00       	call   0xd331
    a429:	83 c4 10             	add    $0x10,%esp
    a42c:	85 c0                	test   %eax,%eax
    a42e:	0f 88 df fe ff ff    	js     0xa313
    a434:	8b 44 24 08          	mov    0x8(%esp),%eax
    a438:	8b 10                	mov    (%eax),%edx
    a43a:	81 e2 00 f0 ff ff    	and    $0xfffff000,%edx
    a440:	66 81 fa 00 20       	cmp    $0x2000,%dx
    a445:	0f 84 e6 fe ff ff    	je     0xa331
    a44b:	8b 10                	mov    (%eax),%edx
    a44d:	66 89 13             	mov    %dx,(%ebx)
    a450:	66 89 7b 02          	mov    %di,0x2(%ebx)
    a454:	66 c7 43 04 01 00    	movw   $0x1,0x4(%ebx)
    a45a:	89 43 08             	mov    %eax,0x8(%ebx)
    a45d:	c7 43 0c 00 00 00 00 	movl   $0x0,0xc(%ebx)
    a464:	89 f0                	mov    %esi,%eax
    a466:	8b 4c 24 0c          	mov    0xc(%esp),%ecx
    a46a:	65 33 0d 14 00 00 00 	xor    %gs:0x14,%ecx
    a471:	75 08                	jne    0xa47b
    a473:	83 c4 1c             	add    $0x1c,%esp
    a476:	5b                   	pop    %ebx
    a477:	5e                   	pop    %esi
    a478:	5f                   	pop    %edi
    a479:	5d                   	pop    %ebp
    a47a:	c3                   	ret    
    a47b:	e8 26 c0 ff ff       	call   0x64a6
    a480:	83 ec 10             	sub    $0x10,%esp
    a483:	ff 74 24 18          	pushl  0x18(%esp)
    a487:	68 40 02 00 00       	push   $0x240
    a48c:	ff 74 24 1c          	pushl  0x1c(%esp)
    a490:	e8 1b fe ff ff       	call   0xa2b0
    a495:	83 c4 1c             	add    $0x1c,%esp
    a498:	c3                   	ret    
    a499:	53                   	push   %ebx
    a49a:	83 ec 08             	sub    $0x8,%esp
    a49d:	8b 4c 24 10          	mov    0x10(%esp),%ecx
    a4a1:	83 f9 13             	cmp    $0x13,%ecx
    a4a4:	77 6e                	ja     0xa514
    a4a6:	a1 00 2d 01 00       	mov    0x12d00,%eax
    a4ab:	ba fe ff ff ff       	mov    $0xfffffffe,%edx
    a4b0:	d3 c2                	rol    %cl,%edx
    a4b2:	21 90 f4 00 00 00    	and    %edx,0xf4(%eax)
    a4b8:	8d 04 88             	lea    (%eax,%ecx,4),%eax
    a4bb:	8b 98 f8 00 00 00    	mov    0xf8(%eax),%ebx
    a4c1:	85 db                	test   %ebx,%ebx
    a4c3:	74 56                	je     0xa51b
    a4c5:	c7 80 f8 00 00 00 00 	movl   $0x0,0xf8(%eax)
    a4cc:	00 00 00 
    a4cf:	66 83 7b 04 00       	cmpw   $0x0,0x4(%ebx)
    a4d4:	74 17                	je     0xa4ed
    a4d6:	8b 43 04             	mov    0x4(%ebx),%eax
    a4d9:	48                   	dec    %eax
    a4da:	66 89 43 04          	mov    %ax,0x4(%ebx)
    a4de:	66 85 c0             	test   %ax,%ax
    a4e1:	74 1c                	je     0xa4ff
    a4e3:	b8 00 00 00 00       	mov    $0x0,%eax
    a4e8:	83 c4 08             	add    $0x8,%esp
    a4eb:	5b                   	pop    %ebx
    a4ec:	c3                   	ret    
    a4ed:	83 ec 0c             	sub    $0xc,%esp
    a4f0:	68 03 f4 00 00       	push   $0xf403
    a4f5:	e8 89 bf ff ff       	call   0x6483
    a4fa:	83 c4 10             	add    $0x10,%esp
    a4fd:	eb d7                	jmp    0xa4d6
    a4ff:	83 ec 0c             	sub    $0xc,%esp
    a502:	ff 73 08             	pushl  0x8(%ebx)
    a505:	e8 1c 08 00 00       	call   0xad26
    a50a:	83 c4 10             	add    $0x10,%esp
    a50d:	b8 00 00 00 00       	mov    $0x0,%eax
    a512:	eb d4                	jmp    0xa4e8
    a514:	b8 ea ff ff ff       	mov    $0xffffffea,%eax
    a519:	eb cd                	jmp    0xa4e8
    a51b:	b8 ea ff ff ff       	mov    $0xffffffea,%eax
    a520:	eb c6                	jmp    0xa4e8
    a522:	53                   	push   %ebx
    a523:	8b 44 24 08          	mov    0x8(%esp),%eax
    a527:	8b 5c 24 10          	mov    0x10(%esp),%ebx
    a52b:	83 f8 13             	cmp    $0x13,%eax
    a52e:	77 6f                	ja     0xa59f
    a530:	8b 15 00 2d 01 00    	mov    0x12d00,%edx
    a536:	8b 84 82 f8 00 00 00 	mov    0xf8(%edx,%eax,4),%eax
    a53d:	85 c0                	test   %eax,%eax
    a53f:	74 65                	je     0xa5a6
    a541:	8b 50 08             	mov    0x8(%eax),%edx
    a544:	85 d2                	test   %edx,%edx
    a546:	74 65                	je     0xa5ad
    a548:	0f b6 4a 2d          	movzbl 0x2d(%edx),%ecx
    a54c:	83 e9 02             	sub    $0x2,%ecx
    a54f:	66 83 f9 01          	cmp    $0x1,%cx
    a553:	77 5f                	ja     0xa5b4
    a555:	80 7a 34 00          	cmpb   $0x0,0x34(%edx)
    a559:	75 60                	jne    0xa5bb
    a55b:	83 fb 01             	cmp    $0x1,%ebx
    a55e:	74 23                	je     0xa583
    a560:	83 fb 02             	cmp    $0x2,%ebx
    a563:	74 2c                	je     0xa591
    a565:	85 db                	test   %ebx,%ebx
    a567:	74 07                	je     0xa570
    a569:	b8 ea ff ff ff       	mov    $0xffffffea,%eax
    a56e:	eb 11                	jmp    0xa581
    a570:	83 7c 24 0c 00       	cmpl   $0x0,0xc(%esp)
    a575:	78 4b                	js     0xa5c2
    a577:	8b 5c 24 0c          	mov    0xc(%esp),%ebx
    a57b:	89 58 0c             	mov    %ebx,0xc(%eax)
    a57e:	8b 40 0c             	mov    0xc(%eax),%eax
    a581:	5b                   	pop    %ebx
    a582:	c3                   	ret    
    a583:	8b 54 24 0c          	mov    0xc(%esp),%edx
    a587:	03 50 0c             	add    0xc(%eax),%edx
    a58a:	78 3d                	js     0xa5c9
    a58c:	89 50 0c             	mov    %edx,0xc(%eax)
    a58f:	eb ed                	jmp    0xa57e
    a591:	8b 5c 24 0c          	mov    0xc(%esp),%ebx
    a595:	03 5a 04             	add    0x4(%edx),%ebx
    a598:	78 36                	js     0xa5d0
    a59a:	89 58 0c             	mov    %ebx,0xc(%eax)
    a59d:	eb df                	jmp    0xa57e
    a59f:	b8 f7 ff ff ff       	mov    $0xfffffff7,%eax
    a5a4:	eb db                	jmp    0xa581
    a5a6:	b8 f7 ff ff ff       	mov    $0xfffffff7,%eax
    a5ab:	eb d4                	jmp    0xa581
    a5ad:	b8 f7 ff ff ff       	mov    $0xfffffff7,%eax
    a5b2:	eb cd                	jmp    0xa581
    a5b4:	b8 f7 ff ff ff       	mov    $0xfffffff7,%eax
    a5b9:	eb c6                	jmp    0xa581
    a5bb:	b8 e3 ff ff ff       	mov    $0xffffffe3,%eax
    a5c0:	eb bf                	jmp    0xa581
    a5c2:	b8 ea ff ff ff       	mov    $0xffffffea,%eax
    a5c7:	eb b8                	jmp    0xa581
    a5c9:	b8 ea ff ff ff       	mov    $0xffffffea,%eax
    a5ce:	eb b1                	jmp    0xa581
    a5d0:	b8 ea ff ff ff       	mov    $0xffffffea,%eax
    a5d5:	eb aa                	jmp    0xa581
    a5d7:	57                   	push   %edi
    a5d8:	56                   	push   %esi
    a5d9:	53                   	push   %ebx
    a5da:	8b 44 24 10          	mov    0x10(%esp),%eax
    a5de:	8b 5c 24 18          	mov    0x18(%esp),%ebx
    a5e2:	83 f8 13             	cmp    $0x13,%eax
    a5e5:	0f 87 0c 01 00 00    	ja     0xa6f7
    a5eb:	85 db                	test   %ebx,%ebx
    a5ed:	0f 88 0e 01 00 00    	js     0xa701
    a5f3:	8b 15 00 2d 01 00    	mov    0x12d00,%edx
    a5f9:	8b b4 82 f8 00 00 00 	mov    0xf8(%edx,%eax,4),%esi
    a600:	85 f6                	test   %esi,%esi
    a602:	0f 84 03 01 00 00    	je     0xa70b
    a608:	85 db                	test   %ebx,%ebx
    a60a:	75 06                	jne    0xa612
    a60c:	89 d8                	mov    %ebx,%eax
    a60e:	5b                   	pop    %ebx
    a60f:	5e                   	pop    %esi
    a610:	5f                   	pop    %edi
    a611:	c3                   	ret    
    a612:	83 ec 08             	sub    $0x8,%esp
    a615:	53                   	push   %ebx
    a616:	ff 74 24 20          	pushl  0x20(%esp)
    a61a:	e8 2a ba ff ff       	call   0x6049
    a61f:	8b 46 08             	mov    0x8(%esi),%eax
    a622:	83 c4 10             	add    $0x10,%esp
    a625:	80 78 34 00          	cmpb   $0x0,0x34(%eax)
    a629:	74 1e                	je     0xa649
    a62b:	f6 06 01             	testb  $0x1,(%esi)
    a62e:	0f 84 e1 00 00 00    	je     0xa715
    a634:	83 ec 04             	sub    $0x4,%esp
    a637:	53                   	push   %ebx
    a638:	ff 74 24 1c          	pushl  0x1c(%esp)
    a63c:	50                   	push   %eax
    a63d:	e8 4c 24 00 00       	call   0xca8e
    a642:	89 c3                	mov    %eax,%ebx
    a644:	83 c4 10             	add    $0x10,%esp
    a647:	eb c3                	jmp    0xa60c
    a649:	8b 08                	mov    (%eax),%ecx
    a64b:	89 ca                	mov    %ecx,%edx
    a64d:	81 e2 00 f0 ff ff    	and    $0xfffff000,%edx
    a653:	66 81 fa 00 20       	cmp    $0x2000,%dx
    a658:	74 31                	je     0xa68b
    a65a:	66 81 fa 00 60       	cmp    $0x6000,%dx
    a65f:	74 45                	je     0xa6a6
    a661:	66 81 fa 00 40       	cmp    $0x4000,%dx
    a666:	74 07                	je     0xa66f
    a668:	66 81 fa 00 80       	cmp    $0x8000,%dx
    a66d:	75 6a                	jne    0xa6d9
    a66f:	8b 56 0c             	mov    0xc(%esi),%edx
    a672:	8b 48 04             	mov    0x4(%eax),%ecx
    a675:	8d 3c 1a             	lea    (%edx,%ebx,1),%edi
    a678:	39 cf                	cmp    %ecx,%edi
    a67a:	76 04                	jbe    0xa680
    a67c:	29 d1                	sub    %edx,%ecx
    a67e:	89 cb                	mov    %ecx,%ebx
    a680:	85 db                	test   %ebx,%ebx
    a682:	7f 3f                	jg     0xa6c3
    a684:	bb 00 00 00 00       	mov    $0x0,%ebx
    a689:	eb 81                	jmp    0xa60c
    a68b:	53                   	push   %ebx
    a68c:	ff 74 24 18          	pushl  0x18(%esp)
    a690:	0f b7 40 0e          	movzwl 0xe(%eax),%eax
    a694:	50                   	push   %eax
    a695:	6a 00                	push   $0x0
    a697:	e8 91 15 00 00       	call   0xbc2d
    a69c:	89 c3                	mov    %eax,%ebx
    a69e:	83 c4 10             	add    $0x10,%esp
    a6a1:	e9 66 ff ff ff       	jmp    0xa60c
    a6a6:	53                   	push   %ebx
    a6a7:	ff 74 24 18          	pushl  0x18(%esp)
    a6ab:	83 c6 0c             	add    $0xc,%esi
    a6ae:	56                   	push   %esi
    a6af:	0f b7 40 0e          	movzwl 0xe(%eax),%eax
    a6b3:	50                   	push   %eax
    a6b4:	e8 c5 13 00 00       	call   0xba7e
    a6b9:	89 c3                	mov    %eax,%ebx
    a6bb:	83 c4 10             	add    $0x10,%esp
    a6be:	e9 49 ff ff ff       	jmp    0xa60c
    a6c3:	53                   	push   %ebx
    a6c4:	ff 74 24 18          	pushl  0x18(%esp)
    a6c8:	56                   	push   %esi
    a6c9:	50                   	push   %eax
    a6ca:	e8 c5 15 00 00       	call   0xbc94
    a6cf:	89 c3                	mov    %eax,%ebx
    a6d1:	83 c4 10             	add    $0x10,%esp
    a6d4:	e9 33 ff ff ff       	jmp    0xa60c
    a6d9:	83 ec 08             	sub    $0x8,%esp
    a6dc:	0f b7 c9             	movzwl %cx,%ecx
    a6df:	51                   	push   %ecx
    a6e0:	68 1a f4 00 00       	push   $0xf41a
    a6e5:	e8 c4 bd ff ff       	call   0x64ae
    a6ea:	83 c4 10             	add    $0x10,%esp
    a6ed:	bb ea ff ff ff       	mov    $0xffffffea,%ebx
    a6f2:	e9 15 ff ff ff       	jmp    0xa60c
    a6f7:	bb ea ff ff ff       	mov    $0xffffffea,%ebx
    a6fc:	e9 0b ff ff ff       	jmp    0xa60c
    a701:	bb ea ff ff ff       	mov    $0xffffffea,%ebx
    a706:	e9 01 ff ff ff       	jmp    0xa60c
    a70b:	bb ea ff ff ff       	mov    $0xffffffea,%ebx
    a710:	e9 f7 fe ff ff       	jmp    0xa60c
    a715:	bb ff ff ff ff       	mov    $0xffffffff,%ebx
    a71a:	e9 ed fe ff ff       	jmp    0xa60c
    a71f:	56                   	push   %esi
    a720:	53                   	push   %ebx
    a721:	83 ec 04             	sub    $0x4,%esp
    a724:	8b 54 24 10          	mov    0x10(%esp),%edx
    a728:	8b 44 24 18          	mov    0x18(%esp),%eax
    a72c:	83 fa 13             	cmp    $0x13,%edx
    a72f:	0f 87 c3 00 00 00    	ja     0xa7f8
    a735:	85 c0                	test   %eax,%eax
    a737:	0f 88 c5 00 00 00    	js     0xa802
    a73d:	8b 0d 00 2d 01 00    	mov    0x12d00,%ecx
    a743:	8b 94 91 f8 00 00 00 	mov    0xf8(%ecx,%edx,4),%edx
    a74a:	85 d2                	test   %edx,%edx
    a74c:	0f 84 ba 00 00 00    	je     0xa80c
    a752:	85 c0                	test   %eax,%eax
    a754:	74 23                	je     0xa779
    a756:	8b 4a 08             	mov    0x8(%edx),%ecx
    a759:	80 79 34 00          	cmpb   $0x0,0x34(%ecx)
    a75d:	74 20                	je     0xa77f
    a75f:	f6 02 02             	testb  $0x2,(%edx)
    a762:	0f 84 ae 00 00 00    	je     0xa816
    a768:	83 ec 04             	sub    $0x4,%esp
    a76b:	50                   	push   %eax
    a76c:	ff 74 24 1c          	pushl  0x1c(%esp)
    a770:	51                   	push   %ecx
    a771:	e8 aa 23 00 00       	call   0xcb20
    a776:	83 c4 10             	add    $0x10,%esp
    a779:	83 c4 04             	add    $0x4,%esp
    a77c:	5b                   	pop    %ebx
    a77d:	5e                   	pop    %esi
    a77e:	c3                   	ret    
    a77f:	8b 31                	mov    (%ecx),%esi
    a781:	89 f3                	mov    %esi,%ebx
    a783:	81 e3 00 f0 ff ff    	and    $0xfffff000,%ebx
    a789:	66 81 fb 00 20       	cmp    $0x2000,%bx
    a78e:	74 1f                	je     0xa7af
    a790:	66 81 fb 00 60       	cmp    $0x6000,%bx
    a795:	74 2e                	je     0xa7c5
    a797:	66 81 fb 00 80       	cmp    $0x8000,%bx
    a79c:	75 3f                	jne    0xa7dd
    a79e:	50                   	push   %eax
    a79f:	ff 74 24 18          	pushl  0x18(%esp)
    a7a3:	52                   	push   %edx
    a7a4:	51                   	push   %ecx
    a7a5:	e8 97 16 00 00       	call   0xbe41
    a7aa:	83 c4 10             	add    $0x10,%esp
    a7ad:	eb ca                	jmp    0xa779
    a7af:	50                   	push   %eax
    a7b0:	ff 74 24 18          	pushl  0x18(%esp)
    a7b4:	0f b7 41 0e          	movzwl 0xe(%ecx),%eax
    a7b8:	50                   	push   %eax
    a7b9:	6a 01                	push   $0x1
    a7bb:	e8 6d 14 00 00       	call   0xbc2d
    a7c0:	83 c4 10             	add    $0x10,%esp
    a7c3:	eb b4                	jmp    0xa779
    a7c5:	50                   	push   %eax
    a7c6:	ff 74 24 18          	pushl  0x18(%esp)
    a7ca:	83 c2 0c             	add    $0xc,%edx
    a7cd:	52                   	push   %edx
    a7ce:	0f b7 41 0e          	movzwl 0xe(%ecx),%eax
    a7d2:	50                   	push   %eax
    a7d3:	e8 96 11 00 00       	call   0xb96e
    a7d8:	83 c4 10             	add    $0x10,%esp
    a7db:	eb 9c                	jmp    0xa779
    a7dd:	83 ec 08             	sub    $0x8,%esp
    a7e0:	0f b7 f6             	movzwl %si,%esi
    a7e3:	56                   	push   %esi
    a7e4:	68 35 f4 00 00       	push   $0xf435
    a7e9:	e8 c0 bc ff ff       	call   0x64ae
    a7ee:	83 c4 10             	add    $0x10,%esp
    a7f1:	b8 ea ff ff ff       	mov    $0xffffffea,%eax
    a7f6:	eb 81                	jmp    0xa779
    a7f8:	b8 ea ff ff ff       	mov    $0xffffffea,%eax
    a7fd:	e9 77 ff ff ff       	jmp    0xa779
    a802:	b8 ea ff ff ff       	mov    $0xffffffea,%eax
    a807:	e9 6d ff ff ff       	jmp    0xa779
    a80c:	b8 ea ff ff ff       	mov    $0xffffffea,%eax
    a811:	e9 63 ff ff ff       	jmp    0xa779
    a816:	b8 ff ff ff ff       	mov    $0xffffffff,%eax
    a81b:	e9 59 ff ff ff       	jmp    0xa779
    a820:	55                   	push   %ebp
    a821:	57                   	push   %edi
    a822:	56                   	push   %esi
    a823:	53                   	push   %ebx
    a824:	83 ec 0c             	sub    $0xc,%esp
    a827:	89 c3                	mov    %eax,%ebx
    a829:	fa                   	cli    
    a82a:	80 78 32 00          	cmpb   $0x0,0x32(%eax)
    a82e:	74 15                	je     0xa845
    a830:	8d 70 20             	lea    0x20(%eax),%esi
    a833:	83 ec 0c             	sub    $0xc,%esp
    a836:	56                   	push   %esi
    a837:	e8 24 ae ff ff       	call   0x5660
    a83c:	83 c4 10             	add    $0x10,%esp
    a83f:	80 7b 32 00          	cmpb   $0x0,0x32(%ebx)
    a843:	75 ee                	jne    0xa833
    a845:	c6 43 32 01          	movb   $0x1,0x32(%ebx)
    a849:	fb                   	sti    
    a84a:	8b 53 2c             	mov    0x2c(%ebx),%edx
    a84d:	0f b7 ca             	movzwl %dx,%ecx
    a850:	66 3b 15 14 9b 01 00 	cmp    0x19b14,%dx
    a857:	0f 84 84 00 00 00    	je     0xa8e1
    a85d:	b8 28 9b 01 00       	mov    $0x19b28,%eax
    a862:	66 3b 50 54          	cmp    0x54(%eax),%dx
    a866:	74 0f                	je     0xa877
    a868:	83 c0 68             	add    $0x68,%eax
    a86b:	3d 00 9e 01 00       	cmp    $0x19e00,%eax
    a870:	72 f0                	jb     0xa862
    a872:	b8 00 00 00 00       	mov    $0x0,%eax
    a877:	83 ec 08             	sub    $0x8,%esp
    a87a:	0f b7 50 04          	movzwl 0x4(%eax),%edx
    a87e:	0f b7 40 06          	movzwl 0x6(%eax),%eax
    a882:	8d 54 02 02          	lea    0x2(%edx,%eax,1),%edx
    a886:	0f b7 43 2e          	movzwl 0x2e(%ebx),%eax
    a88a:	48                   	dec    %eax
    a88b:	c1 e8 05             	shr    $0x5,%eax
    a88e:	01 d0                	add    %edx,%eax
    a890:	50                   	push   %eax
    a891:	51                   	push   %ecx
    a892:	e8 9e 0c 00 00       	call   0xb535
    a897:	89 c5                	mov    %eax,%ebp
    a899:	83 c4 10             	add    $0x10,%esp
    a89c:	85 c0                	test   %eax,%eax
    a89e:	74 48                	je     0xa8e8
    a8a0:	0f b7 43 2e          	movzwl 0x2e(%ebx),%eax
    a8a4:	48                   	dec    %eax
    a8a5:	83 e0 1f             	and    $0x1f,%eax
    a8a8:	c1 e0 05             	shl    $0x5,%eax
    a8ab:	03 45 00             	add    0x0(%ebp),%eax
    a8ae:	b9 08 00 00 00       	mov    $0x8,%ecx
    a8b3:	89 c7                	mov    %eax,%edi
    a8b5:	89 de                	mov    %ebx,%esi
    a8b7:	f3 a5                	rep movsl %ds:(%esi),%es:(%edi)
    a8b9:	c6 45 09 01          	movb   $0x1,0x9(%ebp)
    a8bd:	c6 43 33 00          	movb   $0x0,0x33(%ebx)
    a8c1:	83 ec 0c             	sub    $0xc,%esp
    a8c4:	55                   	push   %ebp
    a8c5:	e8 e3 08 00 00       	call   0xb1ad
    a8ca:	c6 43 32 00          	movb   $0x0,0x32(%ebx)
    a8ce:	83 c3 20             	add    $0x20,%ebx
    a8d1:	89 1c 24             	mov    %ebx,(%esp)
    a8d4:	e8 4b ae ff ff       	call   0x5724
    a8d9:	83 c4 1c             	add    $0x1c,%esp
    a8dc:	5b                   	pop    %ebx
    a8dd:	5e                   	pop    %esi
    a8de:	5f                   	pop    %edi
    a8df:	5d                   	pop    %ebp
    a8e0:	c3                   	ret    
    a8e1:	b8 c0 9a 01 00       	mov    $0x19ac0,%eax
    a8e6:	eb 8f                	jmp    0xa877
    a8e8:	83 ec 0c             	sub    $0xc,%esp
    a8eb:	68 51 f4 00 00       	push   $0xf451
    a8f0:	e8 8e bb ff ff       	call   0x6483
    a8f5:	83 c4 10             	add    $0x10,%esp
    a8f8:	eb a6                	jmp    0xa8a0
    a8fa:	55                   	push   %ebp
    a8fb:	57                   	push   %edi
    a8fc:	56                   	push   %esi
    a8fd:	53                   	push   %ebx
    a8fe:	83 ec 1c             	sub    $0x1c,%esp
    a901:	89 c6                	mov    %eax,%esi
    a903:	89 d3                	mov    %edx,%ebx
    a905:	89 cf                	mov    %ecx,%edi
    a907:	85 d2                	test   %edx,%edx
    a909:	78 30                	js     0xa93b
    a90b:	81 fb 06 02 04 00    	cmp    $0x40206,%ebx
    a911:	7f 3a                	jg     0xa94d
    a913:	83 fb 06             	cmp    $0x6,%ebx
    a916:	0f 8f 82 00 00 00    	jg     0xa99e
    a91c:	85 ff                	test   %edi,%edi
    a91e:	74 0c                	je     0xa92c
    a920:	8d 3c 1b             	lea    (%ebx,%ebx,1),%edi
    a923:	01 f7                	add    %esi,%edi
    a925:	66 83 7f 0e 00       	cmpw   $0x0,0xe(%edi)
    a92a:	74 33                	je     0xa95f
    a92c:	0f b7 5c 5e 0e       	movzwl 0xe(%esi,%ebx,2),%ebx
    a931:	89 d8                	mov    %ebx,%eax
    a933:	83 c4 1c             	add    $0x1c,%esp
    a936:	5b                   	pop    %ebx
    a937:	5e                   	pop    %esi
    a938:	5f                   	pop    %edi
    a939:	5d                   	pop    %ebp
    a93a:	c3                   	ret    
    a93b:	83 ec 0c             	sub    $0xc,%esp
    a93e:	68 6d f4 00 00       	push   $0xf46d
    a943:	e8 3b bb ff ff       	call   0x6483
    a948:	83 c4 10             	add    $0x10,%esp
    a94b:	eb be                	jmp    0xa90b
    a94d:	83 ec 0c             	sub    $0xc,%esp
    a950:	68 7c f4 00 00       	push   $0xf47c
    a955:	e8 29 bb ff ff       	call   0x6483
    a95a:	83 c4 10             	add    $0x10,%esp
    a95d:	eb b4                	jmp    0xa913
    a95f:	83 ec 0c             	sub    $0xc,%esp
    a962:	0f b7 46 2c          	movzwl 0x2c(%esi),%eax
    a966:	50                   	push   %eax
    a967:	e8 3e 38 00 00       	call   0xe1aa
    a96c:	66 89 47 0e          	mov    %ax,0xe(%edi)
    a970:	83 c4 10             	add    $0x10,%esp
    a973:	66 85 c0             	test   %ax,%ax
    a976:	74 b4                	je     0xa92c
    a978:	8b 0d 08 69 01 00    	mov    0x16908,%ecx
    a97e:	b8 1f 85 eb 51       	mov    $0x51eb851f,%eax
    a983:	f7 e9                	imul   %ecx
    a985:	89 d0                	mov    %edx,%eax
    a987:	c1 f8 05             	sar    $0x5,%eax
    a98a:	c1 f9 1f             	sar    $0x1f,%ecx
    a98d:	29 c8                	sub    %ecx,%eax
    a98f:	03 05 04 69 01 00    	add    0x16904,%eax
    a995:	89 46 28             	mov    %eax,0x28(%esi)
    a998:	c6 46 33 01          	movb   $0x1,0x33(%esi)
    a99c:	eb 8e                	jmp    0xa92c
    a99e:	8d 6b f9             	lea    -0x7(%ebx),%ebp
    a9a1:	81 fd ff 01 00 00    	cmp    $0x1ff,%ebp
    a9a7:	0f 8f b9 00 00 00    	jg     0xaa66
    a9ad:	85 ff                	test   %edi,%edi
    a9af:	74 75                	je     0xaa26
    a9b1:	66 83 7e 1c 00       	cmpw   $0x0,0x1c(%esi)
    a9b6:	74 2b                	je     0xa9e3
    a9b8:	83 ec 08             	sub    $0x8,%esp
    a9bb:	0f b7 46 1c          	movzwl 0x1c(%esi),%eax
    a9bf:	50                   	push   %eax
    a9c0:	0f b7 46 2c          	movzwl 0x2c(%esi),%eax
    a9c4:	50                   	push   %eax
    a9c5:	e8 6b 0b 00 00       	call   0xb535
    a9ca:	89 44 24 18          	mov    %eax,0x18(%esp)
    a9ce:	83 c4 10             	add    $0x10,%esp
    a9d1:	85 c0                	test   %eax,%eax
    a9d3:	0f 85 5e 02 00 00    	jne    0xac37
    a9d9:	bb 00 00 00 00       	mov    $0x0,%ebx
    a9de:	e9 4e ff ff ff       	jmp    0xa931
    a9e3:	83 ec 0c             	sub    $0xc,%esp
    a9e6:	0f b7 46 2c          	movzwl 0x2c(%esi),%eax
    a9ea:	50                   	push   %eax
    a9eb:	e8 ba 37 00 00       	call   0xe1aa
    a9f0:	66 89 46 1c          	mov    %ax,0x1c(%esi)
    a9f4:	83 c4 10             	add    $0x10,%esp
    a9f7:	66 85 c0             	test   %ax,%ax
    a9fa:	0f 84 d9 01 00 00    	je     0xabd9
    aa00:	c6 46 33 01          	movb   $0x1,0x33(%esi)
    aa04:	8b 0d 08 69 01 00    	mov    0x16908,%ecx
    aa0a:	b8 1f 85 eb 51       	mov    $0x51eb851f,%eax
    aa0f:	f7 e9                	imul   %ecx
    aa11:	89 d0                	mov    %edx,%eax
    aa13:	c1 f8 05             	sar    $0x5,%eax
    aa16:	c1 f9 1f             	sar    $0x1f,%ecx
    aa19:	29 c8                	sub    %ecx,%eax
    aa1b:	03 05 04 69 01 00    	add    0x16904,%eax
    aa21:	89 46 28             	mov    %eax,0x28(%esi)
    aa24:	eb 92                	jmp    0xa9b8
    aa26:	8b 46 1c             	mov    0x1c(%esi),%eax
    aa29:	66 85 c0             	test   %ax,%ax
    aa2c:	0f 85 e2 01 00 00    	jne    0xac14
    aa32:	89 fb                	mov    %edi,%ebx
    aa34:	e9 f8 fe ff ff       	jmp    0xa931
    aa39:	83 ec 0c             	sub    $0xc,%esp
    aa3c:	0f b7 46 2c          	movzwl 0x2c(%esi),%eax
    aa40:	50                   	push   %eax
    aa41:	e8 64 37 00 00       	call   0xe1aa
    aa46:	89 c3                	mov    %eax,%ebx
    aa48:	83 c4 10             	add    $0x10,%esp
    aa4b:	85 c0                	test   %eax,%eax
    aa4d:	0f 84 f8 01 00 00    	je     0xac4b
    aa53:	8b 54 24 08          	mov    0x8(%esp),%edx
    aa57:	8b 02                	mov    (%edx),%eax
    aa59:	66 89 1c 28          	mov    %bx,(%eax,%ebp,1)
    aa5d:	c6 42 09 01          	movb   $0x1,0x9(%edx)
    aa61:	e9 e5 01 00 00       	jmp    0xac4b
    aa66:	85 ff                	test   %edi,%edi
    aa68:	0f 84 c9 00 00 00    	je     0xab37
    aa6e:	66 83 7e 1e 00       	cmpw   $0x0,0x1e(%esi)
    aa73:	74 7c                	je     0xaaf1
    aa75:	66 8b 46 1e          	mov    0x1e(%esi),%ax
    aa79:	83 ec 08             	sub    $0x8,%esp
    aa7c:	0f b7 c0             	movzwl %ax,%eax
    aa7f:	50                   	push   %eax
    aa80:	0f b7 46 2c          	movzwl 0x2c(%esi),%eax
    aa84:	50                   	push   %eax
    aa85:	e8 ab 0a 00 00       	call   0xb535
    aa8a:	89 c5                	mov    %eax,%ebp
    aa8c:	83 c4 10             	add    $0x10,%esp
    aa8f:	85 c0                	test   %eax,%eax
    aa91:	0f 84 56 01 00 00    	je     0xabed
    aa97:	8d 83 f9 fd ff ff    	lea    -0x207(%ebx),%eax
    aa9d:	89 44 24 08          	mov    %eax,0x8(%esp)
    aaa1:	c1 f8 09             	sar    $0x9,%eax
    aaa4:	01 c0                	add    %eax,%eax
    aaa6:	89 c2                	mov    %eax,%edx
    aaa8:	89 44 24 0c          	mov    %eax,0xc(%esp)
    aaac:	8b 45 00             	mov    0x0(%ebp),%eax
    aaaf:	0f b7 1c 10          	movzwl (%eax,%edx,1),%ebx
    aab3:	85 ff                	test   %edi,%edi
    aab5:	0f 84 be 00 00 00    	je     0xab79
    aabb:	85 db                	test   %ebx,%ebx
    aabd:	0f 84 88 00 00 00    	je     0xab4b
    aac3:	83 ec 0c             	sub    $0xc,%esp
    aac6:	55                   	push   %ebp
    aac7:	e8 e1 06 00 00       	call   0xb1ad
    aacc:	83 c4 08             	add    $0x8,%esp
    aacf:	53                   	push   %ebx
    aad0:	0f b7 46 2c          	movzwl 0x2c(%esi),%eax
    aad4:	50                   	push   %eax
    aad5:	e8 5b 0a 00 00       	call   0xb535
    aada:	89 c5                	mov    %eax,%ebp
    aadc:	83 c4 10             	add    $0x10,%esp
    aadf:	85 c0                	test   %eax,%eax
    aae1:	0f 85 78 01 00 00    	jne    0xac5f
    aae7:	bb 00 00 00 00       	mov    $0x0,%ebx
    aaec:	e9 40 fe ff ff       	jmp    0xa931
    aaf1:	83 ec 0c             	sub    $0xc,%esp
    aaf4:	0f b7 46 2c          	movzwl 0x2c(%esi),%eax
    aaf8:	50                   	push   %eax
    aaf9:	e8 ac 36 00 00       	call   0xe1aa
    aafe:	66 89 46 1e          	mov    %ax,0x1e(%esi)
    ab02:	83 c4 10             	add    $0x10,%esp
    ab05:	66 85 c0             	test   %ax,%ax
    ab08:	0f 84 d5 00 00 00    	je     0xabe3
    ab0e:	c6 46 33 01          	movb   $0x1,0x33(%esi)
    ab12:	8b 0d 08 69 01 00    	mov    0x16908,%ecx
    ab18:	b8 1f 85 eb 51       	mov    $0x51eb851f,%eax
    ab1d:	f7 e9                	imul   %ecx
    ab1f:	89 d0                	mov    %edx,%eax
    ab21:	c1 f8 05             	sar    $0x5,%eax
    ab24:	c1 f9 1f             	sar    $0x1f,%ecx
    ab27:	29 c8                	sub    %ecx,%eax
    ab29:	03 05 04 69 01 00    	add    0x16904,%eax
    ab2f:	89 46 28             	mov    %eax,0x28(%esi)
    ab32:	e9 3e ff ff ff       	jmp    0xaa75
    ab37:	66 8b 46 1e          	mov    0x1e(%esi),%ax
    ab3b:	66 85 c0             	test   %ax,%ax
    ab3e:	0f 85 35 ff ff ff    	jne    0xaa79
    ab44:	89 fb                	mov    %edi,%ebx
    ab46:	e9 e6 fd ff ff       	jmp    0xa931
    ab4b:	83 ec 0c             	sub    $0xc,%esp
    ab4e:	0f b7 46 2c          	movzwl 0x2c(%esi),%eax
    ab52:	50                   	push   %eax
    ab53:	e8 52 36 00 00       	call   0xe1aa
    ab58:	89 c3                	mov    %eax,%ebx
    ab5a:	83 c4 10             	add    $0x10,%esp
    ab5d:	85 c0                	test   %eax,%eax
    ab5f:	0f 84 92 00 00 00    	je     0xabf7
    ab65:	8b 45 00             	mov    0x0(%ebp),%eax
    ab68:	8b 54 24 0c          	mov    0xc(%esp),%edx
    ab6c:	66 89 1c 10          	mov    %bx,(%eax,%edx,1)
    ab70:	c6 45 09 01          	movb   $0x1,0x9(%ebp)
    ab74:	e9 4a ff ff ff       	jmp    0xaac3
    ab79:	83 ec 0c             	sub    $0xc,%esp
    ab7c:	55                   	push   %ebp
    ab7d:	e8 2b 06 00 00       	call   0xb1ad
    ab82:	83 c4 10             	add    $0x10,%esp
    ab85:	85 db                	test   %ebx,%ebx
    ab87:	0f 84 a4 fd ff ff    	je     0xa931
    ab8d:	83 ec 08             	sub    $0x8,%esp
    ab90:	53                   	push   %ebx
    ab91:	0f b7 46 2c          	movzwl 0x2c(%esi),%eax
    ab95:	50                   	push   %eax
    ab96:	e8 9a 09 00 00       	call   0xb535
    ab9b:	89 c5                	mov    %eax,%ebp
    ab9d:	83 c4 10             	add    $0x10,%esp
    aba0:	85 c0                	test   %eax,%eax
    aba2:	0f 85 e3 00 00 00    	jne    0xac8b
    aba8:	89 fb                	mov    %edi,%ebx
    abaa:	e9 82 fd ff ff       	jmp    0xa931
    abaf:	83 ec 0c             	sub    $0xc,%esp
    abb2:	0f b7 46 2c          	movzwl 0x2c(%esi),%eax
    abb6:	50                   	push   %eax
    abb7:	e8 ee 35 00 00       	call   0xe1aa
    abbc:	89 c3                	mov    %eax,%ebx
    abbe:	83 c4 10             	add    $0x10,%esp
    abc1:	85 c0                	test   %eax,%eax
    abc3:	0f 84 b1 00 00 00    	je     0xac7a
    abc9:	8b 45 00             	mov    0x0(%ebp),%eax
    abcc:	66 89 1c 38          	mov    %bx,(%eax,%edi,1)
    abd0:	c6 45 09 01          	movb   $0x1,0x9(%ebp)
    abd4:	e9 a1 00 00 00       	jmp    0xac7a
    abd9:	bb 00 00 00 00       	mov    $0x0,%ebx
    abde:	e9 4e fd ff ff       	jmp    0xa931
    abe3:	bb 00 00 00 00       	mov    $0x0,%ebx
    abe8:	e9 44 fd ff ff       	jmp    0xa931
    abed:	bb 00 00 00 00       	mov    $0x0,%ebx
    abf2:	e9 3a fd ff ff       	jmp    0xa931
    abf7:	83 ec 0c             	sub    $0xc,%esp
    abfa:	55                   	push   %ebp
    abfb:	e8 ad 05 00 00       	call   0xb1ad
    ac00:	83 c4 10             	add    $0x10,%esp
    ac03:	e9 29 fd ff ff       	jmp    0xa931
    ac08:	8b 44 24 08          	mov    0x8(%esp),%eax
    ac0c:	8b 00                	mov    (%eax),%eax
    ac0e:	0f b7 1c 68          	movzwl (%eax,%ebp,2),%ebx
    ac12:	eb 37                	jmp    0xac4b
    ac14:	83 ec 08             	sub    $0x8,%esp
    ac17:	0f b7 c0             	movzwl %ax,%eax
    ac1a:	50                   	push   %eax
    ac1b:	0f b7 46 2c          	movzwl 0x2c(%esi),%eax
    ac1f:	50                   	push   %eax
    ac20:	e8 10 09 00 00       	call   0xb535
    ac25:	89 44 24 18          	mov    %eax,0x18(%esp)
    ac29:	83 c4 10             	add    $0x10,%esp
    ac2c:	85 c0                	test   %eax,%eax
    ac2e:	75 d8                	jne    0xac08
    ac30:	89 fb                	mov    %edi,%ebx
    ac32:	e9 fa fc ff ff       	jmp    0xa931
    ac37:	01 ed                	add    %ebp,%ebp
    ac39:	8b 44 24 08          	mov    0x8(%esp),%eax
    ac3d:	8b 00                	mov    (%eax),%eax
    ac3f:	0f b7 1c 28          	movzwl (%eax,%ebp,1),%ebx
    ac43:	85 db                	test   %ebx,%ebx
    ac45:	0f 84 ee fd ff ff    	je     0xaa39
    ac4b:	83 ec 0c             	sub    $0xc,%esp
    ac4e:	ff 74 24 14          	pushl  0x14(%esp)
    ac52:	e8 56 05 00 00       	call   0xb1ad
    ac57:	83 c4 10             	add    $0x10,%esp
    ac5a:	e9 d2 fc ff ff       	jmp    0xa931
    ac5f:	8b 5c 24 08          	mov    0x8(%esp),%ebx
    ac63:	81 e3 ff 01 00 00    	and    $0x1ff,%ebx
    ac69:	8d 3c 1b             	lea    (%ebx,%ebx,1),%edi
    ac6c:	8b 00                	mov    (%eax),%eax
    ac6e:	0f b7 1c 38          	movzwl (%eax,%edi,1),%ebx
    ac72:	85 db                	test   %ebx,%ebx
    ac74:	0f 84 35 ff ff ff    	je     0xabaf
    ac7a:	83 ec 0c             	sub    $0xc,%esp
    ac7d:	55                   	push   %ebp
    ac7e:	e8 2a 05 00 00       	call   0xb1ad
    ac83:	83 c4 10             	add    $0x10,%esp
    ac86:	e9 a6 fc ff ff       	jmp    0xa931
    ac8b:	8b 5c 24 08          	mov    0x8(%esp),%ebx
    ac8f:	81 e3 ff 01 00 00    	and    $0x1ff,%ebx
    ac95:	8b 45 00             	mov    0x0(%ebp),%eax
    ac98:	0f b7 1c 58          	movzwl (%eax,%ebx,2),%ebx
    ac9c:	eb dc                	jmp    0xac7a
    ac9e:	55                   	push   %ebp
    ac9f:	57                   	push   %edi
    aca0:	56                   	push   %esi
    aca1:	53                   	push   %ebx
    aca2:	83 ec 0c             	sub    $0xc,%esp
    aca5:	be e0 7e 01 00       	mov    $0x17ee0,%esi
    acaa:	bd e0 85 01 00       	mov    $0x185e0,%ebp
    acaf:	eb 07                	jmp    0xacb8
    acb1:	83 c6 38             	add    $0x38,%esi
    acb4:	39 ee                	cmp    %ebp,%esi
    acb6:	74 34                	je     0xacec
    acb8:	8d 7e e0             	lea    -0x20(%esi),%edi
    acbb:	fa                   	cli    
    acbc:	89 f3                	mov    %esi,%ebx
    acbe:	80 7e 12 00          	cmpb   $0x0,0x12(%esi)
    acc2:	74 12                	je     0xacd6
    acc4:	83 ec 0c             	sub    $0xc,%esp
    acc7:	53                   	push   %ebx
    acc8:	e8 93 a9 ff ff       	call   0x5660
    accd:	83 c4 10             	add    $0x10,%esp
    acd0:	80 7b 12 00          	cmpb   $0x0,0x12(%ebx)
    acd4:	75 ee                	jne    0xacc4
    acd6:	fb                   	sti    
    acd7:	80 7b 13 00          	cmpb   $0x0,0x13(%ebx)
    acdb:	74 d4                	je     0xacb1
    acdd:	80 7b 14 00          	cmpb   $0x0,0x14(%ebx)
    ace1:	75 ce                	jne    0xacb1
    ace3:	89 f8                	mov    %edi,%eax
    ace5:	e8 36 fb ff ff       	call   0xa820
    acea:	eb c5                	jmp    0xacb1
    acec:	83 c4 0c             	add    $0xc,%esp
    acef:	5b                   	pop    %ebx
    acf0:	5e                   	pop    %esi
    acf1:	5f                   	pop    %edi
    acf2:	5d                   	pop    %ebp
    acf3:	c3                   	ret    
    acf4:	83 ec 0c             	sub    $0xc,%esp
    acf7:	b9 00 00 00 00       	mov    $0x0,%ecx
    acfc:	8b 54 24 14          	mov    0x14(%esp),%edx
    ad00:	8b 44 24 10          	mov    0x10(%esp),%eax
    ad04:	e8 f1 fb ff ff       	call   0xa8fa
    ad09:	83 c4 0c             	add    $0xc,%esp
    ad0c:	c3                   	ret    
    ad0d:	83 ec 0c             	sub    $0xc,%esp
    ad10:	b9 01 00 00 00       	mov    $0x1,%ecx
    ad15:	8b 54 24 14          	mov    0x14(%esp),%edx
    ad19:	8b 44 24 10          	mov    0x10(%esp),%eax
    ad1d:	e8 d8 fb ff ff       	call   0xa8fa
    ad22:	83 c4 0c             	add    $0xc,%esp
    ad25:	c3                   	ret    
    ad26:	56                   	push   %esi
    ad27:	53                   	push   %ebx
    ad28:	83 ec 04             	sub    $0x4,%esp
    ad2b:	8b 5c 24 10          	mov    0x10(%esp),%ebx
    ad2f:	85 db                	test   %ebx,%ebx
    ad31:	74 3c                	je     0xad6f
    ad33:	fa                   	cli    
    ad34:	80 7b 32 00          	cmpb   $0x0,0x32(%ebx)
    ad38:	74 15                	je     0xad4f
    ad3a:	8d 73 20             	lea    0x20(%ebx),%esi
    ad3d:	83 ec 0c             	sub    $0xc,%esp
    ad40:	56                   	push   %esi
    ad41:	e8 1a a9 ff ff       	call   0x5660
    ad46:	83 c4 10             	add    $0x10,%esp
    ad49:	80 7b 32 00          	cmpb   $0x0,0x32(%ebx)
    ad4d:	75 ee                	jne    0xad3d
    ad4f:	fb                   	sti    
    ad50:	66 83 7b 30 00       	cmpw   $0x0,0x30(%ebx)
    ad55:	74 1e                	je     0xad75
    ad57:	80 7b 34 00          	cmpb   $0x0,0x34(%ebx)
    ad5b:	75 2a                	jne    0xad87
    ad5d:	66 83 7b 2c 00       	cmpw   $0x0,0x2c(%ebx)
    ad62:	74 07                	je     0xad6b
    ad64:	66 83 7b 30 01       	cmpw   $0x1,0x30(%ebx)
    ad69:	76 56                	jbe    0xadc1
    ad6b:	66 ff 4b 30          	decw   0x30(%ebx)
    ad6f:	83 c4 04             	add    $0x4,%esp
    ad72:	5b                   	pop    %ebx
    ad73:	5e                   	pop    %esi
    ad74:	c3                   	ret    
    ad75:	83 ec 0c             	sub    $0xc,%esp
    ad78:	68 04 fa 00 00       	push   $0xfa04
    ad7d:	e8 01 b7 ff ff       	call   0x6483
    ad82:	83 c4 10             	add    $0x10,%esp
    ad85:	eb d0                	jmp    0xad57
    ad87:	83 ec 0c             	sub    $0xc,%esp
    ad8a:	8d 43 20             	lea    0x20(%ebx),%eax
    ad8d:	50                   	push   %eax
    ad8e:	e8 91 a9 ff ff       	call   0x5724
    ad93:	8b 43 30             	mov    0x30(%ebx),%eax
    ad96:	48                   	dec    %eax
    ad97:	66 89 43 30          	mov    %ax,0x30(%ebx)
    ad9b:	83 c4 10             	add    $0x10,%esp
    ad9e:	66 85 c0             	test   %ax,%ax
    ada1:	75 cc                	jne    0xad6f
    ada3:	83 ec 0c             	sub    $0xc,%esp
    ada6:	ff 73 04             	pushl  0x4(%ebx)
    ada9:	e8 55 ed ff ff       	call   0x9b03
    adae:	66 c7 43 30 00 00    	movw   $0x0,0x30(%ebx)
    adb4:	c6 43 33 00          	movb   $0x0,0x33(%ebx)
    adb8:	c6 43 34 00          	movb   $0x0,0x34(%ebx)
    adbc:	83 c4 10             	add    $0x10,%esp
    adbf:	eb ae                	jmp    0xad6f
    adc1:	80 7b 0d 00          	cmpb   $0x0,0xd(%ebx)
    adc5:	74 0f                	je     0xadd6
    adc7:	8d 73 20             	lea    0x20(%ebx),%esi
    adca:	80 7b 33 00          	cmpb   $0x0,0x33(%ebx)
    adce:	75 29                	jne    0xadf9
    add0:	66 ff 4b 30          	decw   0x30(%ebx)
    add4:	eb 99                	jmp    0xad6f
    add6:	83 ec 0c             	sub    $0xc,%esp
    add9:	53                   	push   %ebx
    adda:	e8 8e 3c 00 00       	call   0xea6d
    addf:	89 1c 24             	mov    %ebx,(%esp)
    ade2:	e8 24 35 00 00       	call   0xe30b
    ade7:	83 c4 10             	add    $0x10,%esp
    adea:	eb 83                	jmp    0xad6f
    adec:	fb                   	sti    
    aded:	80 7b 0d 00          	cmpb   $0x0,0xd(%ebx)
    adf1:	74 e3                	je     0xadd6
    adf3:	80 7b 33 00          	cmpb   $0x0,0x33(%ebx)
    adf7:	74 d7                	je     0xadd0
    adf9:	89 d8                	mov    %ebx,%eax
    adfb:	e8 20 fa ff ff       	call   0xa820
    ae00:	fa                   	cli    
    ae01:	80 7b 32 00          	cmpb   $0x0,0x32(%ebx)
    ae05:	74 e5                	je     0xadec
    ae07:	83 ec 0c             	sub    $0xc,%esp
    ae0a:	56                   	push   %esi
    ae0b:	e8 50 a8 ff ff       	call   0x5660
    ae10:	83 c4 10             	add    $0x10,%esp
    ae13:	80 7b 32 00          	cmpb   $0x0,0x32(%ebx)
    ae17:	75 ee                	jne    0xae07
    ae19:	eb d1                	jmp    0xadec
    ae1b:	55                   	push   %ebp
    ae1c:	57                   	push   %edi
    ae1d:	56                   	push   %esi
    ae1e:	53                   	push   %ebx
    ae1f:	83 ec 0c             	sub    $0xc,%esp
    ae22:	bb ec 85 01 00       	mov    $0x185ec,%ebx
    ae27:	be 00 00 00 00       	mov    $0x0,%esi
    ae2c:	eb 72                	jmp    0xaea0
    ae2e:	8d 04 12             	lea    (%edx,%edx,1),%eax
    ae31:	01 d0                	add    %edx,%eax
    ae33:	01 c0                	add    %eax,%eax
    ae35:	01 d0                	add    %edx,%eax
    ae37:	8d 3c c5 c0 7e 01 00 	lea    0x17ec0(,%eax,8),%edi
    ae3e:	85 ff                	test   %edi,%edi
    ae40:	0f 84 90 00 00 00    	je     0xaed6
    ae46:	89 15 c0 85 01 00    	mov    %edx,0x185c0
    ae4c:	fa                   	cli    
    ae4d:	80 7f 32 00          	cmpb   $0x0,0x32(%edi)
    ae51:	74 15                	je     0xae68
    ae53:	8d 6f 20             	lea    0x20(%edi),%ebp
    ae56:	83 ec 0c             	sub    $0xc,%esp
    ae59:	55                   	push   %ebp
    ae5a:	e8 01 a8 ff ff       	call   0x5660
    ae5f:	83 c4 10             	add    $0x10,%esp
    ae62:	80 7f 32 00          	cmpb   $0x0,0x32(%edi)
    ae66:	75 ee                	jne    0xae56
    ae68:	fb                   	sti    
    ae69:	80 7f 33 00          	cmpb   $0x0,0x33(%edi)
    ae6d:	74 2a                	je     0xae99
    ae6f:	8d 6f 20             	lea    0x20(%edi),%ebp
    ae72:	89 f8                	mov    %edi,%eax
    ae74:	e8 a7 f9 ff ff       	call   0xa820
    ae79:	fa                   	cli    
    ae7a:	80 7f 32 00          	cmpb   $0x0,0x32(%edi)
    ae7e:	74 12                	je     0xae92
    ae80:	83 ec 0c             	sub    $0xc,%esp
    ae83:	55                   	push   %ebp
    ae84:	e8 d7 a7 ff ff       	call   0x5660
    ae89:	83 c4 10             	add    $0x10,%esp
    ae8c:	80 7f 32 00          	cmpb   $0x0,0x32(%edi)
    ae90:	75 ee                	jne    0xae80
    ae92:	fb                   	sti    
    ae93:	80 7f 33 00          	cmpb   $0x0,0x33(%edi)
    ae97:	75 d9                	jne    0xae72
    ae99:	66 83 7f 30 00       	cmpw   $0x0,0x30(%edi)
    ae9e:	74 77                	je     0xaf17
    aea0:	8b 15 c0 85 01 00    	mov    0x185c0,%edx
    aea6:	eb 09                	jmp    0xaeb1
    aea8:	a1 c0 85 01 00       	mov    0x185c0,%eax
    aead:	39 d0                	cmp    %edx,%eax
    aeaf:	74 25                	je     0xaed6
    aeb1:	8d 04 12             	lea    (%edx,%edx,1),%eax
    aeb4:	01 d0                	add    %edx,%eax
    aeb6:	01 c0                	add    %eax,%eax
    aeb8:	01 d0                	add    %edx,%eax
    aeba:	66 83 3c c5 f0 7e 01 	cmpw   $0x0,0x17ef0(,%eax,8)
    aec1:	00 00 
    aec3:	0f 84 65 ff ff ff    	je     0xae2e
    aec9:	42                   	inc    %edx
    aeca:	83 fa 1f             	cmp    $0x1f,%edx
    aecd:	7e d9                	jle    0xaea8
    aecf:	ba 00 00 00 00       	mov    $0x0,%edx
    aed4:	eb d2                	jmp    0xaea8
    aed6:	bf ec 7e 01 00       	mov    $0x17eec,%edi
    aedb:	83 ec 04             	sub    $0x4,%esp
    aede:	0f b7 47 02          	movzwl 0x2(%edi),%eax
    aee2:	50                   	push   %eax
    aee3:	0f b7 07             	movzwl (%edi),%eax
    aee6:	50                   	push   %eax
    aee7:	68 8d f4 00 00       	push   $0xf48d
    aeec:	e8 bd b5 ff ff       	call   0x64ae
    aef1:	83 c7 38             	add    $0x38,%edi
    aef4:	83 c4 10             	add    $0x10,%esp
    aef7:	39 fb                	cmp    %edi,%ebx
    aef9:	75 e0                	jne    0xaedb
    aefb:	83 ec 0c             	sub    $0xc,%esp
    aefe:	68 98 f4 00 00       	push   $0xf498
    af03:	e8 7b b5 ff ff       	call   0x6483
    af08:	83 c4 10             	add    $0x10,%esp
    af0b:	89 f7                	mov    %esi,%edi
    af0d:	ba 20 00 00 00       	mov    $0x20,%edx
    af12:	e9 2f ff ff ff       	jmp    0xae46
    af17:	b0 00                	mov    $0x0,%al
    af19:	b9 38 00 00 00       	mov    $0x38,%ecx
    af1e:	fc                   	cld    
    af1f:	f3 aa                	rep stos %al,%es:(%edi)
    af21:	66 c7 47 30 01 00    	movw   $0x1,0x30(%edi)
    af27:	89 f8                	mov    %edi,%eax
    af29:	83 c4 0c             	add    $0xc,%esp
    af2c:	5b                   	pop    %ebx
    af2d:	5e                   	pop    %esi
    af2e:	5f                   	pop    %edi
    af2f:	5d                   	pop    %ebp
    af30:	c3                   	ret    
    af31:	53                   	push   %ebx
    af32:	83 ec 08             	sub    $0x8,%esp
    af35:	e8 e1 fe ff ff       	call   0xae1b
    af3a:	89 c3                	mov    %eax,%ebx
    af3c:	85 c0                	test   %eax,%eax
    af3e:	74 24                	je     0xaf64
    af40:	e8 86 eb ff ff       	call   0x9acb
    af45:	89 43 04             	mov    %eax,0x4(%ebx)
    af48:	85 c0                	test   %eax,%eax
    af4a:	74 1f                	je     0xaf6b
    af4c:	66 c7 43 30 02 00    	movw   $0x2,0x30(%ebx)
    af52:	c7 43 12 00 00 00 00 	movl   $0x0,0x12(%ebx)
    af59:	c7 43 0e 00 00 00 00 	movl   $0x0,0xe(%ebx)
    af60:	c6 43 34 01          	movb   $0x1,0x34(%ebx)
    af64:	89 d8                	mov    %ebx,%eax
    af66:	83 c4 08             	add    $0x8,%esp
    af69:	5b                   	pop    %ebx
    af6a:	c3                   	ret    
    af6b:	66 c7 43 30 00 00    	movw   $0x0,0x30(%ebx)
    af71:	bb 00 00 00 00       	mov    $0x0,%ebx
    af76:	eb ec                	jmp    0xaf64
    af78:	55                   	push   %ebp
    af79:	57                   	push   %edi
    af7a:	56                   	push   %esi
    af7b:	53                   	push   %ebx
    af7c:	83 ec 0c             	sub    $0xc,%esp
    af7f:	8b 74 24 20          	mov    0x20(%esp),%esi
    af83:	85 f6                	test   %esi,%esi
    af85:	74 0e                	je     0xaf95
    af87:	e8 8f fe ff ff       	call   0xae1b
    af8c:	89 c5                	mov    %eax,%ebp
    af8e:	bb c0 7e 01 00       	mov    $0x17ec0,%ebx
    af93:	eb 2b                	jmp    0xafc0
    af95:	83 ec 0c             	sub    $0xc,%esp
    af98:	68 ae f4 00 00       	push   $0xf4ae
    af9d:	e8 e1 b4 ff ff       	call   0x6483
    afa2:	83 c4 10             	add    $0x10,%esp
    afa5:	eb e0                	jmp    0xaf87
    afa7:	bb c0 7e 01 00       	mov    $0x17ec0,%ebx
    afac:	eb 12                	jmp    0xafc0
    afae:	bb c0 7e 01 00       	mov    $0x17ec0,%ebx
    afb3:	eb 0b                	jmp    0xafc0
    afb5:	83 c3 38             	add    $0x38,%ebx
    afb8:	81 fb c0 85 01 00    	cmp    $0x185c0,%ebx
    afbe:	73 60                	jae    0xb020
    afc0:	0f b7 43 2c          	movzwl 0x2c(%ebx),%eax
    afc4:	39 f0                	cmp    %esi,%eax
    afc6:	75 ed                	jne    0xafb5
    afc8:	0f b7 43 2e          	movzwl 0x2e(%ebx),%eax
    afcc:	3b 44 24 24          	cmp    0x24(%esp),%eax
    afd0:	75 e3                	jne    0xafb5
    afd2:	fa                   	cli    
    afd3:	80 7b 32 00          	cmpb   $0x0,0x32(%ebx)
    afd7:	74 15                	je     0xafee
    afd9:	8d 7b 20             	lea    0x20(%ebx),%edi
    afdc:	83 ec 0c             	sub    $0xc,%esp
    afdf:	57                   	push   %edi
    afe0:	e8 7b a6 ff ff       	call   0x5660
    afe5:	83 c4 10             	add    $0x10,%esp
    afe8:	80 7b 32 00          	cmpb   $0x0,0x32(%ebx)
    afec:	75 ee                	jne    0xafdc
    afee:	fb                   	sti    
    afef:	0f b7 43 2c          	movzwl 0x2c(%ebx),%eax
    aff3:	39 f0                	cmp    %esi,%eax
    aff5:	75 b0                	jne    0xafa7
    aff7:	0f b7 43 2e          	movzwl 0x2e(%ebx),%eax
    affb:	3b 44 24 24          	cmp    0x24(%esp),%eax
    afff:	75 ad                	jne    0xafae
    b001:	66 ff 43 30          	incw   0x30(%ebx)
    b005:	85 ed                	test   %ebp,%ebp
    b007:	0f 84 ee 00 00 00    	je     0xb0fb
    b00d:	83 ec 0c             	sub    $0xc,%esp
    b010:	55                   	push   %ebp
    b011:	e8 10 fd ff ff       	call   0xad26
    b016:	83 c4 10             	add    $0x10,%esp
    b019:	89 dd                	mov    %ebx,%ebp
    b01b:	e9 b8 00 00 00       	jmp    0xb0d8
    b020:	85 ed                	test   %ebp,%ebp
    b022:	0f 84 b0 00 00 00    	je     0xb0d8
    b028:	66 89 75 2c          	mov    %si,0x2c(%ebp)
    b02c:	8b 44 24 24          	mov    0x24(%esp),%eax
    b030:	66 89 45 2e          	mov    %ax,0x2e(%ebp)
    b034:	fa                   	cli    
    b035:	80 7d 32 00          	cmpb   $0x0,0x32(%ebp)
    b039:	74 15                	je     0xb050
    b03b:	8d 5d 20             	lea    0x20(%ebp),%ebx
    b03e:	83 ec 0c             	sub    $0xc,%esp
    b041:	53                   	push   %ebx
    b042:	e8 19 a6 ff ff       	call   0x5660
    b047:	83 c4 10             	add    $0x10,%esp
    b04a:	80 7d 32 00          	cmpb   $0x0,0x32(%ebp)
    b04e:	75 ee                	jne    0xb03e
    b050:	c6 45 32 01          	movb   $0x1,0x32(%ebp)
    b054:	fb                   	sti    
    b055:	8b 55 2c             	mov    0x2c(%ebp),%edx
    b058:	0f b7 ca             	movzwl %dx,%ecx
    b05b:	66 3b 15 14 9b 01 00 	cmp    0x19b14,%dx
    b062:	74 7e                	je     0xb0e2
    b064:	b8 28 9b 01 00       	mov    $0x19b28,%eax
    b069:	66 3b 50 54          	cmp    0x54(%eax),%dx
    b06d:	74 0f                	je     0xb07e
    b06f:	83 c0 68             	add    $0x68,%eax
    b072:	3d 00 9e 01 00       	cmp    $0x19e00,%eax
    b077:	72 f0                	jb     0xb069
    b079:	b8 00 00 00 00       	mov    $0x0,%eax
    b07e:	83 ec 08             	sub    $0x8,%esp
    b081:	0f b7 50 04          	movzwl 0x4(%eax),%edx
    b085:	0f b7 40 06          	movzwl 0x6(%eax),%eax
    b089:	8d 54 02 02          	lea    0x2(%edx,%eax,1),%edx
    b08d:	0f b7 45 2e          	movzwl 0x2e(%ebp),%eax
    b091:	48                   	dec    %eax
    b092:	c1 e8 05             	shr    $0x5,%eax
    b095:	01 d0                	add    %edx,%eax
    b097:	50                   	push   %eax
    b098:	51                   	push   %ecx
    b099:	e8 97 04 00 00       	call   0xb535
    b09e:	89 c3                	mov    %eax,%ebx
    b0a0:	83 c4 10             	add    $0x10,%esp
    b0a3:	85 c0                	test   %eax,%eax
    b0a5:	74 42                	je     0xb0e9
    b0a7:	0f b7 75 2e          	movzwl 0x2e(%ebp),%esi
    b0ab:	4e                   	dec    %esi
    b0ac:	83 e6 1f             	and    $0x1f,%esi
    b0af:	c1 e6 05             	shl    $0x5,%esi
    b0b2:	03 33                	add    (%ebx),%esi
    b0b4:	b9 08 00 00 00       	mov    $0x8,%ecx
    b0b9:	89 ef                	mov    %ebp,%edi
    b0bb:	f3 a5                	rep movsl %ds:(%esi),%es:(%edi)
    b0bd:	83 ec 0c             	sub    $0xc,%esp
    b0c0:	53                   	push   %ebx
    b0c1:	e8 e7 00 00 00       	call   0xb1ad
    b0c6:	c6 45 32 00          	movb   $0x0,0x32(%ebp)
    b0ca:	8d 45 20             	lea    0x20(%ebp),%eax
    b0cd:	89 04 24             	mov    %eax,(%esp)
    b0d0:	e8 4f a6 ff ff       	call   0x5724
    b0d5:	83 c4 10             	add    $0x10,%esp
    b0d8:	89 e8                	mov    %ebp,%eax
    b0da:	83 c4 0c             	add    $0xc,%esp
    b0dd:	5b                   	pop    %ebx
    b0de:	5e                   	pop    %esi
    b0df:	5f                   	pop    %edi
    b0e0:	5d                   	pop    %ebp
    b0e1:	c3                   	ret    
    b0e2:	b8 c0 9a 01 00       	mov    $0x19ac0,%eax
    b0e7:	eb 95                	jmp    0xb07e
    b0e9:	83 ec 0c             	sub    $0xc,%esp
    b0ec:	68 51 f4 00 00       	push   $0xf451
    b0f1:	e8 8d b3 ff ff       	call   0x6483
    b0f6:	83 c4 10             	add    $0x10,%esp
    b0f9:	eb ac                	jmp    0xb0a7
    b0fb:	89 dd                	mov    %ebx,%ebp
    b0fd:	eb d9                	jmp    0xb0d8
    b0ff:	56                   	push   %esi
    b100:	53                   	push   %ebx
    b101:	89 c1                	mov    %eax,%ecx
    b103:	89 d3                	mov    %edx,%ebx
    b105:	31 d0                	xor    %edx,%eax
    b107:	be 33 01 00 00       	mov    $0x133,%esi
    b10c:	ba 00 00 00 00       	mov    $0x0,%edx
    b111:	f7 f6                	div    %esi
    b113:	8b 04 95 e0 95 01 00 	mov    0x195e0(,%edx,4),%eax
    b11a:	85 c0                	test   %eax,%eax
    b11c:	75 09                	jne    0xb127
    b11e:	eb 17                	jmp    0xb137
    b120:	8b 40 14             	mov    0x14(%eax),%eax
    b123:	85 c0                	test   %eax,%eax
    b125:	74 10                	je     0xb137
    b127:	0f b7 50 04          	movzwl 0x4(%eax),%edx
    b12b:	39 ca                	cmp    %ecx,%edx
    b12d:	75 f1                	jne    0xb120
    b12f:	0f b7 50 06          	movzwl 0x6(%eax),%edx
    b133:	39 da                	cmp    %ebx,%edx
    b135:	75 e9                	jne    0xb120
    b137:	5b                   	pop    %ebx
    b138:	5e                   	pop    %esi
    b139:	c3                   	ret    
    b13a:	55                   	push   %ebp
    b13b:	57                   	push   %edi
    b13c:	56                   	push   %esi
    b13d:	53                   	push   %ebx
    b13e:	83 ec 0c             	sub    $0xc,%esp
    b141:	e8 58 fb ff ff       	call   0xac9e
    b146:	8b 35 d0 63 01 00    	mov    0x163d0,%esi
    b14c:	83 3d c4 85 01 00 00 	cmpl   $0x0,0x185c4
    b153:	7e 4b                	jle    0xb1a0
    b155:	83 c6 0c             	add    $0xc,%esi
    b158:	bf 00 00 00 00       	mov    $0x0,%edi
    b15d:	eb 0c                	jmp    0xb16b
    b15f:	47                   	inc    %edi
    b160:	83 c6 20             	add    $0x20,%esi
    b163:	39 3d c4 85 01 00    	cmp    %edi,0x185c4
    b169:	7e 35                	jle    0xb1a0
    b16b:	8d 6e f4             	lea    -0xc(%esi),%ebp
    b16e:	fa                   	cli    
    b16f:	89 f3                	mov    %esi,%ebx
    b171:	80 7e ff 00          	cmpb   $0x0,-0x1(%esi)
    b175:	74 12                	je     0xb189
    b177:	83 ec 0c             	sub    $0xc,%esp
    b17a:	53                   	push   %ebx
    b17b:	e8 e0 a4 ff ff       	call   0x5660
    b180:	83 c4 10             	add    $0x10,%esp
    b183:	80 7b ff 00          	cmpb   $0x0,-0x1(%ebx)
    b187:	75 ee                	jne    0xb177
    b189:	fb                   	sti    
    b18a:	80 7b fd 00          	cmpb   $0x0,-0x3(%ebx)
    b18e:	74 cf                	je     0xb15f
    b190:	83 ec 08             	sub    $0x8,%esp
    b193:	55                   	push   %ebp
    b194:	6a 01                	push   $0x1
    b196:	e8 ec 09 00 00       	call   0xbb87
    b19b:	83 c4 10             	add    $0x10,%esp
    b19e:	eb bf                	jmp    0xb15f
    b1a0:	b8 00 00 00 00       	mov    $0x0,%eax
    b1a5:	83 c4 0c             	add    $0xc,%esp
    b1a8:	5b                   	pop    %ebx
    b1a9:	5e                   	pop    %esi
    b1aa:	5f                   	pop    %edi
    b1ab:	5d                   	pop    %ebp
    b1ac:	c3                   	ret    
    b1ad:	56                   	push   %esi
    b1ae:	53                   	push   %ebx
    b1af:	83 ec 04             	sub    $0x4,%esp
    b1b2:	8b 5c 24 10          	mov    0x10(%esp),%ebx
    b1b6:	85 db                	test   %ebx,%ebx
    b1b8:	74 3a                	je     0xb1f4
    b1ba:	fa                   	cli    
    b1bb:	80 7b 0b 00          	cmpb   $0x0,0xb(%ebx)
    b1bf:	74 15                	je     0xb1d6
    b1c1:	8d 73 0c             	lea    0xc(%ebx),%esi
    b1c4:	83 ec 0c             	sub    $0xc,%esp
    b1c7:	56                   	push   %esi
    b1c8:	e8 93 a4 ff ff       	call   0x5660
    b1cd:	83 c4 10             	add    $0x10,%esp
    b1d0:	80 7b 0b 00          	cmpb   $0x0,0xb(%ebx)
    b1d4:	75 ee                	jne    0xb1c4
    b1d6:	fb                   	sti    
    b1d7:	8a 43 0a             	mov    0xa(%ebx),%al
    b1da:	8d 50 ff             	lea    -0x1(%eax),%edx
    b1dd:	88 53 0a             	mov    %dl,0xa(%ebx)
    b1e0:	84 c0                	test   %al,%al
    b1e2:	74 16                	je     0xb1fa
    b1e4:	83 ec 0c             	sub    $0xc,%esp
    b1e7:	68 c8 85 01 00       	push   $0x185c8
    b1ec:	e8 33 a5 ff ff       	call   0x5724
    b1f1:	83 c4 10             	add    $0x10,%esp
    b1f4:	83 c4 04             	add    $0x4,%esp
    b1f7:	5b                   	pop    %ebx
    b1f8:	5e                   	pop    %esi
    b1f9:	c3                   	ret    
    b1fa:	83 ec 0c             	sub    $0xc,%esp
    b1fd:	68 bf f4 00 00       	push   $0xf4bf
    b202:	e8 7c b2 ff ff       	call   0x6483
    b207:	83 c4 10             	add    $0x10,%esp
    b20a:	eb d8                	jmp    0xb1e4
    b20c:	55                   	push   %ebp
    b20d:	57                   	push   %edi
    b20e:	56                   	push   %esi
    b20f:	53                   	push   %ebx
    b210:	83 ec 0c             	sub    $0xc,%esp
    b213:	8b 7c 24 20          	mov    0x20(%esp),%edi
    b217:	8b 6c 24 24          	mov    0x24(%esp),%ebp
    b21b:	eb 0c                	jmp    0xb229
    b21d:	83 ec 0c             	sub    $0xc,%esp
    b220:	53                   	push   %ebx
    b221:	e8 87 ff ff ff       	call   0xb1ad
    b226:	83 c4 10             	add    $0x10,%esp
    b229:	89 ea                	mov    %ebp,%edx
    b22b:	89 f8                	mov    %edi,%eax
    b22d:	e8 cd fe ff ff       	call   0xb0ff
    b232:	89 c3                	mov    %eax,%ebx
    b234:	85 c0                	test   %eax,%eax
    b236:	74 30                	je     0xb268
    b238:	fe 40 0a             	incb   0xa(%eax)
    b23b:	fa                   	cli    
    b23c:	80 78 0b 00          	cmpb   $0x0,0xb(%eax)
    b240:	74 15                	je     0xb257
    b242:	8d 70 0c             	lea    0xc(%eax),%esi
    b245:	83 ec 0c             	sub    $0xc,%esp
    b248:	56                   	push   %esi
    b249:	e8 12 a4 ff ff       	call   0x5660
    b24e:	83 c4 10             	add    $0x10,%esp
    b251:	80 7b 0b 00          	cmpb   $0x0,0xb(%ebx)
    b255:	75 ee                	jne    0xb245
    b257:	fb                   	sti    
    b258:	0f b7 43 04          	movzwl 0x4(%ebx),%eax
    b25c:	39 f8                	cmp    %edi,%eax
    b25e:	75 bd                	jne    0xb21d
    b260:	0f b7 43 06          	movzwl 0x6(%ebx),%eax
    b264:	39 e8                	cmp    %ebp,%eax
    b266:	75 b5                	jne    0xb21d
    b268:	89 d8                	mov    %ebx,%eax
    b26a:	83 c4 0c             	add    $0xc,%esp
    b26d:	5b                   	pop    %ebx
    b26e:	5e                   	pop    %esi
    b26f:	5f                   	pop    %edi
    b270:	5d                   	pop    %ebp
    b271:	c3                   	ret    
    b272:	55                   	push   %ebp
    b273:	57                   	push   %edi
    b274:	56                   	push   %esi
    b275:	53                   	push   %ebx
    b276:	83 ec 1c             	sub    $0x1c,%esp
    b279:	e9 55 01 00 00       	jmp    0xb3d3
    b27e:	fb                   	sti    
    b27f:	80 7f 0a 00          	cmpb   $0x0,0xa(%edi)
    b283:	74 33                	je     0xb2b8
    b285:	8b 7f 1c             	mov    0x1c(%edi),%edi
    b288:	39 3d cc 85 01 00    	cmp    %edi,0x185cc
    b28e:	0f 84 67 01 00 00    	je     0xb3fb
    b294:	80 7f 0a 00          	cmpb   $0x0,0xa(%edi)
    b298:	75 eb                	jne    0xb285
    b29a:	fa                   	cli    
    b29b:	80 7f 0b 00          	cmpb   $0x0,0xb(%edi)
    b29f:	74 dd                	je     0xb27e
    b2a1:	8d 5f 0c             	lea    0xc(%edi),%ebx
    b2a4:	83 ec 0c             	sub    $0xc,%esp
    b2a7:	53                   	push   %ebx
    b2a8:	e8 b3 a3 ff ff       	call   0x5660
    b2ad:	83 c4 10             	add    $0x10,%esp
    b2b0:	80 7f 0b 00          	cmpb   $0x0,0xb(%edi)
    b2b4:	75 ee                	jne    0xb2a4
    b2b6:	eb c6                	jmp    0xb27e
    b2b8:	85 ff                	test   %edi,%edi
    b2ba:	0f 84 3b 01 00 00    	je     0xb3fb
    b2c0:	c6 47 0a 01          	movb   $0x1,0xa(%edi)
    b2c4:	8b 47 14             	mov    0x14(%edi),%eax
    b2c7:	85 c0                	test   %eax,%eax
    b2c9:	74 06                	je     0xb2d1
    b2cb:	8b 57 10             	mov    0x10(%edi),%edx
    b2ce:	89 50 10             	mov    %edx,0x10(%eax)
    b2d1:	8b 47 10             	mov    0x10(%edi),%eax
    b2d4:	85 c0                	test   %eax,%eax
    b2d6:	74 06                	je     0xb2de
    b2d8:	8b 57 14             	mov    0x14(%edi),%edx
    b2db:	89 50 14             	mov    %edx,0x14(%eax)
    b2de:	8b 47 04             	mov    0x4(%edi),%eax
    b2e1:	66 33 47 06          	xor    0x6(%edi),%ax
    b2e5:	b9 33 01 00 00       	mov    $0x133,%ecx
    b2ea:	ba 00 00 00 00       	mov    $0x0,%edx
    b2ef:	66 f7 f1             	div    %cx
    b2f2:	0f b7 d2             	movzwl %dx,%edx
    b2f5:	3b 3c 95 e0 95 01 00 	cmp    0x195e0(,%edx,4),%edi
    b2fc:	0f 84 23 01 00 00    	je     0xb425
    b302:	83 7f 18 00          	cmpl   $0x0,0x18(%edi)
    b306:	0f 84 28 01 00 00    	je     0xb434
    b30c:	83 7f 1c 00          	cmpl   $0x0,0x1c(%edi)
    b310:	0f 84 1e 01 00 00    	je     0xb434
    b316:	8b 47 18             	mov    0x18(%edi),%eax
    b319:	8b 57 1c             	mov    0x1c(%edi),%edx
    b31c:	89 50 1c             	mov    %edx,0x1c(%eax)
    b31f:	8b 47 1c             	mov    0x1c(%edi),%eax
    b322:	8b 57 18             	mov    0x18(%edi),%edx
    b325:	89 50 18             	mov    %edx,0x18(%eax)
    b328:	3b 3d cc 85 01 00    	cmp    0x185cc,%edi
    b32e:	0f 84 15 01 00 00    	je     0xb449
    b334:	80 7f 09 00          	cmpb   $0x0,0x9(%edi)
    b338:	0f 85 18 01 00 00    	jne    0xb456
    b33e:	8b 44 24 30          	mov    0x30(%esp),%eax
    b342:	66 89 47 04          	mov    %ax,0x4(%edi)
    b346:	8b 44 24 34          	mov    0x34(%esp),%eax
    b34a:	66 89 47 06          	mov    %ax,0x6(%edi)
    b34e:	c6 47 09 00          	movb   $0x0,0x9(%edi)
    b352:	c6 47 08 00          	movb   $0x0,0x8(%edi)
    b356:	8b 54 24 34          	mov    0x34(%esp),%edx
    b35a:	8b 44 24 30          	mov    0x30(%esp),%eax
    b35e:	e8 9c fd ff ff       	call   0xb0ff
    b363:	85 c0                	test   %eax,%eax
    b365:	0f 84 68 01 00 00    	je     0xb4d3
    b36b:	66 c7 47 04 00 00    	movw   $0x0,0x4(%edi)
    b371:	66 c7 47 06 00 00    	movw   $0x0,0x6(%edi)
    b377:	c6 47 0a 00          	movb   $0x0,0xa(%edi)
    b37b:	a1 cc 85 01 00       	mov    0x185cc,%eax
    b380:	89 47 1c             	mov    %eax,0x1c(%edi)
    b383:	8b 50 18             	mov    0x18(%eax),%edx
    b386:	89 57 18             	mov    %edx,0x18(%edi)
    b389:	8b 50 18             	mov    0x18(%eax),%edx
    b38c:	89 7a 1c             	mov    %edi,0x1c(%edx)
    b38f:	89 78 18             	mov    %edi,0x18(%eax)
    b392:	c7 47 10 00 00 00 00 	movl   $0x0,0x10(%edi)
    b399:	c7 47 14 00 00 00 00 	movl   $0x0,0x14(%edi)
    b3a0:	8b 47 04             	mov    0x4(%edi),%eax
    b3a3:	66 85 c0             	test   %ax,%ax
    b3a6:	74 2b                	je     0xb3d3
    b3a8:	66 33 47 06          	xor    0x6(%edi),%ax
    b3ac:	b9 33 01 00 00       	mov    $0x133,%ecx
    b3b1:	ba 00 00 00 00       	mov    $0x0,%edx
    b3b6:	66 f7 f1             	div    %cx
    b3b9:	0f b7 c2             	movzwl %dx,%eax
    b3bc:	8b 14 85 e0 95 01 00 	mov    0x195e0(,%eax,4),%edx
    b3c3:	89 57 14             	mov    %edx,0x14(%edi)
    b3c6:	89 3c 85 e0 95 01 00 	mov    %edi,0x195e0(,%eax,4)
    b3cd:	8b 47 14             	mov    0x14(%edi),%eax
    b3d0:	89 78 10             	mov    %edi,0x10(%eax)
    b3d3:	83 ec 08             	sub    $0x8,%esp
    b3d6:	ff 74 24 3c          	pushl  0x3c(%esp)
    b3da:	ff 74 24 3c          	pushl  0x3c(%esp)
    b3de:	e8 29 fe ff ff       	call   0xb20c
    b3e3:	89 c7                	mov    %eax,%edi
    b3e5:	83 c4 10             	add    $0x10,%esp
    b3e8:	85 c0                	test   %eax,%eax
    b3ea:	0f 85 3b 01 00 00    	jne    0xb52b
    b3f0:	8b 3d cc 85 01 00    	mov    0x185cc,%edi
    b3f6:	e9 99 fe ff ff       	jmp    0xb294
    b3fb:	83 ec 0c             	sub    $0xc,%esp
    b3fe:	68 da f4 00 00       	push   $0xf4da
    b403:	e8 a6 b0 ff ff       	call   0x64ae
    b408:	c7 04 24 c8 85 01 00 	movl   $0x185c8,(%esp)
    b40f:	e8 4c a2 ff ff       	call   0x5660
    b414:	c7 04 24 f5 f4 00 00 	movl   $0xf4f5,(%esp)
    b41b:	e8 8e b0 ff ff       	call   0x64ae
    b420:	83 c4 10             	add    $0x10,%esp
    b423:	eb ae                	jmp    0xb3d3
    b425:	8b 47 14             	mov    0x14(%edi),%eax
    b428:	89 04 95 e0 95 01 00 	mov    %eax,0x195e0(,%edx,4)
    b42f:	e9 ce fe ff ff       	jmp    0xb302
    b434:	83 ec 0c             	sub    $0xc,%esp
    b437:	68 f9 f4 00 00       	push   $0xf4f9
    b43c:	e8 42 b0 ff ff       	call   0x6483
    b441:	83 c4 10             	add    $0x10,%esp
    b444:	e9 cd fe ff ff       	jmp    0xb316
    b449:	8b 47 1c             	mov    0x1c(%edi),%eax
    b44c:	a3 cc 85 01 00       	mov    %eax,0x185cc
    b451:	e9 de fe ff ff       	jmp    0xb334
    b456:	8b 6f 04             	mov    0x4(%edi),%ebp
    b459:	8b 1d d0 63 01 00    	mov    0x163d0,%ebx
    b45f:	83 3d c4 85 01 00 00 	cmpl   $0x0,0x185c4
    b466:	0f 8e d2 fe ff ff    	jle    0xb33e
    b46c:	83 c3 0c             	add    $0xc,%ebx
    b46f:	b8 00 00 00 00       	mov    $0x0,%eax
    b474:	89 7c 24 0c          	mov    %edi,0xc(%esp)
    b478:	89 c7                	mov    %eax,%edi
    b47a:	eb 0c                	jmp    0xb488
    b47c:	47                   	inc    %edi
    b47d:	83 c3 20             	add    $0x20,%ebx
    b480:	3b 3d c4 85 01 00    	cmp    0x185c4,%edi
    b486:	7d 42                	jge    0xb4ca
    b488:	8d 43 f4             	lea    -0xc(%ebx),%eax
    b48b:	89 44 24 08          	mov    %eax,0x8(%esp)
    b48f:	89 de                	mov    %ebx,%esi
    b491:	66 3b 6b f8          	cmp    -0x8(%ebx),%bp
    b495:	75 e5                	jne    0xb47c
    b497:	fa                   	cli    
    b498:	80 7b ff 00          	cmpb   $0x0,-0x1(%ebx)
    b49c:	74 12                	je     0xb4b0
    b49e:	83 ec 0c             	sub    $0xc,%esp
    b4a1:	56                   	push   %esi
    b4a2:	e8 b9 a1 ff ff       	call   0x5660
    b4a7:	83 c4 10             	add    $0x10,%esp
    b4aa:	80 7e ff 00          	cmpb   $0x0,-0x1(%esi)
    b4ae:	75 ee                	jne    0xb49e
    b4b0:	fb                   	sti    
    b4b1:	80 7e fd 00          	cmpb   $0x0,-0x3(%esi)
    b4b5:	74 c5                	je     0xb47c
    b4b7:	83 ec 08             	sub    $0x8,%esp
    b4ba:	ff 74 24 10          	pushl  0x10(%esp)
    b4be:	6a 01                	push   $0x1
    b4c0:	e8 c2 06 00 00       	call   0xbb87
    b4c5:	83 c4 10             	add    $0x10,%esp
    b4c8:	eb b2                	jmp    0xb47c
    b4ca:	8b 7c 24 0c          	mov    0xc(%esp),%edi
    b4ce:	e9 6b fe ff ff       	jmp    0xb33e
    b4d3:	a1 cc 85 01 00       	mov    0x185cc,%eax
    b4d8:	89 47 1c             	mov    %eax,0x1c(%edi)
    b4db:	8b 50 18             	mov    0x18(%eax),%edx
    b4de:	89 57 18             	mov    %edx,0x18(%edi)
    b4e1:	8b 50 18             	mov    0x18(%eax),%edx
    b4e4:	89 7a 1c             	mov    %edi,0x1c(%edx)
    b4e7:	89 78 18             	mov    %edi,0x18(%eax)
    b4ea:	c7 47 10 00 00 00 00 	movl   $0x0,0x10(%edi)
    b4f1:	c7 47 14 00 00 00 00 	movl   $0x0,0x14(%edi)
    b4f8:	8b 47 04             	mov    0x4(%edi),%eax
    b4fb:	66 85 c0             	test   %ax,%ax
    b4fe:	74 2b                	je     0xb52b
    b500:	66 33 47 06          	xor    0x6(%edi),%ax
    b504:	b9 33 01 00 00       	mov    $0x133,%ecx
    b509:	ba 00 00 00 00       	mov    $0x0,%edx
    b50e:	66 f7 f1             	div    %cx
    b511:	0f b7 c2             	movzwl %dx,%eax
    b514:	8b 14 85 e0 95 01 00 	mov    0x195e0(,%eax,4),%edx
    b51b:	89 57 14             	mov    %edx,0x14(%edi)
    b51e:	89 3c 85 e0 95 01 00 	mov    %edi,0x195e0(,%eax,4)
    b525:	8b 47 14             	mov    0x14(%edi),%eax
    b528:	89 78 10             	mov    %edi,0x10(%eax)
    b52b:	89 f8                	mov    %edi,%eax
    b52d:	83 c4 1c             	add    $0x1c,%esp
    b530:	5b                   	pop    %ebx
    b531:	5e                   	pop    %esi
    b532:	5f                   	pop    %edi
    b533:	5d                   	pop    %ebp
    b534:	c3                   	ret    
    b535:	53                   	push   %ebx
    b536:	83 ec 10             	sub    $0x10,%esp
    b539:	ff 74 24 1c          	pushl  0x1c(%esp)
    b53d:	ff 74 24 1c          	pushl  0x1c(%esp)
    b541:	e8 2c fd ff ff       	call   0xb272
    b546:	89 c3                	mov    %eax,%ebx
    b548:	83 c4 10             	add    $0x10,%esp
    b54b:	85 c0                	test   %eax,%eax
    b54d:	74 0d                	je     0xb55c
    b54f:	80 7b 08 00          	cmpb   $0x0,0x8(%ebx)
    b553:	74 19                	je     0xb56e
    b555:	89 d8                	mov    %ebx,%eax
    b557:	83 c4 08             	add    $0x8,%esp
    b55a:	5b                   	pop    %ebx
    b55b:	c3                   	ret    
    b55c:	83 ec 0c             	sub    $0xc,%esp
    b55f:	68 13 f5 00 00       	push   $0xf513
    b564:	e8 1a af ff ff       	call   0x6483
    b569:	83 c4 10             	add    $0x10,%esp
    b56c:	eb e1                	jmp    0xb54f
    b56e:	83 ec 08             	sub    $0x8,%esp
    b571:	53                   	push   %ebx
    b572:	6a 00                	push   $0x0
    b574:	e8 0e 06 00 00       	call   0xbb87
    b579:	83 c4 10             	add    $0x10,%esp
    b57c:	80 7b 08 00          	cmpb   $0x0,0x8(%ebx)
    b580:	75 d3                	jne    0xb555
    b582:	83 ec 0c             	sub    $0xc,%esp
    b585:	53                   	push   %ebx
    b586:	e8 22 fc ff ff       	call   0xb1ad
    b58b:	83 c4 10             	add    $0x10,%esp
    b58e:	bb 00 00 00 00       	mov    $0x0,%ebx
    b593:	eb c0                	jmp    0xb555
    b595:	8b 0d d0 63 01 00    	mov    0x163d0,%ecx
    b59b:	ba 00 00 20 00       	mov    $0x200000,%edx
    b5a0:	eb 02                	jmp    0xb5a4
    b5a2:	89 c1                	mov    %eax,%ecx
    b5a4:	81 ea 00 04 00 00    	sub    $0x400,%edx
    b5aa:	8d 41 20             	lea    0x20(%ecx),%eax
    b5ad:	39 d0                	cmp    %edx,%eax
    b5af:	77 4c                	ja     0xb5fd
    b5b1:	66 c7 40 e4 00 00    	movw   $0x0,-0x1c(%eax)
    b5b7:	c6 40 e9 00          	movb   $0x0,-0x17(%eax)
    b5bb:	c6 40 ea 00          	movb   $0x0,-0x16(%eax)
    b5bf:	c6 40 eb 00          	movb   $0x0,-0x15(%eax)
    b5c3:	c6 40 e8 00          	movb   $0x0,-0x18(%eax)
    b5c7:	c7 40 ec 00 00 00 00 	movl   $0x0,-0x14(%eax)
    b5ce:	c7 40 f4 00 00 00 00 	movl   $0x0,-0xc(%eax)
    b5d5:	c7 40 f0 00 00 00 00 	movl   $0x0,-0x10(%eax)
    b5dc:	89 50 e0             	mov    %edx,-0x20(%eax)
    b5df:	8d 48 c0             	lea    -0x40(%eax),%ecx
    b5e2:	89 48 f8             	mov    %ecx,-0x8(%eax)
    b5e5:	89 40 fc             	mov    %eax,-0x4(%eax)
    b5e8:	ff 05 c4 85 01 00    	incl   0x185c4
    b5ee:	81 fa 00 00 10 00    	cmp    $0x100000,%edx
    b5f4:	75 ac                	jne    0xb5a2
    b5f6:	ba 00 00 0a 00       	mov    $0xa0000,%edx
    b5fb:	eb a5                	jmp    0xb5a2
    b5fd:	a1 d0 63 01 00       	mov    0x163d0,%eax
    b602:	a3 cc 85 01 00       	mov    %eax,0x185cc
    b607:	8d 51 e0             	lea    -0x20(%ecx),%edx
    b60a:	89 50 18             	mov    %edx,0x18(%eax)
    b60d:	89 41 fc             	mov    %eax,-0x4(%ecx)
    b610:	b8 e0 95 01 00       	mov    $0x195e0,%eax
    b615:	ba ac 9a 01 00       	mov    $0x19aac,%edx
    b61a:	c7 00 00 00 00 00    	movl   $0x0,(%eax)
    b620:	83 c0 04             	add    $0x4,%eax
    b623:	39 d0                	cmp    %edx,%eax
    b625:	75 f3                	jne    0xb61a
    b627:	c3                   	ret    
    b628:	55                   	push   %ebp
    b629:	57                   	push   %edi
    b62a:	56                   	push   %esi
    b62b:	53                   	push   %ebx
    b62c:	83 ec 0c             	sub    $0xc,%esp
    b62f:	8b 6c 24 20          	mov    0x20(%esp),%ebp
    b633:	66 83 3d 14 9b 01 00 	cmpw   $0x0,0x19b14
    b63a:	00 
    b63b:	0f 84 95 00 00 00    	je     0xb6d6
    b641:	bb 28 9b 01 00       	mov    $0x19b28,%ebx
    b646:	66 83 7b 54 00       	cmpw   $0x0,0x54(%ebx)
    b64b:	0f 84 8a 00 00 00    	je     0xb6db
    b651:	83 c3 68             	add    $0x68,%ebx
    b654:	81 fb 00 9e 01 00    	cmp    $0x19e00,%ebx
    b65a:	72 ea                	jb     0xb646
    b65c:	66 c7 43 54 ff ff    	movw   $0xffff,0x54(%ebx)
    b662:	bb 00 00 00 00       	mov    $0x0,%ebx
    b667:	e9 bb 01 00 00       	jmp    0xb827
    b66c:	66 c7 43 54 00 00    	movw   $0x0,0x54(%ebx)
    b672:	bb 00 00 00 00       	mov    $0x0,%ebx
    b677:	e9 ab 01 00 00       	jmp    0xb827
    b67c:	be 02 00 00 00       	mov    $0x2,%esi
    b681:	e9 31 01 00 00       	jmp    0xb7b7
    b686:	8d 73 14             	lea    0x14(%ebx),%esi
    b689:	89 df                	mov    %ebx,%edi
    b68b:	8d 6b 34             	lea    0x34(%ebx),%ebp
    b68e:	83 ec 0c             	sub    $0xc,%esp
    b691:	ff 36                	pushl  (%esi)
    b693:	e8 15 fb ff ff       	call   0xb1ad
    b698:	83 c6 04             	add    $0x4,%esi
    b69b:	83 c4 10             	add    $0x10,%esp
    b69e:	39 f5                	cmp    %esi,%ebp
    b6a0:	75 ec                	jne    0xb68e
    b6a2:	8d 73 34             	lea    0x34(%ebx),%esi
    b6a5:	83 c7 54             	add    $0x54,%edi
    b6a8:	83 ec 0c             	sub    $0xc,%esp
    b6ab:	ff 36                	pushl  (%esi)
    b6ad:	e8 fb fa ff ff       	call   0xb1ad
    b6b2:	83 c6 04             	add    $0x4,%esi
    b6b5:	83 c4 10             	add    $0x10,%esp
    b6b8:	39 fe                	cmp    %edi,%esi
    b6ba:	75 ec                	jne    0xb6a8
    b6bc:	66 c7 43 54 00 00    	movw   $0x0,0x54(%ebx)
    b6c2:	bb 00 00 00 00       	mov    $0x0,%ebx
    b6c7:	e9 5b 01 00 00       	jmp    0xb827
    b6cc:	bb 00 00 00 00       	mov    $0x0,%ebx
    b6d1:	e9 51 01 00 00       	jmp    0xb827
    b6d6:	bb c0 9a 01 00       	mov    $0x19ac0,%ebx
    b6db:	66 c7 43 54 ff ff    	movw   $0xffff,0x54(%ebx)
    b6e1:	83 ec 08             	sub    $0x8,%esp
    b6e4:	6a 01                	push   $0x1
    b6e6:	55                   	push   %ebp
    b6e7:	e8 49 fe ff ff       	call   0xb535
    b6ec:	83 c4 10             	add    $0x10,%esp
    b6ef:	85 c0                	test   %eax,%eax
    b6f1:	74 d9                	je     0xb6cc
    b6f3:	8b 30                	mov    (%eax),%esi
    b6f5:	b9 1a 00 00 00       	mov    $0x1a,%ecx
    b6fa:	89 df                	mov    %ebx,%edi
    b6fc:	f3 a5                	rep movsl %ds:(%esi),%es:(%edi)
    b6fe:	83 ec 0c             	sub    $0xc,%esp
    b701:	50                   	push   %eax
    b702:	e8 a6 fa ff ff       	call   0xb1ad
    b707:	83 c4 10             	add    $0x10,%esp
    b70a:	66 81 7b 10 7f 13    	cmpw   $0x137f,0x10(%ebx)
    b710:	0f 85 56 ff ff ff    	jne    0xb66c
    b716:	c7 43 14 00 00 00 00 	movl   $0x0,0x14(%ebx)
    b71d:	c7 43 18 00 00 00 00 	movl   $0x0,0x18(%ebx)
    b724:	c7 43 1c 00 00 00 00 	movl   $0x0,0x1c(%ebx)
    b72b:	c7 43 20 00 00 00 00 	movl   $0x0,0x20(%ebx)
    b732:	c7 43 24 00 00 00 00 	movl   $0x0,0x24(%ebx)
    b739:	c7 43 28 00 00 00 00 	movl   $0x0,0x28(%ebx)
    b740:	c7 43 2c 00 00 00 00 	movl   $0x0,0x2c(%ebx)
    b747:	c7 43 30 00 00 00 00 	movl   $0x0,0x30(%ebx)
    b74e:	c7 43 34 00 00 00 00 	movl   $0x0,0x34(%ebx)
    b755:	c7 43 38 00 00 00 00 	movl   $0x0,0x38(%ebx)
    b75c:	c7 43 3c 00 00 00 00 	movl   $0x0,0x3c(%ebx)
    b763:	c7 43 40 00 00 00 00 	movl   $0x0,0x40(%ebx)
    b76a:	c7 43 44 00 00 00 00 	movl   $0x0,0x44(%ebx)
    b771:	c7 43 48 00 00 00 00 	movl   $0x0,0x48(%ebx)
    b778:	c7 43 4c 00 00 00 00 	movl   $0x0,0x4c(%ebx)
    b77f:	c7 43 50 00 00 00 00 	movl   $0x0,0x50(%ebx)
    b786:	66 83 7b 04 00       	cmpw   $0x0,0x4(%ebx)
    b78b:	0f 84 eb fe ff ff    	je     0xb67c
    b791:	be 02 00 00 00       	mov    $0x2,%esi
    b796:	83 ec 08             	sub    $0x8,%esp
    b799:	56                   	push   %esi
    b79a:	55                   	push   %ebp
    b79b:	e8 95 fd ff ff       	call   0xb535
    b7a0:	89 44 b3 0c          	mov    %eax,0xc(%ebx,%esi,4)
    b7a4:	83 c4 10             	add    $0x10,%esp
    b7a7:	85 c0                	test   %eax,%eax
    b7a9:	74 0c                	je     0xb7b7
    b7ab:	46                   	inc    %esi
    b7ac:	0f b7 53 04          	movzwl 0x4(%ebx),%edx
    b7b0:	8d 46 fe             	lea    -0x2(%esi),%eax
    b7b3:	39 c2                	cmp    %eax,%edx
    b7b5:	7f df                	jg     0xb796
    b7b7:	66 83 7b 06 00       	cmpw   $0x0,0x6(%ebx)
    b7bc:	74 24                	je     0xb7e2
    b7be:	bf 00 00 00 00       	mov    $0x0,%edi
    b7c3:	83 ec 08             	sub    $0x8,%esp
    b7c6:	56                   	push   %esi
    b7c7:	55                   	push   %ebp
    b7c8:	e8 68 fd ff ff       	call   0xb535
    b7cd:	89 44 bb 34          	mov    %eax,0x34(%ebx,%edi,4)
    b7d1:	83 c4 10             	add    $0x10,%esp
    b7d4:	85 c0                	test   %eax,%eax
    b7d6:	74 0a                	je     0xb7e2
    b7d8:	46                   	inc    %esi
    b7d9:	47                   	inc    %edi
    b7da:	0f b7 43 06          	movzwl 0x6(%ebx),%eax
    b7de:	39 f8                	cmp    %edi,%eax
    b7e0:	7f e1                	jg     0xb7c3
    b7e2:	0f b7 53 04          	movzwl 0x4(%ebx),%edx
    b7e6:	0f b7 43 06          	movzwl 0x6(%ebx),%eax
    b7ea:	8d 44 02 02          	lea    0x2(%edx,%eax,1),%eax
    b7ee:	39 f0                	cmp    %esi,%eax
    b7f0:	0f 85 90 fe ff ff    	jne    0xb686
    b7f6:	8b 43 14             	mov    0x14(%ebx),%eax
    b7f9:	8b 00                	mov    (%eax),%eax
    b7fb:	80 08 01             	orb    $0x1,(%eax)
    b7fe:	8b 43 34             	mov    0x34(%ebx),%eax
    b801:	8b 00                	mov    (%eax),%eax
    b803:	80 08 01             	orb    $0x1,(%eax)
    b806:	66 89 6b 54          	mov    %bp,0x54(%ebx)
    b80a:	c7 43 58 00 00 00 00 	movl   $0x0,0x58(%ebx)
    b811:	c7 43 5c 00 00 00 00 	movl   $0x0,0x5c(%ebx)
    b818:	c7 43 60 00 00 00 00 	movl   $0x0,0x60(%ebx)
    b81f:	c6 43 64 00          	movb   $0x0,0x64(%ebx)
    b823:	c6 43 65 00          	movb   $0x0,0x65(%ebx)
    b827:	89 d8                	mov    %ebx,%eax
    b829:	83 c4 0c             	add    $0xc,%esp
    b82c:	5b                   	pop    %ebx
    b82d:	5e                   	pop    %esi
    b82e:	5f                   	pop    %edi
    b82f:	5d                   	pop    %ebp
    b830:	c3                   	ret    
    b831:	55                   	push   %ebp
    b832:	57                   	push   %edi
    b833:	56                   	push   %esi
    b834:	53                   	push   %ebx
    b835:	83 ec 0c             	sub    $0xc,%esp
    b838:	b8 04 9e 01 00       	mov    $0x19e04,%eax
    b83d:	ba 04 a2 01 00       	mov    $0x1a204,%edx
    b842:	66 c7 00 00 00       	movw   $0x0,(%eax)
    b847:	83 c0 10             	add    $0x10,%eax
    b84a:	39 c2                	cmp    %eax,%edx
    b84c:	75 f4                	jne    0xb842
    b84e:	b8 c0 9a 01 00       	mov    $0x19ac0,%eax
    b853:	66 c7 40 54 00 00    	movw   $0x0,0x54(%eax)
    b859:	83 c0 68             	add    $0x68,%eax
    b85c:	3d 00 9e 01 00       	cmp    $0x19e00,%eax
    b861:	72 f0                	jb     0xb853
    b863:	83 ec 0c             	sub    $0xc,%esp
    b866:	68 06 03 00 00       	push   $0x306
    b86b:	e8 b8 fd ff ff       	call   0xb628
    b870:	89 c3                	mov    %eax,%ebx
    b872:	83 c4 10             	add    $0x10,%esp
    b875:	85 c0                	test   %eax,%eax
    b877:	74 44                	je     0xb8bd
    b879:	83 ec 08             	sub    $0x8,%esp
    b87c:	6a 01                	push   $0x1
    b87e:	68 06 03 00 00       	push   $0x306
    b883:	e8 f0 f6 ff ff       	call   0xaf78
    b888:	89 c6                	mov    %eax,%esi
    b88a:	83 c4 10             	add    $0x10,%esp
    b88d:	85 c0                	test   %eax,%eax
    b88f:	74 3e                	je     0xb8cf
    b891:	66 83 46 30 03       	addw   $0x3,0x30(%esi)
    b896:	89 73 5c             	mov    %esi,0x5c(%ebx)
    b899:	89 73 58             	mov    %esi,0x58(%ebx)
    b89c:	a1 00 2d 01 00       	mov    0x12d00,%eax
    b8a1:	89 b0 ec 00 00 00    	mov    %esi,0xec(%eax)
    b8a7:	89 b0 f0 00 00 00    	mov    %esi,0xf0(%eax)
    b8ad:	0f b7 53 02          	movzwl 0x2(%ebx),%edx
    b8b1:	b9 00 00 00 00       	mov    $0x0,%ecx
    b8b6:	bf 00 00 00 00       	mov    $0x0,%edi
    b8bb:	eb 46                	jmp    0xb903
    b8bd:	83 ec 0c             	sub    $0xc,%esp
    b8c0:	68 30 f5 00 00       	push   $0xf530
    b8c5:	e8 b9 ab ff ff       	call   0x6483
    b8ca:	83 c4 10             	add    $0x10,%esp
    b8cd:	eb aa                	jmp    0xb879
    b8cf:	83 ec 0c             	sub    $0xc,%esp
    b8d2:	68 45 f5 00 00       	push   $0xf545
    b8d7:	e8 a7 ab ff ff       	call   0x6483
    b8dc:	83 c4 10             	add    $0x10,%esp
    b8df:	eb b0                	jmp    0xb891
    b8e1:	89 d6                	mov    %edx,%esi
    b8e3:	81 e6 ff 1f 00 00    	and    $0x1fff,%esi
    b8e9:	89 d0                	mov    %edx,%eax
    b8eb:	c1 f8 0d             	sar    $0xd,%eax
    b8ee:	8b 44 83 34          	mov    0x34(%ebx,%eax,4),%eax
    b8f2:	8b 28                	mov    (%eax),%ebp
    b8f4:	89 f8                	mov    %edi,%eax
    b8f6:	0f a3 75 00          	bt     %esi,0x0(%ebp)
    b8fa:	0f 92 c0             	setb   %al
    b8fd:	83 f8 01             	cmp    $0x1,%eax
    b900:	83 d1 00             	adc    $0x0,%ecx
    b903:	4a                   	dec    %edx
    b904:	79 db                	jns    0xb8e1
    b906:	83 ec 04             	sub    $0x4,%esp
    b909:	0f b7 43 02          	movzwl 0x2(%ebx),%eax
    b90d:	50                   	push   %eax
    b90e:	51                   	push   %ecx
    b90f:	68 60 f5 00 00       	push   $0xf560
    b914:	e8 95 ab ff ff       	call   0x64ae
    b919:	0f b7 13             	movzwl (%ebx),%edx
    b91c:	42                   	inc    %edx
    b91d:	83 c4 10             	add    $0x10,%esp
    b920:	b9 00 00 00 00       	mov    $0x0,%ecx
    b925:	bf 00 00 00 00       	mov    $0x0,%edi
    b92a:	eb 22                	jmp    0xb94e
    b92c:	89 d6                	mov    %edx,%esi
    b92e:	81 e6 ff 1f 00 00    	and    $0x1fff,%esi
    b934:	89 d0                	mov    %edx,%eax
    b936:	c1 f8 0d             	sar    $0xd,%eax
    b939:	8b 44 83 14          	mov    0x14(%ebx,%eax,4),%eax
    b93d:	8b 28                	mov    (%eax),%ebp
    b93f:	89 f8                	mov    %edi,%eax
    b941:	0f a3 75 00          	bt     %esi,0x0(%ebp)
    b945:	0f 92 c0             	setb   %al
    b948:	83 f8 01             	cmp    $0x1,%eax
    b94b:	83 d1 00             	adc    $0x0,%ecx
    b94e:	4a                   	dec    %edx
    b94f:	83 fa ff             	cmp    $0xffffffff,%edx
    b952:	75 d8                	jne    0xb92c
    b954:	83 ec 04             	sub    $0x4,%esp
    b957:	0f b7 03             	movzwl (%ebx),%eax
    b95a:	50                   	push   %eax
    b95b:	51                   	push   %ecx
    b95c:	68 74 f5 00 00       	push   $0xf574
    b961:	e8 48 ab ff ff       	call   0x64ae
    b966:	83 c4 1c             	add    $0x1c,%esp
    b969:	5b                   	pop    %ebx
    b96a:	5e                   	pop    %esi
    b96b:	5f                   	pop    %edi
    b96c:	5d                   	pop    %ebp
    b96d:	c3                   	ret    
    b96e:	55                   	push   %ebp
    b96f:	57                   	push   %edi
    b970:	56                   	push   %esi
    b971:	53                   	push   %ebx
    b972:	83 ec 1c             	sub    $0x1c,%esp
    b975:	8b 74 24 3c          	mov    0x3c(%esp),%esi
    b979:	8b 44 24 34          	mov    0x34(%esp),%eax
    b97d:	8b 08                	mov    (%eax),%ecx
    b97f:	89 c8                	mov    %ecx,%eax
    b981:	85 c9                	test   %ecx,%ecx
    b983:	78 26                	js     0xb9ab
    b985:	c1 f8 0a             	sar    $0xa,%eax
    b988:	89 44 24 08          	mov    %eax,0x8(%esp)
    b98c:	81 e1 ff 03 00 80    	and    $0x800003ff,%ecx
    b992:	78 1f                	js     0xb9b3
    b994:	89 cf                	mov    %ecx,%edi
    b996:	85 f6                	test   %esi,%esi
    b998:	0f 8e d3 00 00 00    	jle    0xba71
    b99e:	c7 44 24 0c 00 00 00 	movl   $0x0,0xc(%esp)
    b9a5:	00 
    b9a6:	e9 8c 00 00 00       	jmp    0xba37
    b9ab:	8d 81 ff 03 00 00    	lea    0x3ff(%ecx),%eax
    b9b1:	eb d2                	jmp    0xb985
    b9b3:	49                   	dec    %ecx
    b9b4:	81 c9 00 fc ff ff    	or     $0xfffffc00,%ecx
    b9ba:	41                   	inc    %ecx
    b9bb:	eb d7                	jmp    0xb994
    b9bd:	83 7c 24 0c 00       	cmpl   $0x0,0xc(%esp)
    b9c2:	74 0c                	je     0xb9d0
    b9c4:	8b 44 24 0c          	mov    0xc(%esp),%eax
    b9c8:	83 c4 1c             	add    $0x1c,%esp
    b9cb:	5b                   	pop    %ebx
    b9cc:	5e                   	pop    %esi
    b9cd:	5f                   	pop    %edi
    b9ce:	5d                   	pop    %ebp
    b9cf:	c3                   	ret    
    b9d0:	c7 44 24 0c fb ff ff 	movl   $0xfffffffb,0xc(%esp)
    b9d7:	ff 
    b9d8:	eb ea                	jmp    0xb9c4
    b9da:	03 38                	add    (%eax),%edi
    b9dc:	89 f9                	mov    %edi,%ecx
    b9de:	ff 44 24 08          	incl   0x8(%esp)
    b9e2:	8b 5c 24 34          	mov    0x34(%esp),%ebx
    b9e6:	01 13                	add    %edx,(%ebx)
    b9e8:	01 54 24 0c          	add    %edx,0xc(%esp)
    b9ec:	89 f5                	mov    %esi,%ebp
    b9ee:	29 d5                	sub    %edx,%ebp
    b9f0:	8d 7a ff             	lea    -0x1(%edx),%edi
    b9f3:	85 f6                	test   %esi,%esi
    b9f5:	7e 25                	jle    0xba1c
    b9f7:	8b 74 24 38          	mov    0x38(%esp),%esi
    b9fb:	64 8a 1e             	mov    %fs:(%esi),%bl
    b9fe:	41                   	inc    %ecx
    b9ff:	88 59 ff             	mov    %bl,-0x1(%ecx)
    ba02:	4a                   	dec    %edx
    ba03:	8d 76 01             	lea    0x1(%esi),%esi
    ba06:	85 d2                	test   %edx,%edx
    ba08:	7f f1                	jg     0xb9fb
    ba0a:	89 fa                	mov    %edi,%edx
    ba0c:	85 ff                	test   %edi,%edi
    ba0e:	78 5a                	js     0xba6a
    ba10:	8b 7c 24 38          	mov    0x38(%esp),%edi
    ba14:	8d 4c 17 01          	lea    0x1(%edi,%edx,1),%ecx
    ba18:	89 4c 24 38          	mov    %ecx,0x38(%esp)
    ba1c:	c6 40 09 01          	movb   $0x1,0x9(%eax)
    ba20:	83 ec 0c             	sub    $0xc,%esp
    ba23:	50                   	push   %eax
    ba24:	e8 84 f7 ff ff       	call   0xb1ad
    ba29:	bf 00 00 00 00       	mov    $0x0,%edi
    ba2e:	83 c4 10             	add    $0x10,%esp
    ba31:	85 ed                	test   %ebp,%ebp
    ba33:	7e 8f                	jle    0xb9c4
    ba35:	89 ee                	mov    %ebp,%esi
    ba37:	83 ec 08             	sub    $0x8,%esp
    ba3a:	ff 74 24 10          	pushl  0x10(%esp)
    ba3e:	ff 74 24 3c          	pushl  0x3c(%esp)
    ba42:	e8 ee fa ff ff       	call   0xb535
    ba47:	83 c4 10             	add    $0x10,%esp
    ba4a:	85 c0                	test   %eax,%eax
    ba4c:	0f 84 6b ff ff ff    	je     0xb9bd
    ba52:	89 f2                	mov    %esi,%edx
    ba54:	81 fe 00 04 00 00    	cmp    $0x400,%esi
    ba5a:	0f 8e 7a ff ff ff    	jle    0xb9da
    ba60:	ba 00 04 00 00       	mov    $0x400,%edx
    ba65:	e9 70 ff ff ff       	jmp    0xb9da
    ba6a:	ba 00 00 00 00       	mov    $0x0,%edx
    ba6f:	eb 9f                	jmp    0xba10
    ba71:	c7 44 24 0c 00 00 00 	movl   $0x0,0xc(%esp)
    ba78:	00 
    ba79:	e9 46 ff ff ff       	jmp    0xb9c4
    ba7e:	55                   	push   %ebp
    ba7f:	57                   	push   %edi
    ba80:	56                   	push   %esi
    ba81:	53                   	push   %ebx
    ba82:	83 ec 1c             	sub    $0x1c,%esp
    ba85:	8b 5c 24 34          	mov    0x34(%esp),%ebx
    ba89:	8b 74 24 3c          	mov    0x3c(%esp),%esi
    ba8d:	8b 13                	mov    (%ebx),%edx
    ba8f:	89 d0                	mov    %edx,%eax
    ba91:	c1 e8 0a             	shr    $0xa,%eax
    ba94:	89 44 24 04          	mov    %eax,0x4(%esp)
    ba98:	81 e2 ff 03 00 00    	and    $0x3ff,%edx
    ba9e:	85 f6                	test   %esi,%esi
    baa0:	0f 8e d4 00 00 00    	jle    0xbb7a
    baa6:	89 d7                	mov    %edx,%edi
    baa8:	c7 44 24 0c 00 00 00 	movl   $0x0,0xc(%esp)
    baaf:	00 
    bab0:	89 dd                	mov    %ebx,%ebp
    bab2:	e9 89 00 00 00       	jmp    0xbb40
    bab7:	83 7c 24 0c 00       	cmpl   $0x0,0xc(%esp)
    babc:	74 0c                	je     0xbaca
    babe:	8b 44 24 0c          	mov    0xc(%esp),%eax
    bac2:	83 c4 1c             	add    $0x1c,%esp
    bac5:	5b                   	pop    %ebx
    bac6:	5e                   	pop    %esi
    bac7:	5f                   	pop    %edi
    bac8:	5d                   	pop    %ebp
    bac9:	c3                   	ret    
    baca:	c7 44 24 0c fb ff ff 	movl   $0xfffffffb,0xc(%esp)
    bad1:	ff 
    bad2:	eb ea                	jmp    0xbabe
    bad4:	03 38                	add    (%eax),%edi
    bad6:	89 fa                	mov    %edi,%edx
    bad8:	ff 44 24 04          	incl   0x4(%esp)
    badc:	89 d9                	mov    %ebx,%ecx
    bade:	01 5d 00             	add    %ebx,0x0(%ebp)
    bae1:	01 5c 24 0c          	add    %ebx,0xc(%esp)
    bae5:	89 f7                	mov    %esi,%edi
    bae7:	29 df                	sub    %ebx,%edi
    bae9:	89 3c 24             	mov    %edi,(%esp)
    baec:	8d 7b ff             	lea    -0x1(%ebx),%edi
    baef:	85 f6                	test   %esi,%esi
    baf1:	7e 2f                	jle    0xbb22
    baf3:	8b 5c 24 38          	mov    0x38(%esp),%ebx
    baf7:	89 44 24 08          	mov    %eax,0x8(%esp)
    bafb:	8d 73 01             	lea    0x1(%ebx),%esi
    bafe:	42                   	inc    %edx
    baff:	8a 42 ff             	mov    -0x1(%edx),%al
    bb02:	64 88 03             	mov    %al,%fs:(%ebx)
    bb05:	49                   	dec    %ecx
    bb06:	89 f3                	mov    %esi,%ebx
    bb08:	85 c9                	test   %ecx,%ecx
    bb0a:	7f ef                	jg     0xbafb
    bb0c:	8b 44 24 08          	mov    0x8(%esp),%eax
    bb10:	89 fa                	mov    %edi,%edx
    bb12:	85 ff                	test   %edi,%edi
    bb14:	78 5d                	js     0xbb73
    bb16:	8b 4c 24 38          	mov    0x38(%esp),%ecx
    bb1a:	8d 4c 11 01          	lea    0x1(%ecx,%edx,1),%ecx
    bb1e:	89 4c 24 38          	mov    %ecx,0x38(%esp)
    bb22:	c6 40 09 01          	movb   $0x1,0x9(%eax)
    bb26:	83 ec 0c             	sub    $0xc,%esp
    bb29:	50                   	push   %eax
    bb2a:	e8 7e f6 ff ff       	call   0xb1ad
    bb2f:	bf 00 00 00 00       	mov    $0x0,%edi
    bb34:	83 c4 10             	add    $0x10,%esp
    bb37:	83 3c 24 00          	cmpl   $0x0,(%esp)
    bb3b:	7e 81                	jle    0xbabe
    bb3d:	8b 34 24             	mov    (%esp),%esi
    bb40:	83 ec 08             	sub    $0x8,%esp
    bb43:	ff 74 24 0c          	pushl  0xc(%esp)
    bb47:	ff 74 24 3c          	pushl  0x3c(%esp)
    bb4b:	e8 e5 f9 ff ff       	call   0xb535
    bb50:	83 c4 10             	add    $0x10,%esp
    bb53:	85 c0                	test   %eax,%eax
    bb55:	0f 84 5c ff ff ff    	je     0xbab7
    bb5b:	89 f3                	mov    %esi,%ebx
    bb5d:	81 fe 00 04 00 00    	cmp    $0x400,%esi
    bb63:	0f 8e 6b ff ff ff    	jle    0xbad4
    bb69:	bb 00 04 00 00       	mov    $0x400,%ebx
    bb6e:	e9 61 ff ff ff       	jmp    0xbad4
    bb73:	ba 00 00 00 00       	mov    $0x0,%edx
    bb78:	eb 9c                	jmp    0xbb16
    bb7a:	c7 44 24 0c 00 00 00 	movl   $0x0,0xc(%esp)
    bb81:	00 
    bb82:	e9 37 ff ff ff       	jmp    0xbabe
    bb87:	53                   	push   %ebx
    bb88:	83 ec 08             	sub    $0x8,%esp
    bb8b:	8b 5c 24 14          	mov    0x14(%esp),%ebx
    bb8f:	0f b6 43 05          	movzbl 0x5(%ebx),%eax
    bb93:	83 f8 06             	cmp    $0x6,%eax
    bb96:	77 0b                	ja     0xbba3
    bb98:	8b 04 85 00 f0 00 00 	mov    0xf000(,%eax,4),%eax
    bb9f:	85 c0                	test   %eax,%eax
    bba1:	75 15                	jne    0xbbb8
    bba3:	83 ec 0c             	sub    $0xc,%esp
    bba6:	68 24 fa 00 00       	push   $0xfa24
    bbab:	e8 d3 a8 ff ff       	call   0x6483
    bbb0:	83 c4 10             	add    $0x10,%esp
    bbb3:	b8 00 00 00 00       	mov    $0x0,%eax
    bbb8:	83 ec 08             	sub    $0x8,%esp
    bbbb:	53                   	push   %ebx
    bbbc:	ff 74 24 1c          	pushl  0x1c(%esp)
    bbc0:	ff d0                	call   *%eax
    bbc2:	83 c4 18             	add    $0x18,%esp
    bbc5:	5b                   	pop    %ebx
    bbc6:	c3                   	ret    
    bbc7:	83 ec 0c             	sub    $0xc,%esp
    bbca:	8b 44 24 14          	mov    0x14(%esp),%eax
    bbce:	8b 54 24 18          	mov    0x18(%esp),%edx
    bbd2:	8b 4c 24 1c          	mov    0x1c(%esp),%ecx
    bbd6:	83 7c 24 10 00       	cmpl   $0x0,0x10(%esp)
    bbdb:	74 12                	je     0xbbef
    bbdd:	83 ec 04             	sub    $0x4,%esp
    bbe0:	51                   	push   %ecx
    bbe1:	52                   	push   %edx
    bbe2:	50                   	push   %eax
    bbe3:	e8 40 b4 ff ff       	call   0x7028
    bbe8:	83 c4 10             	add    $0x10,%esp
    bbeb:	83 c4 0c             	add    $0xc,%esp
    bbee:	c3                   	ret    
    bbef:	83 ec 04             	sub    $0x4,%esp
    bbf2:	51                   	push   %ecx
    bbf3:	52                   	push   %edx
    bbf4:	50                   	push   %eax
    bbf5:	e8 2d b1 ff ff       	call   0x6d27
    bbfa:	83 c4 10             	add    $0x10,%esp
    bbfd:	eb ec                	jmp    0xbbeb
    bbff:	a1 00 2d 01 00       	mov    0x12d00,%eax
    bc04:	8b 80 e4 00 00 00    	mov    0xe4(%eax),%eax
    bc0a:	85 c0                	test   %eax,%eax
    bc0c:	78 19                	js     0xbc27
    bc0e:	83 ec 0c             	sub    $0xc,%esp
    bc11:	ff 74 24 1c          	pushl  0x1c(%esp)
    bc15:	ff 74 24 1c          	pushl  0x1c(%esp)
    bc19:	50                   	push   %eax
    bc1a:	ff 74 24 1c          	pushl  0x1c(%esp)
    bc1e:	e8 a4 ff ff ff       	call   0xbbc7
    bc23:	83 c4 1c             	add    $0x1c,%esp
    bc26:	c3                   	ret    
    bc27:	b8 ff ff ff ff       	mov    $0xffffffff,%eax
    bc2c:	c3                   	ret    
    bc2d:	56                   	push   %esi
    bc2e:	53                   	push   %ebx
    bc2f:	83 ec 04             	sub    $0x4,%esp
    bc32:	8b 5c 24 14          	mov    0x14(%esp),%ebx
    bc36:	89 de                	mov    %ebx,%esi
    bc38:	c1 ee 08             	shr    $0x8,%esi
    bc3b:	83 fe 07             	cmp    $0x7,%esi
    bc3e:	77 23                	ja     0xbc63
    bc40:	8b 34 b5 20 f0 00 00 	mov    0xf020(,%esi,4),%esi
    bc47:	85 f6                	test   %esi,%esi
    bc49:	74 2a                	je     0xbc75
    bc4b:	ff 74 24 1c          	pushl  0x1c(%esp)
    bc4f:	ff 74 24 1c          	pushl  0x1c(%esp)
    bc53:	0f b6 db             	movzbl %bl,%ebx
    bc56:	53                   	push   %ebx
    bc57:	ff 74 24 1c          	pushl  0x1c(%esp)
    bc5b:	ff d6                	call   *%esi
    bc5d:	83 c4 14             	add    $0x14,%esp
    bc60:	5b                   	pop    %ebx
    bc61:	5e                   	pop    %esi
    bc62:	c3                   	ret    
    bc63:	83 ec 0c             	sub    $0xc,%esp
    bc66:	68 88 f5 00 00       	push   $0xf588
    bc6b:	e8 13 a8 ff ff       	call   0x6483
    bc70:	83 c4 10             	add    $0x10,%esp
    bc73:	eb cb                	jmp    0xbc40
    bc75:	83 ec 08             	sub    $0x8,%esp
    bc78:	53                   	push   %ebx
    bc79:	68 9b f5 00 00       	push   $0xf59b
    bc7e:	e8 2b a8 ff ff       	call   0x64ae
    bc83:	c7 04 24 4c fa 00 00 	movl   $0xfa4c,(%esp)
    bc8a:	e8 f4 a7 ff ff       	call   0x6483
    bc8f:	83 c4 10             	add    $0x10,%esp
    bc92:	eb b7                	jmp    0xbc4b
    bc94:	55                   	push   %ebp
    bc95:	89 e5                	mov    %esp,%ebp
    bc97:	57                   	push   %edi
    bc98:	56                   	push   %esi
    bc99:	53                   	push   %ebx
    bc9a:	83 ec 1c             	sub    $0x1c,%esp
    bc9d:	8b 7d 0c             	mov    0xc(%ebp),%edi
    bca0:	8b 5d 10             	mov    0x10(%ebp),%ebx
    bca3:	83 7d 14 00          	cmpl   $0x0,0x14(%ebp)
    bca7:	0f 8e 6d 01 00 00    	jle    0xbe1a
    bcad:	8b 45 14             	mov    0x14(%ebp),%eax
    bcb0:	89 45 e4             	mov    %eax,-0x1c(%ebp)
    bcb3:	e9 8c 00 00 00       	jmp    0xbd44
    bcb8:	05 ff 03 00 00       	add    $0x3ff,%eax
    bcbd:	e9 90 00 00 00       	jmp    0xbd52
    bcc2:	83 ec 08             	sub    $0x8,%esp
    bcc5:	50                   	push   %eax
    bcc6:	8b 45 08             	mov    0x8(%ebp),%eax
    bcc9:	0f b7 40 2c          	movzwl 0x2c(%eax),%eax
    bccd:	50                   	push   %eax
    bcce:	e8 62 f8 ff ff       	call   0xb535
    bcd3:	83 c4 10             	add    $0x10,%esp
    bcd6:	85 c0                	test   %eax,%eax
    bcd8:	0f 84 08 01 00 00    	je     0xbde6
    bcde:	8b 4f 0c             	mov    0xc(%edi),%ecx
    bce1:	89 ce                	mov    %ecx,%esi
    bce3:	81 e6 ff 03 00 80    	and    $0x800003ff,%esi
    bce9:	0f 88 3e 01 00 00    	js     0xbe2d
    bcef:	89 75 e0             	mov    %esi,-0x20(%ebp)
    bcf2:	ba 00 04 00 00       	mov    $0x400,%edx
    bcf7:	29 f2                	sub    %esi,%edx
    bcf9:	89 d6                	mov    %edx,%esi
    bcfb:	3b 55 e4             	cmp    -0x1c(%ebp),%edx
    bcfe:	7e 03                	jle    0xbd03
    bd00:	8b 75 e4             	mov    -0x1c(%ebp),%esi
    bd03:	01 f1                	add    %esi,%ecx
    bd05:	89 4f 0c             	mov    %ecx,0xc(%edi)
    bd08:	29 75 e4             	sub    %esi,-0x1c(%ebp)
    bd0b:	8b 55 e0             	mov    -0x20(%ebp),%edx
    bd0e:	03 10                	add    (%eax),%edx
    bd10:	85 f6                	test   %esi,%esi
    bd12:	0f 8e 22 01 00 00    	jle    0xbe3a
    bd18:	01 de                	add    %ebx,%esi
    bd1a:	89 45 e0             	mov    %eax,-0x20(%ebp)
    bd1d:	8d 43 01             	lea    0x1(%ebx),%eax
    bd20:	42                   	inc    %edx
    bd21:	8a 4a ff             	mov    -0x1(%edx),%cl
    bd24:	64 88 0b             	mov    %cl,%fs:(%ebx)
    bd27:	89 c3                	mov    %eax,%ebx
    bd29:	39 f0                	cmp    %esi,%eax
    bd2b:	75 f0                	jne    0xbd1d
    bd2d:	8b 45 e0             	mov    -0x20(%ebp),%eax
    bd30:	83 ec 0c             	sub    $0xc,%esp
    bd33:	50                   	push   %eax
    bd34:	e8 74 f4 ff ff       	call   0xb1ad
    bd39:	83 c4 10             	add    $0x10,%esp
    bd3c:	89 f3                	mov    %esi,%ebx
    bd3e:	83 7d e4 00          	cmpl   $0x0,-0x1c(%ebp)
    bd42:	74 6d                	je     0xbdb1
    bd44:	83 ec 08             	sub    $0x8,%esp
    bd47:	8b 47 0c             	mov    0xc(%edi),%eax
    bd4a:	85 c0                	test   %eax,%eax
    bd4c:	0f 88 66 ff ff ff    	js     0xbcb8
    bd52:	c1 f8 0a             	sar    $0xa,%eax
    bd55:	50                   	push   %eax
    bd56:	ff 75 08             	pushl  0x8(%ebp)
    bd59:	e8 96 ef ff ff       	call   0xacf4
    bd5e:	83 c4 10             	add    $0x10,%esp
    bd61:	85 c0                	test   %eax,%eax
    bd63:	0f 85 59 ff ff ff    	jne    0xbcc2
    bd69:	8b 57 0c             	mov    0xc(%edi),%edx
    bd6c:	89 d0                	mov    %edx,%eax
    bd6e:	25 ff 03 00 80       	and    $0x800003ff,%eax
    bd73:	0f 88 a8 00 00 00    	js     0xbe21
    bd79:	b9 00 04 00 00       	mov    $0x400,%ecx
    bd7e:	29 c1                	sub    %eax,%ecx
    bd80:	89 c8                	mov    %ecx,%eax
    bd82:	8b 75 e4             	mov    -0x1c(%ebp),%esi
    bd85:	39 f1                	cmp    %esi,%ecx
    bd87:	7e 02                	jle    0xbd8b
    bd89:	89 f0                	mov    %esi,%eax
    bd8b:	01 c2                	add    %eax,%edx
    bd8d:	89 57 0c             	mov    %edx,0xc(%edi)
    bd90:	29 45 e4             	sub    %eax,-0x1c(%ebp)
    bd93:	85 c0                	test   %eax,%eax
    bd95:	7e a7                	jle    0xbd3e
    bd97:	01 d8                	add    %ebx,%eax
    bd99:	8b 75 e4             	mov    -0x1c(%ebp),%esi
    bd9c:	8d 53 01             	lea    0x1(%ebx),%edx
    bd9f:	b1 00                	mov    $0x0,%cl
    bda1:	64 88 0b             	mov    %cl,%fs:(%ebx)
    bda4:	89 d3                	mov    %edx,%ebx
    bda6:	39 c2                	cmp    %eax,%edx
    bda8:	75 f2                	jne    0xbd9c
    bdaa:	89 75 e4             	mov    %esi,-0x1c(%ebp)
    bdad:	89 c3                	mov    %eax,%ebx
    bdaf:	eb 8d                	jmp    0xbd3e
    bdb1:	8b 45 e4             	mov    -0x1c(%ebp),%eax
    bdb4:	89 c3                	mov    %eax,%ebx
    bdb6:	8b 0d 08 69 01 00    	mov    0x16908,%ecx
    bdbc:	b8 1f 85 eb 51       	mov    $0x51eb851f,%eax
    bdc1:	f7 e9                	imul   %ecx
    bdc3:	89 d0                	mov    %edx,%eax
    bdc5:	c1 f8 05             	sar    $0x5,%eax
    bdc8:	c1 f9 1f             	sar    $0x1f,%ecx
    bdcb:	29 c8                	sub    %ecx,%eax
    bdcd:	03 05 04 69 01 00    	add    0x16904,%eax
    bdd3:	8b 7d 08             	mov    0x8(%ebp),%edi
    bdd6:	89 47 24             	mov    %eax,0x24(%edi)
    bdd9:	8b 45 14             	mov    0x14(%ebp),%eax
    bddc:	29 d8                	sub    %ebx,%eax
    bdde:	8d 65 f4             	lea    -0xc(%ebp),%esp
    bde1:	5b                   	pop    %ebx
    bde2:	5e                   	pop    %esi
    bde3:	5f                   	pop    %edi
    bde4:	5d                   	pop    %ebp
    bde5:	c3                   	ret    
    bde6:	8b 45 e4             	mov    -0x1c(%ebp),%eax
    bde9:	89 c3                	mov    %eax,%ebx
    bdeb:	8b 0d 08 69 01 00    	mov    0x16908,%ecx
    bdf1:	b8 1f 85 eb 51       	mov    $0x51eb851f,%eax
    bdf6:	f7 e9                	imul   %ecx
    bdf8:	89 d0                	mov    %edx,%eax
    bdfa:	c1 f8 05             	sar    $0x5,%eax
    bdfd:	c1 f9 1f             	sar    $0x1f,%ecx
    be00:	29 c8                	sub    %ecx,%eax
    be02:	03 05 04 69 01 00    	add    0x16904,%eax
    be08:	8b 7d 08             	mov    0x8(%ebp),%edi
    be0b:	89 47 24             	mov    %eax,0x24(%edi)
    be0e:	39 5d 14             	cmp    %ebx,0x14(%ebp)
    be11:	75 c6                	jne    0xbdd9
    be13:	b8 9d ff ff ff       	mov    $0xffffff9d,%eax
    be18:	eb c4                	jmp    0xbdde
    be1a:	b8 00 00 00 00       	mov    $0x0,%eax
    be1f:	eb bd                	jmp    0xbdde
    be21:	48                   	dec    %eax
    be22:	0d 00 fc ff ff       	or     $0xfffffc00,%eax
    be27:	40                   	inc    %eax
    be28:	e9 4c ff ff ff       	jmp    0xbd79
    be2d:	4e                   	dec    %esi
    be2e:	81 ce 00 fc ff ff    	or     $0xfffffc00,%esi
    be34:	46                   	inc    %esi
    be35:	e9 b5 fe ff ff       	jmp    0xbcef
    be3a:	89 de                	mov    %ebx,%esi
    be3c:	e9 ef fe ff ff       	jmp    0xbd30
    be41:	55                   	push   %ebp
    be42:	89 e5                	mov    %esp,%ebp
    be44:	57                   	push   %edi
    be45:	56                   	push   %esi
    be46:	53                   	push   %ebx
    be47:	83 ec 1c             	sub    $0x1c,%esp
    be4a:	8b 5d 10             	mov    0x10(%ebp),%ebx
    be4d:	8b 45 0c             	mov    0xc(%ebp),%eax
    be50:	f6 40 03 04          	testb  $0x4,0x3(%eax)
    be54:	74 7c                	je     0xbed2
    be56:	8b 45 08             	mov    0x8(%ebp),%eax
    be59:	8b 70 04             	mov    0x4(%eax),%esi
    be5c:	c7 45 e0 00 00 00 00 	movl   $0x0,-0x20(%ebp)
    be63:	83 7d 14 00          	cmpl   $0x0,0x14(%ebp)
    be67:	0f 8f c6 00 00 00    	jg     0xbf33
    be6d:	8b 0d 08 69 01 00    	mov    0x16908,%ecx
    be73:	8b 1d 04 69 01 00    	mov    0x16904,%ebx
    be79:	b8 1f 85 eb 51       	mov    $0x51eb851f,%eax
    be7e:	f7 e9                	imul   %ecx
    be80:	89 d0                	mov    %edx,%eax
    be82:	c1 f8 05             	sar    $0x5,%eax
    be85:	c1 f9 1f             	sar    $0x1f,%ecx
    be88:	29 c8                	sub    %ecx,%eax
    be8a:	01 d8                	add    %ebx,%eax
    be8c:	8b 55 08             	mov    0x8(%ebp),%edx
    be8f:	89 42 08             	mov    %eax,0x8(%edx)
    be92:	8b 45 0c             	mov    0xc(%ebp),%eax
    be95:	f6 40 03 04          	testb  $0x4,0x3(%eax)
    be99:	75 22                	jne    0xbebd
    be9b:	89 70 0c             	mov    %esi,0xc(%eax)
    be9e:	8b 0d 08 69 01 00    	mov    0x16908,%ecx
    bea4:	b8 1f 85 eb 51       	mov    $0x51eb851f,%eax
    bea9:	f7 e9                	imul   %ecx
    beab:	89 d0                	mov    %edx,%eax
    bead:	c1 f8 05             	sar    $0x5,%eax
    beb0:	c1 f9 1f             	sar    $0x1f,%ecx
    beb3:	29 c8                	sub    %ecx,%eax
    beb5:	01 c3                	add    %eax,%ebx
    beb7:	8b 45 08             	mov    0x8(%ebp),%eax
    beba:	89 58 28             	mov    %ebx,0x28(%eax)
    bebd:	83 7d e0 00          	cmpl   $0x0,-0x20(%ebp)
    bec1:	0f 84 f2 00 00 00    	je     0xbfb9
    bec7:	8b 45 e0             	mov    -0x20(%ebp),%eax
    beca:	8d 65 f4             	lea    -0xc(%ebp),%esp
    becd:	5b                   	pop    %ebx
    bece:	5e                   	pop    %esi
    becf:	5f                   	pop    %edi
    bed0:	5d                   	pop    %ebp
    bed1:	c3                   	ret    
    bed2:	8b 45 0c             	mov    0xc(%ebp),%eax
    bed5:	8b 70 0c             	mov    0xc(%eax),%esi
    bed8:	eb 82                	jmp    0xbe5c
    beda:	8d 86 ff 03 00 00    	lea    0x3ff(%esi),%eax
    bee0:	eb 5a                	jmp    0xbf3c
    bee2:	49                   	dec    %ecx
    bee3:	81 c9 00 fc ff ff    	or     $0xfffffc00,%ecx
    bee9:	41                   	inc    %ecx
    beea:	e9 8e 00 00 00       	jmp    0xbf7d
    beef:	01 4d e0             	add    %ecx,-0x20(%ebp)
    bef2:	85 c9                	test   %ecx,%ecx
    bef4:	7e 25                	jle    0xbf1b
    bef6:	8d 3c 0b             	lea    (%ebx,%ecx,1),%edi
    bef9:	89 7d e4             	mov    %edi,-0x1c(%ebp)
    befc:	89 df                	mov    %ebx,%edi
    befe:	8b 5d 08             	mov    0x8(%ebp),%ebx
    bf01:	89 5d dc             	mov    %ebx,-0x24(%ebp)
    bf04:	8d 5f 01             	lea    0x1(%edi),%ebx
    bf07:	64 8a 0f             	mov    %fs:(%edi),%cl
    bf0a:	42                   	inc    %edx
    bf0b:	88 4a ff             	mov    %cl,-0x1(%edx)
    bf0e:	89 df                	mov    %ebx,%edi
    bf10:	39 5d e4             	cmp    %ebx,-0x1c(%ebp)
    bf13:	75 ef                	jne    0xbf04
    bf15:	8b 55 dc             	mov    -0x24(%ebp),%edx
    bf18:	89 55 08             	mov    %edx,0x8(%ebp)
    bf1b:	83 ec 0c             	sub    $0xc,%esp
    bf1e:	50                   	push   %eax
    bf1f:	e8 89 f2 ff ff       	call   0xb1ad
    bf24:	83 c4 10             	add    $0x10,%esp
    bf27:	8b 45 e0             	mov    -0x20(%ebp),%eax
    bf2a:	39 45 14             	cmp    %eax,0x14(%ebp)
    bf2d:	0f 8e 3a ff ff ff    	jle    0xbe6d
    bf33:	83 ec 08             	sub    $0x8,%esp
    bf36:	89 f0                	mov    %esi,%eax
    bf38:	85 f6                	test   %esi,%esi
    bf3a:	78 9e                	js     0xbeda
    bf3c:	c1 f8 0a             	sar    $0xa,%eax
    bf3f:	50                   	push   %eax
    bf40:	ff 75 08             	pushl  0x8(%ebp)
    bf43:	e8 c5 ed ff ff       	call   0xad0d
    bf48:	83 c4 10             	add    $0x10,%esp
    bf4b:	85 c0                	test   %eax,%eax
    bf4d:	0f 84 1a ff ff ff    	je     0xbe6d
    bf53:	83 ec 08             	sub    $0x8,%esp
    bf56:	50                   	push   %eax
    bf57:	8b 45 08             	mov    0x8(%ebp),%eax
    bf5a:	0f b7 40 2c          	movzwl 0x2c(%eax),%eax
    bf5e:	50                   	push   %eax
    bf5f:	e8 d1 f5 ff ff       	call   0xb535
    bf64:	83 c4 10             	add    $0x10,%esp
    bf67:	85 c0                	test   %eax,%eax
    bf69:	0f 84 fe fe ff ff    	je     0xbe6d
    bf6f:	89 f1                	mov    %esi,%ecx
    bf71:	81 e1 ff 03 00 80    	and    $0x800003ff,%ecx
    bf77:	0f 88 65 ff ff ff    	js     0xbee2
    bf7d:	89 ca                	mov    %ecx,%edx
    bf7f:	03 10                	add    (%eax),%edx
    bf81:	c6 40 09 01          	movb   $0x1,0x9(%eax)
    bf85:	bf 00 04 00 00       	mov    $0x400,%edi
    bf8a:	29 cf                	sub    %ecx,%edi
    bf8c:	89 7d e4             	mov    %edi,-0x1c(%ebp)
    bf8f:	8b 7d 14             	mov    0x14(%ebp),%edi
    bf92:	2b 7d e0             	sub    -0x20(%ebp),%edi
    bf95:	89 f9                	mov    %edi,%ecx
    bf97:	3b 7d e4             	cmp    -0x1c(%ebp),%edi
    bf9a:	7e 03                	jle    0xbf9f
    bf9c:	8b 4d e4             	mov    -0x1c(%ebp),%ecx
    bf9f:	01 ce                	add    %ecx,%esi
    bfa1:	8b 7d 08             	mov    0x8(%ebp),%edi
    bfa4:	39 77 04             	cmp    %esi,0x4(%edi)
    bfa7:	0f 83 42 ff ff ff    	jae    0xbeef
    bfad:	89 77 04             	mov    %esi,0x4(%edi)
    bfb0:	c6 47 33 01          	movb   $0x1,0x33(%edi)
    bfb4:	e9 36 ff ff ff       	jmp    0xbeef
    bfb9:	c7 45 e0 ff ff ff ff 	movl   $0xffffffff,-0x20(%ebp)
    bfc0:	e9 02 ff ff ff       	jmp    0xbec7
    bfc5:	56                   	push   %esi
    bfc6:	53                   	push   %ebx
    bfc7:	83 ec 3c             	sub    $0x3c,%esp
    bfca:	89 c6                	mov    %eax,%esi
    bfcc:	89 d3                	mov    %edx,%ebx
    bfce:	65 a1 14 00 00 00    	mov    %gs:0x14,%eax
    bfd4:	89 44 24 34          	mov    %eax,0x34(%esp)
    bfd8:	31 c0                	xor    %eax,%eax
    bfda:	6a 20                	push   $0x20
    bfdc:	52                   	push   %edx
    bfdd:	e8 67 a0 ff ff       	call   0x6049
    bfe2:	8b 46 2c             	mov    0x2c(%esi),%eax
    bfe5:	66 89 44 24 1c       	mov    %ax,0x1c(%esp)
    bfea:	66 8b 46 2e          	mov    0x2e(%esi),%ax
    bfee:	66 89 44 24 1e       	mov    %ax,0x1e(%esp)
    bff3:	8b 06                	mov    (%esi),%eax
    bff5:	66 89 44 24 20       	mov    %ax,0x20(%esp)
    bffa:	8a 46 0d             	mov    0xd(%esi),%al
    bffd:	88 44 24 22          	mov    %al,0x22(%esp)
    c001:	66 8b 46 02          	mov    0x2(%esi),%ax
    c005:	66 89 44 24 24       	mov    %ax,0x24(%esp)
    c00a:	8a 46 0c             	mov    0xc(%esi),%al
    c00d:	88 44 24 26          	mov    %al,0x26(%esp)
    c011:	66 8b 46 0e          	mov    0xe(%esi),%ax
    c015:	66 89 44 24 28       	mov    %ax,0x28(%esp)
    c01a:	8b 46 04             	mov    0x4(%esi),%eax
    c01d:	89 44 24 2c          	mov    %eax,0x2c(%esp)
    c021:	8b 46 24             	mov    0x24(%esi),%eax
    c024:	89 44 24 30          	mov    %eax,0x30(%esp)
    c028:	8b 46 08             	mov    0x8(%esi),%eax
    c02b:	89 44 24 34          	mov    %eax,0x34(%esp)
    c02f:	8b 46 28             	mov    0x28(%esi),%eax
    c032:	89 44 24 38          	mov    %eax,0x38(%esp)
    c036:	83 c4 10             	add    $0x10,%esp
    c039:	b8 00 00 00 00       	mov    $0x0,%eax
    c03e:	8a 54 04 0c          	mov    0xc(%esp,%eax,1),%dl
    c042:	64 88 14 03          	mov    %dl,%fs:(%ebx,%eax,1)
    c046:	40                   	inc    %eax
    c047:	83 f8 20             	cmp    $0x20,%eax
    c04a:	75 f2                	jne    0xc03e
    c04c:	b8 00 00 00 00       	mov    $0x0,%eax
    c051:	8b 4c 24 2c          	mov    0x2c(%esp),%ecx
    c055:	65 33 0d 14 00 00 00 	xor    %gs:0x14,%ecx
    c05c:	75 06                	jne    0xc064
    c05e:	83 c4 34             	add    $0x34,%esp
    c061:	5b                   	pop    %ebx
    c062:	5e                   	pop    %esi
    c063:	c3                   	ret    
    c064:	e8 3d a4 ff ff       	call   0x64a6
    c069:	56                   	push   %esi
    c06a:	53                   	push   %ebx
    c06b:	83 ec 10             	sub    $0x10,%esp
    c06e:	ff 74 24 1c          	pushl  0x1c(%esp)
    c072:	e8 e4 11 00 00       	call   0xd25b
    c077:	83 c4 10             	add    $0x10,%esp
    c07a:	85 c0                	test   %eax,%eax
    c07c:	74 21                	je     0xc09f
    c07e:	89 c3                	mov    %eax,%ebx
    c080:	8b 54 24 14          	mov    0x14(%esp),%edx
    c084:	e8 3c ff ff ff       	call   0xbfc5
    c089:	89 c6                	mov    %eax,%esi
    c08b:	83 ec 0c             	sub    $0xc,%esp
    c08e:	53                   	push   %ebx
    c08f:	e8 92 ec ff ff       	call   0xad26
    c094:	83 c4 10             	add    $0x10,%esp
    c097:	89 f0                	mov    %esi,%eax
    c099:	83 c4 04             	add    $0x4,%esp
    c09c:	5b                   	pop    %ebx
    c09d:	5e                   	pop    %esi
    c09e:	c3                   	ret    
    c09f:	be fe ff ff ff       	mov    $0xfffffffe,%esi
    c0a4:	eb f1                	jmp    0xc097
    c0a6:	83 ec 0c             	sub    $0xc,%esp
    c0a9:	8b 44 24 10          	mov    0x10(%esp),%eax
    c0ad:	83 f8 13             	cmp    $0x13,%eax
    c0b0:	77 25                	ja     0xc0d7
    c0b2:	8b 15 00 2d 01 00    	mov    0x12d00,%edx
    c0b8:	8b 84 82 f8 00 00 00 	mov    0xf8(%edx,%eax,4),%eax
    c0bf:	85 c0                	test   %eax,%eax
    c0c1:	74 1b                	je     0xc0de
    c0c3:	8b 40 08             	mov    0x8(%eax),%eax
    c0c6:	85 c0                	test   %eax,%eax
    c0c8:	74 1b                	je     0xc0e5
    c0ca:	8b 54 24 14          	mov    0x14(%esp),%edx
    c0ce:	e8 f2 fe ff ff       	call   0xbfc5
    c0d3:	83 c4 0c             	add    $0xc,%esp
    c0d6:	c3                   	ret    
    c0d7:	b8 fe ff ff ff       	mov    $0xfffffffe,%eax
    c0dc:	eb f5                	jmp    0xc0d3
    c0de:	b8 fe ff ff ff       	mov    $0xfffffffe,%eax
    c0e3:	eb ee                	jmp    0xc0d3
    c0e5:	b8 fe ff ff ff       	mov    $0xfffffffe,%eax
    c0ea:	eb e7                	jmp    0xc0d3
    c0ec:	55                   	push   %ebp
    c0ed:	57                   	push   %edi
    c0ee:	56                   	push   %esi
    c0ef:	53                   	push   %ebx
    c0f0:	83 ec 1c             	sub    $0x1c,%esp
    c0f3:	89 cf                	mov    %ecx,%edi
    c0f5:	89 44 24 08          	mov    %eax,0x8(%esp)
    c0f9:	8d 44 82 fc          	lea    -0x4(%edx,%eax,4),%eax
    c0fd:	89 44 24 0c          	mov    %eax,0xc(%esp)
    c101:	eb 67                	jmp    0xc16a
    c103:	83 ec 0c             	sub    $0xc,%esp
    c106:	68 a6 f5 00 00       	push   $0xf5a6
    c10b:	e8 73 a3 ff ff       	call   0x6483
    c110:	83 c4 10             	add    $0x10,%esp
    c113:	b8 00 00 00 00       	mov    $0x0,%eax
    c118:	eb 62                	jmp    0xc17c
    c11a:	89 d8                	mov    %ebx,%eax
    c11c:	2b 44 24 30          	sub    0x30(%esp),%eax
    c120:	64 8a 0c 06          	mov    %fs:(%esi,%eax,1),%cl
    c124:	89 da                	mov    %ebx,%edx
    c126:	81 e2 ff 0f 00 00    	and    $0xfff,%edx
    c12c:	8b 45 00             	mov    0x0(%ebp),%eax
    c12f:	88 0c 02             	mov    %cl,(%edx,%eax,1)
    c132:	39 5c 24 04          	cmp    %ebx,0x4(%esp)
    c136:	74 21                	je     0xc159
    c138:	4b                   	dec    %ebx
    c139:	89 d8                	mov    %ebx,%eax
    c13b:	c1 e8 0c             	shr    $0xc,%eax
    c13e:	8d 2c 87             	lea    (%edi,%eax,4),%ebp
    c141:	83 7d 00 00          	cmpl   $0x0,0x0(%ebp)
    c145:	75 d3                	jne    0xc11a
    c147:	83 ec 0c             	sub    $0xc,%esp
    c14a:	68 b4 f5 00 00       	push   $0xf5b4
    c14f:	e8 2f a3 ff ff       	call   0x6483
    c154:	83 c4 10             	add    $0x10,%esp
    c157:	eb c1                	jmp    0xc11a
    c159:	ff 4c 24 08          	decl   0x8(%esp)
    c15d:	83 6c 24 0c 04       	subl   $0x4,0xc(%esp)
    c162:	8b 44 24 04          	mov    0x4(%esp),%eax
    c166:	89 44 24 30          	mov    %eax,0x30(%esp)
    c16a:	83 7c 24 08 00       	cmpl   $0x0,0x8(%esp)
    c16f:	7e 60                	jle    0xc1d1
    c171:	8b 44 24 0c          	mov    0xc(%esp),%eax
    c175:	64 8b 00             	mov    %fs:(%eax),%eax
    c178:	85 c0                	test   %eax,%eax
    c17a:	74 87                	je     0xc103
    c17c:	ba 00 00 00 00       	mov    $0x0,%edx
    c181:	42                   	inc    %edx
    c182:	8d 70 01             	lea    0x1(%eax),%esi
    c185:	64 8a 08             	mov    %fs:(%eax),%cl
    c188:	89 f0                	mov    %esi,%eax
    c18a:	84 c9                	test   %cl,%cl
    c18c:	75 f3                	jne    0xc181
    c18e:	8b 44 24 30          	mov    0x30(%esp),%eax
    c192:	29 d0                	sub    %edx,%eax
    c194:	89 44 24 04          	mov    %eax,0x4(%esp)
    c198:	c1 e8 0c             	shr    $0xc,%eax
    c19b:	89 c3                	mov    %eax,%ebx
    c19d:	83 f8 1f             	cmp    $0x1f,%eax
    c1a0:	7f 26                	jg     0xc1c8
    c1a2:	8d 14 87             	lea    (%edi,%eax,4),%edx
    c1a5:	83 3a 00             	cmpl   $0x0,(%edx)
    c1a8:	75 1e                	jne    0xc1c8
    c1aa:	f7 d8                	neg    %eax
    c1ac:	8d 2c 82             	lea    (%edx,%eax,4),%ebp
    c1af:	e8 17 d9 ff ff       	call   0x9acb
    c1b4:	89 44 9d 00          	mov    %eax,0x0(%ebp,%ebx,4)
    c1b8:	85 c0                	test   %eax,%eax
    c1ba:	74 19                	je     0xc1d5
    c1bc:	43                   	inc    %ebx
    c1bd:	83 fb 20             	cmp    $0x20,%ebx
    c1c0:	74 06                	je     0xc1c8
    c1c2:	83 3c 9f 00          	cmpl   $0x0,(%edi,%ebx,4)
    c1c6:	74 e7                	je     0xc1af
    c1c8:	8b 5c 24 30          	mov    0x30(%esp),%ebx
    c1cc:	e9 67 ff ff ff       	jmp    0xc138
    c1d1:	8b 44 24 30          	mov    0x30(%esp),%eax
    c1d5:	83 c4 1c             	add    $0x1c,%esp
    c1d8:	5b                   	pop    %ebx
    c1d9:	5e                   	pop    %esi
    c1da:	5f                   	pop    %edi
    c1db:	5d                   	pop    %ebp
    c1dc:	c3                   	ret    
    c1dd:	55                   	push   %ebp
    c1de:	57                   	push   %edi
    c1df:	56                   	push   %esi
    c1e0:	53                   	push   %ebx
    c1e1:	83 ec 1c             	sub    $0x1c,%esp
    c1e4:	8b 6c 24 30          	mov    0x30(%esp),%ebp
    c1e8:	8b 44 24 34          	mov    0x34(%esp),%eax
    c1ec:	89 44 24 0c          	mov    %eax,0xc(%esp)
    c1f0:	83 f8 06             	cmp    $0x6,%eax
    c1f3:	7e 08                	jle    0xc1fd
    c1f5:	c7 44 24 0c 06 00 00 	movl   $0x6,0xc(%esp)
    c1fc:	00 
    c1fd:	85 c0                	test   %eax,%eax
    c1ff:	7e 60                	jle    0xc261
    c201:	bb 00 00 00 00       	mov    $0x0,%ebx
    c206:	eb 07                	jmp    0xc20f
    c208:	43                   	inc    %ebx
    c209:	3b 5c 24 0c          	cmp    0xc(%esp),%ebx
    c20d:	7d 45                	jge    0xc254
    c20f:	66 8b 44 5d 10       	mov    0x10(%ebp,%ebx,2),%ax
    c214:	66 85 c0             	test   %ax,%ax
    c217:	74 ef                	je     0xc208
    c219:	83 ec 08             	sub    $0x8,%esp
    c21c:	0f b7 c0             	movzwl %ax,%eax
    c21f:	50                   	push   %eax
    c220:	0f b7 45 2c          	movzwl 0x2c(%ebp),%eax
    c224:	50                   	push   %eax
    c225:	e8 0b f3 ff ff       	call   0xb535
    c22a:	83 c4 10             	add    $0x10,%esp
    c22d:	85 c0                	test   %eax,%eax
    c22f:	74 37                	je     0xc268
    c231:	89 df                	mov    %ebx,%edi
    c233:	c1 e7 0a             	shl    $0xa,%edi
    c236:	b9 00 01 00 00       	mov    $0x100,%ecx
    c23b:	8b 30                	mov    (%eax),%esi
    c23d:	6a 10                	push   $0x10
    c23f:	6a 17                	push   $0x17
    c241:	07                   	pop    %es
    c242:	fc                   	cld    
    c243:	f3 a5                	rep movsl %ds:(%esi),%es:(%edi)
    c245:	07                   	pop    %es
    c246:	83 ec 0c             	sub    $0xc,%esp
    c249:	50                   	push   %eax
    c24a:	e8 5e ef ff ff       	call   0xb1ad
    c24f:	83 c4 10             	add    $0x10,%esp
    c252:	eb b4                	jmp    0xc208
    c254:	b8 00 00 00 00       	mov    $0x0,%eax
    c259:	83 c4 1c             	add    $0x1c,%esp
    c25c:	5b                   	pop    %ebx
    c25d:	5e                   	pop    %esi
    c25e:	5f                   	pop    %edi
    c25f:	5d                   	pop    %ebp
    c260:	c3                   	ret    
    c261:	b8 00 00 00 00       	mov    $0x0,%eax
    c266:	eb f1                	jmp    0xc259
    c268:	b8 ff ff ff ff       	mov    $0xffffffff,%eax
    c26d:	eb ea                	jmp    0xc259
    c26f:	55                   	push   %ebp
    c270:	57                   	push   %edi
    c271:	56                   	push   %esi
    c272:	53                   	push   %ebx
    c273:	83 ec 1c             	sub    $0x1c,%esp
    c276:	8b 5c 24 34          	mov    0x34(%esp),%ebx
    c27a:	8b 74 24 38          	mov    0x38(%esp),%esi
    c27e:	8b 7c 24 3c          	mov    0x3c(%esp),%edi
    c282:	85 f6                	test   %esi,%esi
    c284:	7e 0e                	jle    0xc294
    c286:	85 db                	test   %ebx,%ebx
    c288:	75 1c                	jne    0xc2a6
    c28a:	89 d8                	mov    %ebx,%eax
    c28c:	83 c4 1c             	add    $0x1c,%esp
    c28f:	5b                   	pop    %ebx
    c290:	5e                   	pop    %esi
    c291:	5f                   	pop    %edi
    c292:	5d                   	pop    %ebp
    c293:	c3                   	ret    
    c294:	83 ec 0c             	sub    $0xc,%esp
    c297:	68 cf f5 00 00       	push   $0xf5cf
    c29c:	e8 e2 a1 ff ff       	call   0x6483
    c2a1:	83 c4 10             	add    $0x10,%esp
    c2a4:	eb e0                	jmp    0xc286
    c2a6:	83 ec 08             	sub    $0x8,%esp
    c2a9:	53                   	push   %ebx
    c2aa:	ff 74 24 3c          	pushl  0x3c(%esp)
    c2ae:	e8 82 f2 ff ff       	call   0xb535
    c2b3:	89 44 24 1c          	mov    %eax,0x1c(%esp)
    c2b7:	83 c4 10             	add    $0x10,%esp
    c2ba:	85 c0                	test   %eax,%eax
    c2bc:	0f 84 97 00 00 00    	je     0xc359
    c2c2:	8b 18                	mov    (%eax),%ebx
    c2c4:	85 f6                	test   %esi,%esi
    c2c6:	7e 78                	jle    0xc340
    c2c8:	89 f5                	mov    %esi,%ebp
    c2ca:	81 fe 00 00 08 00    	cmp    $0x80000,%esi
    c2d0:	7e 2d                	jle    0xc2ff
    c2d2:	bd 00 00 08 00       	mov    $0x80000,%ebp
    c2d7:	eb 26                	jmp    0xc2ff
    c2d9:	83 ec 0c             	sub    $0xc,%esp
    c2dc:	ff 74 24 18          	pushl  0x18(%esp)
    c2e0:	e8 c8 ee ff ff       	call   0xb1ad
    c2e5:	83 c4 10             	add    $0x10,%esp
    c2e8:	bb ff ff ff ff       	mov    $0xffffffff,%ebx
    c2ed:	eb 9b                	jmp    0xc28a
    c2ef:	81 ed 00 04 00 00    	sub    $0x400,%ebp
    c2f5:	81 c7 00 04 00 00    	add    $0x400,%edi
    c2fb:	85 ed                	test   %ebp,%ebp
    c2fd:	7e 41                	jle    0xc340
    c2ff:	83 c3 02             	add    $0x2,%ebx
    c302:	66 8b 43 fe          	mov    -0x2(%ebx),%ax
    c306:	66 85 c0             	test   %ax,%ax
    c309:	74 e4                	je     0xc2ef
    c30b:	83 ec 08             	sub    $0x8,%esp
    c30e:	0f b7 c0             	movzwl %ax,%eax
    c311:	50                   	push   %eax
    c312:	ff 74 24 3c          	pushl  0x3c(%esp)
    c316:	e8 1a f2 ff ff       	call   0xb535
    c31b:	83 c4 10             	add    $0x10,%esp
    c31e:	85 c0                	test   %eax,%eax
    c320:	74 b7                	je     0xc2d9
    c322:	8b 30                	mov    (%eax),%esi
    c324:	b9 00 01 00 00       	mov    $0x100,%ecx
    c329:	6a 10                	push   $0x10
    c32b:	6a 17                	push   $0x17
    c32d:	07                   	pop    %es
    c32e:	fc                   	cld    
    c32f:	f3 a5                	rep movsl %ds:(%esi),%es:(%edi)
    c331:	07                   	pop    %es
    c332:	83 ec 0c             	sub    $0xc,%esp
    c335:	50                   	push   %eax
    c336:	e8 72 ee ff ff       	call   0xb1ad
    c33b:	83 c4 10             	add    $0x10,%esp
    c33e:	eb af                	jmp    0xc2ef
    c340:	83 ec 0c             	sub    $0xc,%esp
    c343:	ff 74 24 18          	pushl  0x18(%esp)
    c347:	e8 61 ee ff ff       	call   0xb1ad
    c34c:	83 c4 10             	add    $0x10,%esp
    c34f:	bb 00 00 00 00       	mov    $0x0,%ebx
    c354:	e9 31 ff ff ff       	jmp    0xc28a
    c359:	bb ff ff ff ff       	mov    $0xffffffff,%ebx
    c35e:	e9 27 ff ff ff       	jmp    0xc28a
    c363:	55                   	push   %ebp
    c364:	89 e5                	mov    %esp,%ebp
    c366:	57                   	push   %edi
    c367:	56                   	push   %esi
    c368:	53                   	push   %ebx
    c369:	83 ec 24             	sub    $0x24,%esp
    c36c:	8b 5d 08             	mov    0x8(%ebp),%ebx
    c36f:	8b 75 0c             	mov    0xc(%ebp),%esi
    c372:	8d 96 ff 03 00 00    	lea    0x3ff(%esi),%edx
    c378:	89 d0                	mov    %edx,%eax
    c37a:	85 d2                	test   %edx,%edx
    c37c:	78 51                	js     0xc3cf
    c37e:	c1 f8 0a             	sar    $0xa,%eax
    c381:	50                   	push   %eax
    c382:	53                   	push   %ebx
    c383:	e8 55 fe ff ff       	call   0xc1dd
    c388:	83 c4 10             	add    $0x10,%esp
    c38b:	85 c0                	test   %eax,%eax
    c38d:	75 38                	jne    0xc3c7
    c38f:	8d 96 00 e8 ff ff    	lea    -0x1800(%esi),%edx
    c395:	85 d2                	test   %edx,%edx
    c397:	7e 2e                	jle    0xc3c7
    c399:	68 00 18 00 00       	push   $0x1800
    c39e:	52                   	push   %edx
    c39f:	0f b7 43 1c          	movzwl 0x1c(%ebx),%eax
    c3a3:	50                   	push   %eax
    c3a4:	0f b7 43 2c          	movzwl 0x2c(%ebx),%eax
    c3a8:	50                   	push   %eax
    c3a9:	e8 c1 fe ff ff       	call   0xc26f
    c3ae:	83 c4 10             	add    $0x10,%esp
    c3b1:	85 c0                	test   %eax,%eax
    c3b3:	75 12                	jne    0xc3c7
    c3b5:	8d be 00 e8 f7 ff    	lea    -0x81800(%esi),%edi
    c3bb:	85 ff                	test   %edi,%edi
    c3bd:	7e 08                	jle    0xc3c7
    c3bf:	0f b7 43 1e          	movzwl 0x1e(%ebx),%eax
    c3c3:	85 c0                	test   %eax,%eax
    c3c5:	75 10                	jne    0xc3d7
    c3c7:	8d 65 f4             	lea    -0xc(%ebp),%esp
    c3ca:	5b                   	pop    %ebx
    c3cb:	5e                   	pop    %esi
    c3cc:	5f                   	pop    %edi
    c3cd:	5d                   	pop    %ebp
    c3ce:	c3                   	ret    
    c3cf:	8d 86 fe 07 00 00    	lea    0x7fe(%esi),%eax
    c3d5:	eb a7                	jmp    0xc37e
    c3d7:	83 ec 08             	sub    $0x8,%esp
    c3da:	50                   	push   %eax
    c3db:	0f b7 43 2c          	movzwl 0x2c(%ebx),%eax
    c3df:	50                   	push   %eax
    c3e0:	e8 50 f1 ff ff       	call   0xb535
    c3e5:	83 c4 10             	add    $0x10,%esp
    c3e8:	85 c0                	test   %eax,%eax
    c3ea:	74 74                	je     0xc460
    c3ec:	8b 00                	mov    (%eax),%eax
    c3ee:	89 45 e4             	mov    %eax,-0x1c(%ebp)
    c3f1:	8d 86 00 e8 f7 ef    	lea    -0x10081800(%esi),%eax
    c3f7:	89 45 dc             	mov    %eax,-0x24(%ebp)
    c3fa:	8d 86 00 e8 ef ff    	lea    -0x101800(%esi),%eax
    c400:	81 ee 01 18 08 00    	sub    $0x81801,%esi
    c406:	81 e6 00 00 f8 ff    	and    $0xfff80000,%esi
    c40c:	29 f0                	sub    %esi,%eax
    c40e:	89 45 e0             	mov    %eax,-0x20(%ebp)
    c411:	be 00 18 08 00       	mov    $0x81800,%esi
    c416:	83 45 e4 02          	addl   $0x2,-0x1c(%ebp)
    c41a:	8b 45 e4             	mov    -0x1c(%ebp),%eax
    c41d:	56                   	push   %esi
    c41e:	57                   	push   %edi
    c41f:	0f b7 40 fe          	movzwl -0x2(%eax),%eax
    c423:	50                   	push   %eax
    c424:	0f b7 43 2c          	movzwl 0x2c(%ebx),%eax
    c428:	50                   	push   %eax
    c429:	e8 41 fe ff ff       	call   0xc26f
    c42e:	83 c4 10             	add    $0x10,%esp
    c431:	85 c0                	test   %eax,%eax
    c433:	75 92                	jne    0xc3c7
    c435:	81 ef 00 00 08 00    	sub    $0x80000,%edi
    c43b:	3b 7d e0             	cmp    -0x20(%ebp),%edi
    c43e:	74 87                	je     0xc3c7
    c440:	81 c6 00 04 00 00    	add    $0x400,%esi
    c446:	3b 7d dc             	cmp    -0x24(%ebp),%edi
    c449:	75 cb                	jne    0xc416
    c44b:	83 ec 0c             	sub    $0xc,%esp
    c44e:	68 e3 f5 00 00       	push   $0xf5e3
    c453:	e8 2b a0 ff ff       	call   0x6483
    c458:	83 c4 10             	add    $0x10,%esp
    c45b:	e9 67 ff ff ff       	jmp    0xc3c7
    c460:	b8 ff ff ff ff       	mov    $0xffffffff,%eax
    c465:	e9 5d ff ff ff       	jmp    0xc3c7
    c46a:	55                   	push   %ebp
    c46b:	57                   	push   %edi
    c46c:	56                   	push   %esi
    c46d:	53                   	push   %ebx
    c46e:	81 ec cc 00 00 00    	sub    $0xcc,%esp
    c474:	8b 84 24 e0 00 00 00 	mov    0xe0(%esp),%eax
    c47b:	89 44 24 20          	mov    %eax,0x20(%esp)
    c47f:	8b b4 24 e8 00 00 00 	mov    0xe8(%esp),%esi
    c486:	8b bc 24 ec 00 00 00 	mov    0xec(%esp),%edi
    c48d:	8b ac 24 f0 00 00 00 	mov    0xf0(%esp),%ebp
    c494:	65 8b 15 14 00 00 00 	mov    %gs:0x14,%edx
    c49b:	89 94 24 bc 00 00 00 	mov    %edx,0xbc(%esp)
    c4a2:	31 d2                	xor    %edx,%edx
    c4a4:	66 83 78 04 0f       	cmpw   $0xf,0x4(%eax)
    c4a9:	0f 85 86 00 00 00    	jne    0xc535
    c4af:	8d 44 24 3c          	lea    0x3c(%esp),%eax
    c4b3:	89 c3                	mov    %eax,%ebx
    c4b5:	89 44 24 2c          	mov    %eax,0x2c(%esp)
    c4b9:	8d 84 24 bc 00 00 00 	lea    0xbc(%esp),%eax
    c4c0:	c7 03 00 00 00 00    	movl   $0x0,(%ebx)
    c4c6:	83 c3 04             	add    $0x4,%ebx
    c4c9:	39 c3                	cmp    %eax,%ebx
    c4cb:	75 f3                	jne    0xc4c0
    c4cd:	83 ec 0c             	sub    $0xc,%esp
    c4d0:	56                   	push   %esi
    c4d1:	e8 85 0d 00 00       	call   0xd25b
    c4d6:	89 44 24 14          	mov    %eax,0x14(%esp)
    c4da:	83 c4 10             	add    $0x10,%esp
    c4dd:	85 c0                	test   %eax,%eax
    c4df:	0f 84 9d 05 00 00    	je     0xca82
    c4e5:	8b 00                	mov    (%eax),%eax
    c4e7:	0f b7 c8             	movzwl %ax,%ecx
    c4ea:	89 c2                	mov    %eax,%edx
    c4ec:	81 e2 00 f0 ff ff    	and    $0xfffff000,%edx
    c4f2:	66 81 fa 00 80       	cmp    $0x8000,%dx
    c4f7:	75 51                	jne    0xc54a
    c4f9:	8b 15 00 2d 01 00    	mov    0x12d00,%edx
    c4ff:	66 83 ba bc 00 00 00 	cmpw   $0x0,0xbc(%edx)
    c506:	00 
    c507:	74 5f                	je     0xc568
    c509:	66 8b b2 be 00 00 00 	mov    0xbe(%edx),%si
    c510:	66 85 f6             	test   %si,%si
    c513:	74 53                	je     0xc568
    c515:	8b 44 24 04          	mov    0x4(%esp),%eax
    c519:	66 3b 70 02          	cmp    0x2(%eax),%si
    c51d:	74 44                	je     0xc563
    c51f:	8b 44 24 04          	mov    0x4(%esp),%eax
    c523:	0f b6 40 0c          	movzbl 0xc(%eax),%eax
    c527:	66 39 82 c4 00 00 00 	cmp    %ax,0xc4(%edx)
    c52e:	75 3c                	jne    0xc56c
    c530:	c1 f9 03             	sar    $0x3,%ecx
    c533:	eb 37                	jmp    0xc56c
    c535:	83 ec 0c             	sub    $0xc,%esp
    c538:	68 80 fa 00 00       	push   $0xfa80
    c53d:	e8 41 9f ff ff       	call   0x6483
    c542:	83 c4 10             	add    $0x10,%esp
    c545:	e9 65 ff ff ff       	jmp    0xc4af
    c54a:	83 ec 0c             	sub    $0xc,%esp
    c54d:	ff 74 24 10          	pushl  0x10(%esp)
    c551:	e8 d0 e7 ff ff       	call   0xad26
    c556:	83 c4 10             	add    $0x10,%esp
    c559:	b8 f3 ff ff ff       	mov    $0xfffffff3,%eax
    c55e:	e9 eb 04 00 00       	jmp    0xca4e
    c563:	c1 f9 06             	sar    $0x6,%ecx
    c566:	eb 04                	jmp    0xc56c
    c568:	a8 49                	test   $0x49,%al
    c56a:	75 09                	jne    0xc575
    c56c:	f6 c1 01             	test   $0x1,%cl
    c56f:	0f 84 6e 01 00 00    	je     0xc6e3
    c575:	83 ec 08             	sub    $0x8,%esp
    c578:	8b 74 24 0c          	mov    0xc(%esp),%esi
    c57c:	0f b7 46 0e          	movzwl 0xe(%esi),%eax
    c580:	50                   	push   %eax
    c581:	0f b7 46 2c          	movzwl 0x2c(%esi),%eax
    c585:	50                   	push   %eax
    c586:	e8 aa ef ff ff       	call   0xb535
    c58b:	83 c4 10             	add    $0x10,%esp
    c58e:	85 c0                	test   %eax,%eax
    c590:	0f 84 66 01 00 00    	je     0xc6fc
    c596:	8b 10                	mov    (%eax),%edx
    c598:	8b 32                	mov    (%edx),%esi
    c59a:	89 74 24 0c          	mov    %esi,0xc(%esp)
    c59e:	8b 72 04             	mov    0x4(%edx),%esi
    c5a1:	89 74 24 08          	mov    %esi,0x8(%esp)
    c5a5:	8b 72 08             	mov    0x8(%edx),%esi
    c5a8:	89 74 24 14          	mov    %esi,0x14(%esp)
    c5ac:	8b 4a 0c             	mov    0xc(%edx),%ecx
    c5af:	89 4c 24 18          	mov    %ecx,0x18(%esp)
    c5b3:	8b 4a 10             	mov    0x10(%edx),%ecx
    c5b6:	89 4c 24 1c          	mov    %ecx,0x1c(%esp)
    c5ba:	8b 4a 14             	mov    0x14(%edx),%ecx
    c5bd:	89 4c 24 24          	mov    %ecx,0x24(%esp)
    c5c1:	8b 72 18             	mov    0x18(%edx),%esi
    c5c4:	8b 4a 1c             	mov    0x1c(%edx),%ecx
    c5c7:	89 4c 24 10          	mov    %ecx,0x10(%esp)
    c5cb:	83 ec 0c             	sub    $0xc,%esp
    c5ce:	50                   	push   %eax
    c5cf:	e8 d9 eb ff ff       	call   0xb1ad
    c5d4:	83 c4 10             	add    $0x10,%esp
    c5d7:	81 7c 24 0c 0b 01 00 	cmpl   $0x10b,0xc(%esp)
    c5de:	00 
    c5df:	0f 85 30 01 00 00    	jne    0xc715
    c5e5:	85 f6                	test   %esi,%esi
    c5e7:	0f 85 28 01 00 00    	jne    0xc715
    c5ed:	83 7c 24 10 00       	cmpl   $0x0,0x10(%esp)
    c5f2:	0f 85 1d 01 00 00    	jne    0xc715
    c5f8:	8b 44 24 14          	mov    0x14(%esp),%eax
    c5fc:	03 44 24 08          	add    0x8(%esp),%eax
    c600:	89 44 24 14          	mov    %eax,0x14(%esp)
    c604:	8b 74 24 18          	mov    0x18(%esp),%esi
    c608:	01 c6                	add    %eax,%esi
    c60a:	89 74 24 28          	mov    %esi,0x28(%esp)
    c60e:	81 fe 00 00 00 03    	cmp    $0x3000000,%esi
    c614:	0f 87 fb 00 00 00    	ja     0xc715
    c61a:	8b 4c 24 1c          	mov    0x1c(%esp),%ecx
    c61e:	8d 84 08 00 04 00 00 	lea    0x400(%eax,%ecx,1),%eax
    c625:	8b 74 24 04          	mov    0x4(%esp),%esi
    c629:	39 46 04             	cmp    %eax,0x4(%esi)
    c62c:	0f 82 e3 00 00 00    	jb     0xc715
    c632:	85 ff                	test   %edi,%edi
    c634:	0f 84 f4 00 00 00    	je     0xc72e
    c63a:	8d 47 04             	lea    0x4(%edi),%eax
    c63d:	64 8b 17             	mov    %fs:(%edi),%edx
    c640:	85 d2                	test   %edx,%edx
    c642:	0f 84 f3 00 00 00    	je     0xc73b
    c648:	ba 00 00 00 00       	mov    $0x0,%edx
    c64d:	42                   	inc    %edx
    c64e:	64 8b 08             	mov    %fs:(%eax),%ecx
    c651:	8d 40 04             	lea    0x4(%eax),%eax
    c654:	85 c9                	test   %ecx,%ecx
    c656:	75 f5                	jne    0xc64d
    c658:	89 54 24 10          	mov    %edx,0x10(%esp)
    c65c:	85 ed                	test   %ebp,%ebp
    c65e:	0f 84 e4 00 00 00    	je     0xc748
    c664:	8d 45 04             	lea    0x4(%ebp),%eax
    c667:	64 8b 55 00          	mov    %fs:0x0(%ebp),%edx
    c66b:	85 d2                	test   %edx,%edx
    c66d:	0f 84 e2 00 00 00    	je     0xc755
    c673:	ba 00 00 00 00       	mov    $0x0,%edx
    c678:	42                   	inc    %edx
    c679:	64 8b 08             	mov    %fs:(%eax),%ecx
    c67c:	8d 40 04             	lea    0x4(%eax),%eax
    c67f:	85 c9                	test   %ecx,%ecx
    c681:	75 f5                	jne    0xc678
    c683:	89 54 24 0c          	mov    %edx,0xc(%esp)
    c687:	83 ec 0c             	sub    $0xc,%esp
    c68a:	68 fc ff 01 00       	push   $0x1fffc
    c68f:	8d 4c 24 4c          	lea    0x4c(%esp),%ecx
    c693:	89 ea                	mov    %ebp,%edx
    c695:	8b 44 24 1c          	mov    0x1c(%esp),%eax
    c699:	e8 4e fa ff ff       	call   0xc0ec
    c69e:	89 04 24             	mov    %eax,(%esp)
    c6a1:	8d 4c 24 4c          	lea    0x4c(%esp),%ecx
    c6a5:	89 fa                	mov    %edi,%edx
    c6a7:	8b 44 24 20          	mov    0x20(%esp),%eax
    c6ab:	e8 3c fa ff ff       	call   0xc0ec
    c6b0:	89 c5                	mov    %eax,%ebp
    c6b2:	83 c4 10             	add    $0x10,%esp
    c6b5:	85 c0                	test   %eax,%eax
    c6b7:	0f 84 a5 00 00 00    	je     0xc762
    c6bd:	8b 15 00 2d 01 00    	mov    0x12d00,%edx
    c6c3:	8d 42 14             	lea    0x14(%edx),%eax
    c6c6:	81 c2 94 00 00 00    	add    $0x94,%edx
    c6cc:	c7 00 00 00 00 00    	movl   $0x0,(%eax)
    c6d2:	83 c0 04             	add    $0x4,%eax
    c6d5:	39 d0                	cmp    %edx,%eax
    c6d7:	75 f3                	jne    0xc6cc
    c6d9:	bb 00 00 00 00       	mov    $0x0,%ebx
    c6de:	e9 b6 00 00 00       	jmp    0xc799
    c6e3:	83 ec 0c             	sub    $0xc,%esp
    c6e6:	ff 74 24 10          	pushl  0x10(%esp)
    c6ea:	e8 37 e6 ff ff       	call   0xad26
    c6ef:	83 c4 10             	add    $0x10,%esp
    c6f2:	b8 f8 ff ff ff       	mov    $0xfffffff8,%eax
    c6f7:	e9 52 03 00 00       	jmp    0xca4e
    c6fc:	83 ec 0c             	sub    $0xc,%esp
    c6ff:	ff 74 24 10          	pushl  0x10(%esp)
    c703:	e8 1e e6 ff ff       	call   0xad26
    c708:	83 c4 10             	add    $0x10,%esp
    c70b:	b8 f3 ff ff ff       	mov    $0xfffffff3,%eax
    c710:	e9 39 03 00 00       	jmp    0xca4e
    c715:	83 ec 0c             	sub    $0xc,%esp
    c718:	ff 74 24 10          	pushl  0x10(%esp)
    c71c:	e8 05 e6 ff ff       	call   0xad26
    c721:	83 c4 10             	add    $0x10,%esp
    c724:	b8 f8 ff ff ff       	mov    $0xfffffff8,%eax
    c729:	e9 20 03 00 00       	jmp    0xca4e
    c72e:	c7 44 24 10 00 00 00 	movl   $0x0,0x10(%esp)
    c735:	00 
    c736:	e9 21 ff ff ff       	jmp    0xc65c
    c73b:	c7 44 24 10 00 00 00 	movl   $0x0,0x10(%esp)
    c742:	00 
    c743:	e9 14 ff ff ff       	jmp    0xc65c
    c748:	c7 44 24 0c 00 00 00 	movl   $0x0,0xc(%esp)
    c74f:	00 
    c750:	e9 32 ff ff ff       	jmp    0xc687
    c755:	c7 44 24 0c 00 00 00 	movl   $0x0,0xc(%esp)
    c75c:	00 
    c75d:	e9 25 ff ff ff       	jmp    0xc687
    c762:	8b 74 24 2c          	mov    0x2c(%esp),%esi
    c766:	83 ec 0c             	sub    $0xc,%esp
    c769:	ff 36                	pushl  (%esi)
    c76b:	e8 93 d3 ff ff       	call   0x9b03
    c770:	83 c6 04             	add    $0x4,%esi
    c773:	83 c4 10             	add    $0x10,%esp
    c776:	39 de                	cmp    %ebx,%esi
    c778:	75 ec                	jne    0xc766
    c77a:	83 ec 0c             	sub    $0xc,%esp
    c77d:	ff 74 24 10          	pushl  0x10(%esp)
    c781:	e8 a0 e5 ff ff       	call   0xad26
    c786:	83 c4 10             	add    $0x10,%esp
    c789:	b8 ff ff ff ff       	mov    $0xffffffff,%eax
    c78e:	e9 bb 02 00 00       	jmp    0xca4e
    c793:	43                   	inc    %ebx
    c794:	83 fb 14             	cmp    $0x14,%ebx
    c797:	74 21                	je     0xc7ba
    c799:	a1 00 2d 01 00       	mov    0x12d00,%eax
    c79e:	8b 80 f4 00 00 00    	mov    0xf4(%eax),%eax
    c7a4:	88 d9                	mov    %bl,%cl
    c7a6:	d3 e8                	shr    %cl,%eax
    c7a8:	a8 01                	test   $0x1,%al
    c7aa:	74 e7                	je     0xc793
    c7ac:	83 ec 0c             	sub    $0xc,%esp
    c7af:	53                   	push   %ebx
    c7b0:	e8 e4 dc ff ff       	call   0xa499
    c7b5:	83 c4 10             	add    $0x10,%esp
    c7b8:	eb d9                	jmp    0xc793
    c7ba:	a1 00 2d 01 00       	mov    0x12d00,%eax
    c7bf:	c7 80 f4 00 00 00 00 	movl   $0x0,0xf4(%eax)
    c7c6:	00 00 00 
    c7c9:	b9 0f 00 00 00       	mov    $0xf,%ecx
    c7ce:	0f 03 c9             	lsl    %cx,%ecx
    c7d1:	41                   	inc    %ecx
    c7d2:	8a b0 57 01 00 00    	mov    0x157(%eax),%dh
    c7d8:	8a 90 54 01 00 00    	mov    0x154(%eax),%dl
    c7de:	c1 e2 10             	shl    $0x10,%edx
    c7e1:	66 8b 90 52 01 00 00 	mov    0x152(%eax),%dx
    c7e8:	83 ec 08             	sub    $0x8,%esp
    c7eb:	51                   	push   %ecx
    c7ec:	52                   	push   %edx
    c7ed:	e8 71 d3 ff ff       	call   0x9b63
    c7f2:	b8 17 00 00 00       	mov    $0x17,%eax
    c7f7:	0f 03 c0             	lsl    %ax,%eax
    c7fa:	40                   	inc    %eax
    c7fb:	8b 15 00 2d 01 00    	mov    0x12d00,%edx
    c801:	8a b2 5f 01 00 00    	mov    0x15f(%edx),%dh
    c807:	8a 92 5c 01 00 00    	mov    0x15c(%edx),%dl
    c80d:	c1 e2 10             	shl    $0x10,%edx
    c810:	66 8b 92 5a 01 00 00 	mov    0x15a(%edx),%dx
    c817:	83 c4 08             	add    $0x8,%esp
    c81a:	50                   	push   %eax
    c81b:	52                   	push   %edx
    c81c:	e8 42 d3 ff ff       	call   0x9b63
    c821:	a1 00 2d 01 00       	mov    0x12d00,%eax
    c826:	83 c4 10             	add    $0x10,%esp
    c829:	39 05 00 69 01 00    	cmp    %eax,0x16900
    c82f:	0f 84 b9 00 00 00    	je     0xc8ee
    c835:	66 c7 80 e0 00 00 00 	movw   $0x0,0xe0(%eax)
    c83c:	00 00 
    c83e:	8b 7c 24 08          	mov    0x8(%esp),%edi
    c842:	8d 8f ff 0f 00 00    	lea    0xfff(%edi),%ecx
    c848:	8a b0 57 01 00 00    	mov    0x157(%eax),%dh
    c84e:	8a 90 54 01 00 00    	mov    0x154(%eax),%dl
    c854:	c1 e2 10             	shl    $0x10,%edx
    c857:	66 8b 90 52 01 00 00 	mov    0x152(%eax),%dx
    c85e:	89 d7                	mov    %edx,%edi
    c860:	66 89 90 52 01 00 00 	mov    %dx,0x152(%eax)
    c867:	c1 ca 10             	ror    $0x10,%edx
    c86a:	88 90 54 01 00 00    	mov    %dl,0x154(%eax)
    c870:	88 b0 57 01 00 00    	mov    %dh,0x157(%eax)
    c876:	81 e1 00 f0 ff ff    	and    $0xfffff000,%ecx
    c87c:	8d 51 ff             	lea    -0x1(%ecx),%edx
    c87f:	c1 ea 0c             	shr    $0xc,%edx
    c882:	66 89 90 50 01 00 00 	mov    %dx,0x150(%eax)
    c889:	c1 ca 10             	ror    $0x10,%edx
    c88c:	8a b0 56 01 00 00    	mov    0x156(%eax),%dh
    c892:	80 e6 f0             	and    $0xf0,%dh
    c895:	08 f2                	or     %dh,%dl
    c897:	88 90 56 01 00 00    	mov    %dl,0x156(%eax)
    c89d:	89 fa                	mov    %edi,%edx
    c89f:	66 89 90 5a 01 00 00 	mov    %dx,0x15a(%eax)
    c8a6:	c1 ca 10             	ror    $0x10,%edx
    c8a9:	88 90 5c 01 00 00    	mov    %dl,0x15c(%eax)
    c8af:	88 b0 5f 01 00 00    	mov    %dh,0x15f(%eax)
    c8b5:	ba ff 3f 00 00       	mov    $0x3fff,%edx
    c8ba:	66 89 90 58 01 00 00 	mov    %dx,0x158(%eax)
    c8c1:	c1 ca 10             	ror    $0x10,%edx
    c8c4:	8a b0 5e 01 00 00    	mov    0x15e(%eax),%dh
    c8ca:	80 e6 f0             	and    $0xf0,%dh
    c8cd:	08 f2                	or     %dh,%dl
    c8cf:	88 90 5e 01 00 00    	mov    %dl,0x15e(%eax)
    c8d5:	6a 17                	push   $0x17
    c8d7:	0f a1                	pop    %fs
    c8d9:	8d 9f 00 00 00 04    	lea    0x4000000(%edi),%ebx
    c8df:	8d b4 24 b8 00 00 00 	lea    0xb8(%esp),%esi
    c8e6:	81 c7 00 00 fe 03    	add    $0x3fe0000,%edi
    c8ec:	eb 16                	jmp    0xc904
    c8ee:	c7 05 00 69 01 00 00 	movl   $0x0,0x16900
    c8f5:	00 00 00 
    c8f8:	e9 38 ff ff ff       	jmp    0xc835
    c8fd:	83 ee 04             	sub    $0x4,%esi
    c900:	39 fb                	cmp    %edi,%ebx
    c902:	74 1b                	je     0xc91f
    c904:	81 eb 00 10 00 00    	sub    $0x1000,%ebx
    c90a:	8b 06                	mov    (%esi),%eax
    c90c:	85 c0                	test   %eax,%eax
    c90e:	74 ed                	je     0xc8fd
    c910:	83 ec 08             	sub    $0x8,%esp
    c913:	53                   	push   %ebx
    c914:	50                   	push   %eax
    c915:	e8 26 d4 ff ff       	call   0x9d40
    c91a:	83 c4 10             	add    $0x10,%esp
    c91d:	eb de                	jmp    0xc8fd
    c91f:	8d 95 00 00 fe 03    	lea    0x3fe0000(%ebp),%edx
    c925:	89 d0                	mov    %edx,%eax
    c927:	83 e2 fc             	and    $0xfffffffc,%edx
    c92a:	8b 4c 24 0c          	mov    0xc(%esp),%ecx
    c92e:	89 cb                	mov    %ecx,%ebx
    c930:	f7 d1                	not    %ecx
    c932:	8d 0c 8a             	lea    (%edx,%ecx,4),%ecx
    c935:	89 4c 24 18          	mov    %ecx,0x18(%esp)
    c939:	8b 7c 24 10          	mov    0x10(%esp),%edi
    c93d:	89 fe                	mov    %edi,%esi
    c93f:	89 fa                	mov    %edi,%edx
    c941:	f7 d2                	not    %edx
    c943:	8d 2c 91             	lea    (%ecx,%edx,4),%ebp
    c946:	64 89 4d fc          	mov    %ecx,%fs:-0x4(%ebp)
    c94a:	64 89 6d f8          	mov    %ebp,%fs:-0x8(%ebp)
    c94e:	8d 4d f4             	lea    -0xc(%ebp),%ecx
    c951:	89 4c 24 1c          	mov    %ecx,0x1c(%esp)
    c955:	64 89 7d f4          	mov    %edi,%fs:-0xc(%ebp)
    c959:	89 e9                	mov    %ebp,%ecx
    c95b:	eb 15                	jmp    0xc972
    c95d:	8d 79 04             	lea    0x4(%ecx),%edi
    c960:	64 89 01             	mov    %eax,%fs:(%ecx)
    c963:	8d 50 01             	lea    0x1(%eax),%edx
    c966:	64 8a 08             	mov    %fs:(%eax),%cl
    c969:	89 d0                	mov    %edx,%eax
    c96b:	84 c9                	test   %cl,%cl
    c96d:	75 f4                	jne    0xc963
    c96f:	4e                   	dec    %esi
    c970:	89 f9                	mov    %edi,%ecx
    c972:	85 f6                	test   %esi,%esi
    c974:	7f e7                	jg     0xc95d
    c976:	8b 7c 24 10          	mov    0x10(%esp),%edi
    c97a:	89 fa                	mov    %edi,%edx
    c97c:	85 ff                	test   %edi,%edi
    c97e:	78 10                	js     0xc990
    c980:	b9 00 00 00 00       	mov    $0x0,%ecx
    c985:	64 89 4c 95 00       	mov    %ecx,%fs:0x0(%ebp,%edx,4)
    c98a:	8b 4c 24 18          	mov    0x18(%esp),%ecx
    c98e:	eb 1c                	jmp    0xc9ac
    c990:	ba 00 00 00 00       	mov    $0x0,%edx
    c995:	eb e9                	jmp    0xc980
    c997:	8d 71 04             	lea    0x4(%ecx),%esi
    c99a:	64 89 01             	mov    %eax,%fs:(%ecx)
    c99d:	8d 50 01             	lea    0x1(%eax),%edx
    c9a0:	64 8a 08             	mov    %fs:(%eax),%cl
    c9a3:	89 d0                	mov    %edx,%eax
    c9a5:	84 c9                	test   %cl,%cl
    c9a7:	75 f4                	jne    0xc99d
    c9a9:	4b                   	dec    %ebx
    c9aa:	89 f1                	mov    %esi,%ecx
    c9ac:	85 db                	test   %ebx,%ebx
    c9ae:	7f e7                	jg     0xc997
    c9b0:	8b 7c 24 0c          	mov    0xc(%esp),%edi
    c9b4:	89 f8                	mov    %edi,%eax
    c9b6:	85 ff                	test   %edi,%edi
    c9b8:	0f 88 ab 00 00 00    	js     0xca69
    c9be:	ba 00 00 00 00       	mov    $0x0,%edx
    c9c3:	8b 7c 24 18          	mov    0x18(%esp),%edi
    c9c7:	64 89 14 87          	mov    %edx,%fs:(%edi,%eax,4)
    c9cb:	a1 00 2d 01 00       	mov    0x12d00,%eax
    c9d0:	8b 7c 24 08          	mov    0x8(%esp),%edi
    c9d4:	89 b8 98 00 00 00    	mov    %edi,0x98(%eax)
    c9da:	8b 7c 24 14          	mov    0x14(%esp),%edi
    c9de:	89 b8 9c 00 00 00    	mov    %edi,0x9c(%eax)
    c9e4:	8b 74 24 28          	mov    0x28(%esp),%esi
    c9e8:	89 b0 a0 00 00 00    	mov    %esi,0xa0(%eax)
    c9ee:	8b 54 24 1c          	mov    0x1c(%esp),%edx
    c9f2:	81 e2 00 f0 ff ff    	and    $0xfffff000,%edx
    c9f8:	89 90 a4 00 00 00    	mov    %edx,0xa4(%eax)
    c9fe:	89 fb                	mov    %edi,%ebx
    ca00:	83 ec 08             	sub    $0x8,%esp
    ca03:	57                   	push   %edi
    ca04:	8b 7c 24 10          	mov    0x10(%esp),%edi
    ca08:	57                   	push   %edi
    ca09:	e8 55 f9 ff ff       	call   0xc363
    ca0e:	89 c6                	mov    %eax,%esi
    ca10:	89 3c 24             	mov    %edi,(%esp)
    ca13:	e8 0e e3 ff ff       	call   0xad26
    ca18:	83 c4 10             	add    $0x10,%esp
    ca1b:	85 f6                	test   %esi,%esi
    ca1d:	78 54                	js     0xca73
    ca1f:	f7 44 24 14 ff 0f 00 	testl  $0xfff,0x14(%esp)
    ca26:	00 
    ca27:	74 0f                	je     0xca38
    ca29:	b0 00                	mov    $0x0,%al
    ca2b:	43                   	inc    %ebx
    ca2c:	64 88 43 ff          	mov    %al,%fs:-0x1(%ebx)
    ca30:	f7 c3 ff 0f 00 00    	test   $0xfff,%ebx
    ca36:	75 f3                	jne    0xca2b
    ca38:	8b 44 24 20          	mov    0x20(%esp),%eax
    ca3c:	8b 7c 24 24          	mov    0x24(%esp),%edi
    ca40:	89 38                	mov    %edi,(%eax)
    ca42:	8b 7c 24 1c          	mov    0x1c(%esp),%edi
    ca46:	89 78 0c             	mov    %edi,0xc(%eax)
    ca49:	b8 00 00 00 00       	mov    $0x0,%eax
    ca4e:	8b bc 24 bc 00 00 00 	mov    0xbc(%esp),%edi
    ca55:	65 33 3d 14 00 00 00 	xor    %gs:0x14,%edi
    ca5c:	75 2b                	jne    0xca89
    ca5e:	81 c4 cc 00 00 00    	add    $0xcc,%esp
    ca64:	5b                   	pop    %ebx
    ca65:	5e                   	pop    %esi
    ca66:	5f                   	pop    %edi
    ca67:	5d                   	pop    %ebp
    ca68:	c3                   	ret    
    ca69:	b8 00 00 00 00       	mov    $0x0,%eax
    ca6e:	e9 4b ff ff ff       	jmp    0xc9be
    ca73:	83 ec 0c             	sub    $0xc,%esp
    ca76:	6a ff                	push   $0xffffffff
    ca78:	e8 95 cd ff ff       	call   0x9812
    ca7d:	83 c4 10             	add    $0x10,%esp
    ca80:	eb 9d                	jmp    0xca1f
    ca82:	b8 fe ff ff ff       	mov    $0xfffffffe,%eax
    ca87:	eb c5                	jmp    0xca4e
    ca89:	e8 18 9a ff ff       	call   0x64a6
    ca8e:	56                   	push   %esi
    ca8f:	53                   	push   %ebx
    ca90:	83 ec 04             	sub    $0x4,%esp
    ca93:	8b 5c 24 10          	mov    0x10(%esp),%ebx
    ca97:	8b 43 12             	mov    0x12(%ebx),%eax
    ca9a:	39 43 0e             	cmp    %eax,0xe(%ebx)
    ca9d:	75 2a                	jne    0xcac9
    ca9f:	8d 73 20             	lea    0x20(%ebx),%esi
    caa2:	83 ec 0c             	sub    $0xc,%esp
    caa5:	56                   	push   %esi
    caa6:	e8 79 8c ff ff       	call   0x5724
    caab:	83 c4 10             	add    $0x10,%esp
    caae:	66 83 7b 30 02       	cmpw   $0x2,0x30(%ebx)
    cab3:	75 64                	jne    0xcb19
    cab5:	83 ec 0c             	sub    $0xc,%esp
    cab8:	56                   	push   %esi
    cab9:	e8 a2 8b ff ff       	call   0x5660
    cabe:	8b 43 12             	mov    0x12(%ebx),%eax
    cac1:	83 c4 10             	add    $0x10,%esp
    cac4:	39 43 0e             	cmp    %eax,0xe(%ebx)
    cac7:	74 d9                	je     0xcaa2
    cac9:	83 7c 24 18 00       	cmpl   $0x0,0x18(%esp)
    cace:	7e 43                	jle    0xcb13
    cad0:	8b 53 04             	mov    0x4(%ebx),%edx
    cad3:	8a 0c 02             	mov    (%edx,%eax,1),%cl
    cad6:	8b 74 24 14          	mov    0x14(%esp),%esi
    cada:	03 74 24 18          	add    0x18(%esp),%esi
    cade:	8b 54 24 14          	mov    0x14(%esp),%edx
    cae2:	8d 42 01             	lea    0x1(%edx),%eax
    cae5:	64 88 0a             	mov    %cl,%fs:(%edx)
    cae8:	ff 43 12             	incl   0x12(%ebx)
    caeb:	81 63 12 ff 0f 00 00 	andl   $0xfff,0x12(%ebx)
    caf2:	89 c2                	mov    %eax,%edx
    caf4:	39 f0                	cmp    %esi,%eax
    caf6:	75 ea                	jne    0xcae2
    caf8:	83 ec 0c             	sub    $0xc,%esp
    cafb:	83 c3 20             	add    $0x20,%ebx
    cafe:	53                   	push   %ebx
    caff:	e8 20 8c ff ff       	call   0x5724
    cb04:	89 f0                	mov    %esi,%eax
    cb06:	2b 44 24 24          	sub    0x24(%esp),%eax
    cb0a:	83 c4 10             	add    $0x10,%esp
    cb0d:	83 c4 04             	add    $0x4,%esp
    cb10:	5b                   	pop    %ebx
    cb11:	5e                   	pop    %esi
    cb12:	c3                   	ret    
    cb13:	8b 74 24 14          	mov    0x14(%esp),%esi
    cb17:	eb df                	jmp    0xcaf8
    cb19:	b8 00 00 00 00       	mov    $0x0,%eax
    cb1e:	eb ed                	jmp    0xcb0d
    cb20:	55                   	push   %ebp
    cb21:	57                   	push   %edi
    cb22:	56                   	push   %esi
    cb23:	53                   	push   %ebx
    cb24:	83 ec 28             	sub    $0x28,%esp
    cb27:	8b 5c 24 3c          	mov    0x3c(%esp),%ebx
    cb2b:	8b 7c 24 44          	mov    0x44(%esp),%edi
    cb2f:	8d 73 20             	lea    0x20(%ebx),%esi
    cb32:	56                   	push   %esi
    cb33:	e8 ec 8b ff ff       	call   0x5724
    cb38:	83 c4 10             	add    $0x10,%esp
    cb3b:	66 83 7b 30 02       	cmpw   $0x2,0x30(%ebx)
    cb40:	0f 85 87 00 00 00    	jne    0xcbcd
    cb46:	85 ff                	test   %edi,%edi
    cb48:	0f 8e ac 00 00 00    	jle    0xcbfa
    cb4e:	03 7c 24 34          	add    0x34(%esp),%edi
    cb52:	89 7c 24 0c          	mov    %edi,0xc(%esp)
    cb56:	8b 7c 24 34          	mov    0x34(%esp),%edi
    cb5a:	8b 53 0e             	mov    0xe(%ebx),%edx
    cb5d:	89 d0                	mov    %edx,%eax
    cb5f:	2b 43 12             	sub    0x12(%ebx),%eax
    cb62:	25 ff 0f 00 00       	and    $0xfff,%eax
    cb67:	3d ff 0f 00 00       	cmp    $0xfff,%eax
    cb6c:	75 33                	jne    0xcba1
    cb6e:	83 ec 0c             	sub    $0xc,%esp
    cb71:	56                   	push   %esi
    cb72:	e8 ad 8b ff ff       	call   0x5724
    cb77:	83 c4 10             	add    $0x10,%esp
    cb7a:	66 83 7b 30 02       	cmpw   $0x2,0x30(%ebx)
    cb7f:	75 5f                	jne    0xcbe0
    cb81:	83 ec 0c             	sub    $0xc,%esp
    cb84:	56                   	push   %esi
    cb85:	e8 d6 8a ff ff       	call   0x5660
    cb8a:	8b 53 0e             	mov    0xe(%ebx),%edx
    cb8d:	89 d0                	mov    %edx,%eax
    cb8f:	2b 43 12             	sub    0x12(%ebx),%eax
    cb92:	25 ff 0f 00 00       	and    $0xfff,%eax
    cb97:	83 c4 10             	add    $0x10,%esp
    cb9a:	3d ff 0f 00 00       	cmp    $0xfff,%eax
    cb9f:	74 cd                	je     0xcb6e
    cba1:	8d 6f 01             	lea    0x1(%edi),%ebp
    cba4:	64 8a 0f             	mov    %fs:(%edi),%cl
    cba7:	8b 43 04             	mov    0x4(%ebx),%eax
    cbaa:	88 0c 10             	mov    %cl,(%eax,%edx,1)
    cbad:	ff 43 0e             	incl   0xe(%ebx)
    cbb0:	81 63 0e ff 0f 00 00 	andl   $0xfff,0xe(%ebx)
    cbb7:	83 ec 0c             	sub    $0xc,%esp
    cbba:	56                   	push   %esi
    cbbb:	e8 64 8b ff ff       	call   0x5724
    cbc0:	83 c4 10             	add    $0x10,%esp
    cbc3:	39 6c 24 0c          	cmp    %ebp,0xc(%esp)
    cbc7:	74 35                	je     0xcbfe
    cbc9:	89 ef                	mov    %ebp,%edi
    cbcb:	eb 8d                	jmp    0xcb5a
    cbcd:	a1 00 2d 01 00       	mov    0x12d00,%eax
    cbd2:	81 48 0c 00 10 00 00 	orl    $0x1000,0xc(%eax)
    cbd9:	b8 ff ff ff ff       	mov    $0xffffffff,%eax
    cbde:	eb 12                	jmp    0xcbf2
    cbe0:	a1 00 2d 01 00       	mov    0x12d00,%eax
    cbe5:	81 48 0c 00 10 00 00 	orl    $0x1000,0xc(%eax)
    cbec:	89 f8                	mov    %edi,%eax
    cbee:	2b 44 24 34          	sub    0x34(%esp),%eax
    cbf2:	83 c4 1c             	add    $0x1c,%esp
    cbf5:	5b                   	pop    %ebx
    cbf6:	5e                   	pop    %esi
    cbf7:	5f                   	pop    %edi
    cbf8:	5d                   	pop    %ebp
    cbf9:	c3                   	ret    
    cbfa:	8b 6c 24 34          	mov    0x34(%esp),%ebp
    cbfe:	83 ec 0c             	sub    $0xc,%esp
    cc01:	56                   	push   %esi
    cc02:	e8 1d 8b ff ff       	call   0x5724
    cc07:	89 e8                	mov    %ebp,%eax
    cc09:	2b 44 24 44          	sub    0x44(%esp),%eax
    cc0d:	83 c4 10             	add    $0x10,%esp
    cc10:	eb e0                	jmp    0xcbf2
    cc12:	56                   	push   %esi
    cc13:	53                   	push   %ebx
    cc14:	83 ec 24             	sub    $0x24,%esp
    cc17:	8b 5c 24 30          	mov    0x30(%esp),%ebx
    cc1b:	65 a1 14 00 00 00    	mov    %gs:0x14,%eax
    cc21:	89 44 24 1c          	mov    %eax,0x1c(%esp)
    cc25:	31 c0                	xor    %eax,%eax
    cc27:	b8 00 9e 01 00       	mov    $0x19e00,%eax
    cc2c:	b9 00 a2 01 00       	mov    $0x1a200,%ecx
    cc31:	ba 00 00 00 00       	mov    $0x0,%edx
    cc36:	eb 10                	jmp    0xcc48
    cc38:	83 fa 01             	cmp    $0x1,%edx
    cc3b:	7f 21                	jg     0xcc5e
    cc3d:	83 c0 10             	add    $0x10,%eax
    cc40:	39 c8                	cmp    %ecx,%eax
    cc42:	0f 84 eb 00 00 00    	je     0xcd33
    cc48:	66 83 78 04 00       	cmpw   $0x0,0x4(%eax)
    cc4d:	75 e9                	jne    0xcc38
    cc4f:	89 44 94 0c          	mov    %eax,0xc(%esp,%edx,4)
    cc53:	66 c7 40 04 01 00    	movw   $0x1,0x4(%eax)
    cc59:	8d 52 01             	lea    0x1(%edx),%edx
    cc5c:	eb da                	jmp    0xcc38
    cc5e:	8b 0d 00 2d 01 00    	mov    0x12d00,%ecx
    cc64:	ba 00 00 00 00       	mov    $0x0,%edx
    cc69:	b8 00 00 00 00       	mov    $0x0,%eax
    cc6e:	eb 0f                	jmp    0xcc7f
    cc70:	40                   	inc    %eax
    cc71:	83 fa 01             	cmp    $0x1,%edx
    cc74:	7f 25                	jg     0xcc9b
    cc76:	83 f8 14             	cmp    $0x14,%eax
    cc79:	0f 84 d1 00 00 00    	je     0xcd50
    cc7f:	83 bc 81 f8 00 00 00 	cmpl   $0x0,0xf8(%ecx,%eax,4)
    cc86:	00 
    cc87:	75 e7                	jne    0xcc70
    cc89:	89 44 94 14          	mov    %eax,0x14(%esp,%edx,4)
    cc8d:	8b 74 94 0c          	mov    0xc(%esp,%edx,4),%esi
    cc91:	89 b4 81 f8 00 00 00 	mov    %esi,0xf8(%ecx,%eax,4)
    cc98:	42                   	inc    %edx
    cc99:	eb d5                	jmp    0xcc70
    cc9b:	e8 91 e2 ff ff       	call   0xaf31
    cca0:	85 c0                	test   %eax,%eax
    cca2:	74 51                	je     0xccf5
    cca4:	8b 54 24 10          	mov    0x10(%esp),%edx
    cca8:	89 42 08             	mov    %eax,0x8(%edx)
    ccab:	8b 4c 24 0c          	mov    0xc(%esp),%ecx
    ccaf:	89 41 08             	mov    %eax,0x8(%ecx)
    ccb2:	c7 42 0c 00 00 00 00 	movl   $0x0,0xc(%edx)
    ccb9:	c7 41 0c 00 00 00 00 	movl   $0x0,0xc(%ecx)
    ccc0:	66 c7 01 01 00       	movw   $0x1,(%ecx)
    ccc5:	66 c7 02 02 00       	movw   $0x2,(%edx)
    ccca:	8b 44 24 14          	mov    0x14(%esp),%eax
    ccce:	64 89 03             	mov    %eax,%fs:(%ebx)
    ccd1:	8b 44 24 18          	mov    0x18(%esp),%eax
    ccd5:	64 89 43 04          	mov    %eax,%fs:0x4(%ebx)
    ccd9:	b8 00 00 00 00       	mov    $0x0,%eax
    ccde:	8b 5c 24 1c          	mov    0x1c(%esp),%ebx
    cce2:	65 33 1d 14 00 00 00 	xor    %gs:0x14,%ebx
    cce9:	0f 85 98 00 00 00    	jne    0xcd87
    ccef:	83 c4 24             	add    $0x24,%esp
    ccf2:	5b                   	pop    %ebx
    ccf3:	5e                   	pop    %esi
    ccf4:	c3                   	ret    
    ccf5:	a1 00 2d 01 00       	mov    0x12d00,%eax
    ccfa:	8b 54 24 18          	mov    0x18(%esp),%edx
    ccfe:	c7 84 90 f8 00 00 00 	movl   $0x0,0xf8(%eax,%edx,4)
    cd05:	00 00 00 00 
    cd09:	8b 54 24 14          	mov    0x14(%esp),%edx
    cd0d:	c7 84 90 f8 00 00 00 	movl   $0x0,0xf8(%eax,%edx,4)
    cd14:	00 00 00 00 
    cd18:	8b 44 24 10          	mov    0x10(%esp),%eax
    cd1c:	66 c7 40 04 00 00    	movw   $0x0,0x4(%eax)
    cd22:	8b 44 24 0c          	mov    0xc(%esp),%eax
    cd26:	66 c7 40 04 00 00    	movw   $0x0,0x4(%eax)
    cd2c:	b8 ff ff ff ff       	mov    $0xffffffff,%eax
    cd31:	eb ab                	jmp    0xccde
    cd33:	83 fa 01             	cmp    $0x1,%edx
    cd36:	75 11                	jne    0xcd49
    cd38:	8b 44 24 0c          	mov    0xc(%esp),%eax
    cd3c:	66 c7 40 04 00 00    	movw   $0x0,0x4(%eax)
    cd42:	b8 ff ff ff ff       	mov    $0xffffffff,%eax
    cd47:	eb 95                	jmp    0xccde
    cd49:	b8 ff ff ff ff       	mov    $0xffffffff,%eax
    cd4e:	eb 8e                	jmp    0xccde
    cd50:	83 fa 01             	cmp    $0x1,%edx
    cd53:	75 14                	jne    0xcd69
    cd55:	a1 00 2d 01 00       	mov    0x12d00,%eax
    cd5a:	8b 54 24 14          	mov    0x14(%esp),%edx
    cd5e:	c7 84 90 f8 00 00 00 	movl   $0x0,0xf8(%eax,%edx,4)
    cd65:	00 00 00 00 
    cd69:	8b 44 24 10          	mov    0x10(%esp),%eax
    cd6d:	66 c7 40 04 00 00    	movw   $0x0,0x4(%eax)
    cd73:	8b 44 24 0c          	mov    0xc(%esp),%eax
    cd77:	66 c7 40 04 00 00    	movw   $0x0,0x4(%eax)
    cd7d:	b8 ff ff ff ff       	mov    $0xffffffff,%eax
    cd82:	e9 57 ff ff ff       	jmp    0xccde
    cd87:	e8 1a 97 ff ff       	call   0x64a6
    cd8c:	66 83 78 2c 00       	cmpw   $0x0,0x2c(%eax)
    cd91:	74 06                	je     0xcd99
    cd93:	80 78 0d 00          	cmpb   $0x0,0xd(%eax)
    cd97:	74 6a                	je     0xce03
    cd99:	55                   	push   %ebp
    cd9a:	57                   	push   %edi
    cd9b:	56                   	push   %esi
    cd9c:	53                   	push   %ebx
    cd9d:	8b 0d 00 2d 01 00    	mov    0x12d00,%ecx
    cda3:	8b b1 bc 00 00 00    	mov    0xbc(%ecx),%esi
    cda9:	66 85 f6             	test   %si,%si
    cdac:	74 3d                	je     0xcdeb
    cdae:	66 8b b9 be 00 00 00 	mov    0xbe(%ecx),%di
    cdb5:	66 85 ff             	test   %di,%di
    cdb8:	74 42                	je     0xcdfc
    cdba:	0f b7 18             	movzwl (%eax),%ebx
    cdbd:	66 8b 68 02          	mov    0x2(%eax),%bp
    cdc1:	66 39 ee             	cmp    %bp,%si
    cdc4:	74 20                	je     0xcde6
    cdc6:	66 39 ef             	cmp    %bp,%di
    cdc9:	74 1b                	je     0xcde6
    cdcb:	0f b6 40 0c          	movzbl 0xc(%eax),%eax
    cdcf:	66 39 81 c2 00 00 00 	cmp    %ax,0xc2(%ecx)
    cdd6:	74 09                	je     0xcde1
    cdd8:	66 3b 81 c4 00 00 00 	cmp    0xc4(%ecx),%ax
    cddf:	75 0f                	jne    0xcdf0
    cde1:	c1 fb 03             	sar    $0x3,%ebx
    cde4:	eb 0a                	jmp    0xcdf0
    cde6:	c1 fb 06             	sar    $0x6,%ebx
    cde9:	eb 05                	jmp    0xcdf0
    cdeb:	bb ff 01 00 00       	mov    $0x1ff,%ebx
    cdf0:	83 e2 07             	and    $0x7,%edx
    cdf3:	89 d0                	mov    %edx,%eax
    cdf5:	21 d8                	and    %ebx,%eax
    cdf7:	5b                   	pop    %ebx
    cdf8:	5e                   	pop    %esi
    cdf9:	5f                   	pop    %edi
    cdfa:	5d                   	pop    %ebp
    cdfb:	c3                   	ret    
    cdfc:	bb ff 01 00 00       	mov    $0x1ff,%ebx
    ce01:	eb ed                	jmp    0xcdf0
    ce03:	b8 00 00 00 00       	mov    $0x0,%eax
    ce08:	c3                   	ret    
    ce09:	55                   	push   %ebp
    ce0a:	57                   	push   %edi
    ce0b:	56                   	push   %esi
    ce0c:	53                   	push   %ebx
    ce0d:	83 ec 1c             	sub    $0x1c,%esp
    ce10:	8b 78 04             	mov    0x4(%eax),%edi
    ce13:	8b 74 24 30          	mov    0x30(%esp),%esi
    ce17:	c7 06 00 00 00 00    	movl   $0x0,(%esi)
    ce1d:	85 c9                	test   %ecx,%ecx
    ce1f:	0f 84 12 01 00 00    	je     0xcf37
    ce25:	0f b7 58 0e          	movzwl 0xe(%eax),%ebx
    ce29:	85 db                	test   %ebx,%ebx
    ce2b:	0f 84 0d 01 00 00    	je     0xcf3e
    ce31:	89 cd                	mov    %ecx,%ebp
    ce33:	89 4c 24 08          	mov    %ecx,0x8(%esp)
    ce37:	89 d6                	mov    %edx,%esi
    ce39:	89 44 24 04          	mov    %eax,0x4(%esp)
    ce3d:	83 ec 08             	sub    $0x8,%esp
    ce40:	53                   	push   %ebx
    ce41:	0f b7 40 2c          	movzwl 0x2c(%eax),%eax
    ce45:	50                   	push   %eax
    ce46:	e8 ea e6 ff ff       	call   0xb535
    ce4b:	89 c2                	mov    %eax,%edx
    ce4d:	83 c4 10             	add    $0x10,%esp
    ce50:	85 c0                	test   %eax,%eax
    ce52:	0f 84 d5 00 00 00    	je     0xcf2d
    ce58:	8b 18                	mov    (%eax),%ebx
    ce5a:	c1 ef 04             	shr    $0x4,%edi
    ce5d:	89 3c 24             	mov    %edi,(%esp)
    ce60:	0f 84 b6 00 00 00    	je     0xcf1c
    ce66:	89 6c 24 0c          	mov    %ebp,0xc(%esp)
    ce6a:	83 fd 0e             	cmp    $0xe,%ebp
    ce6d:	7e 08                	jle    0xce77
    ce6f:	c7 44 24 0c 0e 00 00 	movl   $0xe,0xc(%esp)
    ce76:	00 
    ce77:	bd 00 00 00 00       	mov    $0x0,%ebp
    ce7c:	eb 6d                	jmp    0xceeb
    ce7e:	83 ec 0c             	sub    $0xc,%esp
    ce81:	52                   	push   %edx
    ce82:	e8 26 e3 ff ff       	call   0xb1ad
    ce87:	89 ef                	mov    %ebp,%edi
    ce89:	83 c4 08             	add    $0x8,%esp
    ce8c:	89 e8                	mov    %ebp,%eax
    ce8e:	c1 e8 06             	shr    $0x6,%eax
    ce91:	50                   	push   %eax
    ce92:	ff 74 24 10          	pushl  0x10(%esp)
    ce96:	e8 59 de ff ff       	call   0xacf4
    ce9b:	83 c4 10             	add    $0x10,%esp
    ce9e:	85 c0                	test   %eax,%eax
    cea0:	74 1f                	je     0xcec1
    cea2:	83 ec 08             	sub    $0x8,%esp
    cea5:	50                   	push   %eax
    cea6:	8b 44 24 10          	mov    0x10(%esp),%eax
    ceaa:	0f b7 40 2c          	movzwl 0x2c(%eax),%eax
    ceae:	50                   	push   %eax
    ceaf:	e8 81 e6 ff ff       	call   0xb535
    ceb4:	89 c2                	mov    %eax,%edx
    ceb6:	83 c4 10             	add    $0x10,%esp
    ceb9:	85 c0                	test   %eax,%eax
    cebb:	74 04                	je     0xcec1
    cebd:	8b 18                	mov    (%eax),%ebx
    cebf:	eb 35                	jmp    0xcef6
    cec1:	8d 6f 40             	lea    0x40(%edi),%ebp
    cec4:	ba 00 00 00 00       	mov    $0x0,%edx
    cec9:	eb 1b                	jmp    0xcee6
    cecb:	8d 7b 02             	lea    0x2(%ebx),%edi
    cece:	b8 00 00 00 00       	mov    $0x0,%eax
    ced3:	8b 4c 24 0c          	mov    0xc(%esp),%ecx
    ced7:	fc                   	cld    
    ced8:	64 f3 a6             	repz cmpsb %es:(%edi),%fs:(%esi)
    cedb:	0f 94 c0             	sete   %al
    cede:	85 c0                	test   %eax,%eax
    cee0:	75 32                	jne    0xcf14
    cee2:	83 c3 10             	add    $0x10,%ebx
    cee5:	45                   	inc    %ebp
    cee6:	3b 2c 24             	cmp    (%esp),%ebp
    cee9:	7d 31                	jge    0xcf1c
    ceeb:	8b 02                	mov    (%edx),%eax
    ceed:	05 00 04 00 00       	add    $0x400,%eax
    cef2:	39 c3                	cmp    %eax,%ebx
    cef4:	73 88                	jae    0xce7e
    cef6:	85 db                	test   %ebx,%ebx
    cef8:	74 e8                	je     0xcee2
    cefa:	66 83 3b 00          	cmpw   $0x0,(%ebx)
    cefe:	74 e2                	je     0xcee2
    cf00:	83 7c 24 08 0d       	cmpl   $0xd,0x8(%esp)
    cf05:	7f c4                	jg     0xcecb
    cf07:	8b 44 24 0c          	mov    0xc(%esp),%eax
    cf0b:	80 7c 03 02 00       	cmpb   $0x0,0x2(%ebx,%eax,1)
    cf10:	74 b9                	je     0xcecb
    cf12:	eb ce                	jmp    0xcee2
    cf14:	8b 44 24 30          	mov    0x30(%esp),%eax
    cf18:	89 18                	mov    %ebx,(%eax)
    cf1a:	eb 11                	jmp    0xcf2d
    cf1c:	83 ec 0c             	sub    $0xc,%esp
    cf1f:	52                   	push   %edx
    cf20:	e8 88 e2 ff ff       	call   0xb1ad
    cf25:	83 c4 10             	add    $0x10,%esp
    cf28:	ba 00 00 00 00       	mov    $0x0,%edx
    cf2d:	89 d0                	mov    %edx,%eax
    cf2f:	83 c4 1c             	add    $0x1c,%esp
    cf32:	5b                   	pop    %ebx
    cf33:	5e                   	pop    %esi
    cf34:	5f                   	pop    %edi
    cf35:	5d                   	pop    %ebp
    cf36:	c3                   	ret    
    cf37:	ba 00 00 00 00       	mov    $0x0,%edx
    cf3c:	eb ef                	jmp    0xcf2d
    cf3e:	ba 00 00 00 00       	mov    $0x0,%edx
    cf43:	eb e8                	jmp    0xcf2d
    cf45:	55                   	push   %ebp
    cf46:	57                   	push   %edi
    cf47:	56                   	push   %esi
    cf48:	53                   	push   %ebx
    cf49:	83 ec 2c             	sub    $0x2c,%esp
    cf4c:	89 c5                	mov    %eax,%ebp
    cf4e:	89 54 24 08          	mov    %edx,0x8(%esp)
    cf52:	89 4c 24 0c          	mov    %ecx,0xc(%esp)
    cf56:	65 a1 14 00 00 00    	mov    %gs:0x14,%eax
    cf5c:	89 44 24 1c          	mov    %eax,0x1c(%esp)
    cf60:	31 c0                	xor    %eax,%eax
    cf62:	a1 00 2d 01 00       	mov    0x12d00,%eax
    cf67:	8b 80 f0 00 00 00    	mov    0xf0(%eax),%eax
    cf6d:	85 c0                	test   %eax,%eax
    cf6f:	74 07                	je     0xcf78
    cf71:	66 83 78 30 00       	cmpw   $0x0,0x30(%eax)
    cf76:	75 10                	jne    0xcf88
    cf78:	83 ec 0c             	sub    $0xc,%esp
    cf7b:	68 fe f5 00 00       	push   $0xf5fe
    cf80:	e8 fe 94 ff ff       	call   0x6483
    cf85:	83 c4 10             	add    $0x10,%esp
    cf88:	a1 00 2d 01 00       	mov    0x12d00,%eax
    cf8d:	8b 80 ec 00 00 00    	mov    0xec(%eax),%eax
    cf93:	85 c0                	test   %eax,%eax
    cf95:	74 07                	je     0xcf9e
    cf97:	66 83 78 30 00       	cmpw   $0x0,0x30(%eax)
    cf9c:	75 10                	jne    0xcfae
    cf9e:	83 ec 0c             	sub    $0xc,%esp
    cfa1:	68 0c f6 00 00       	push   $0xf60c
    cfa6:	e8 d8 94 ff ff       	call   0x6483
    cfab:	83 c4 10             	add    $0x10,%esp
    cfae:	64 8a 45 00          	mov    %fs:0x0(%ebp),%al
    cfb2:	3c 2f                	cmp    $0x2f,%al
    cfb4:	74 1f                	je     0xcfd5
    cfb6:	84 c0                	test   %al,%al
    cfb8:	0f 84 cd 00 00 00    	je     0xd08b
    cfbe:	a1 00 2d 01 00       	mov    0x12d00,%eax
    cfc3:	8b b0 ec 00 00 00    	mov    0xec(%eax),%esi
    cfc9:	89 ef                	mov    %ebp,%edi
    cfcb:	66 ff 46 30          	incw   0x30(%esi)
    cfcf:	89 6c 24 04          	mov    %ebp,0x4(%esp)
    cfd3:	eb 64                	jmp    0xd039
    cfd5:	a1 00 2d 01 00       	mov    0x12d00,%eax
    cfda:	8b b0 f0 00 00 00    	mov    0xf0(%eax),%esi
    cfe0:	8d 7d 01             	lea    0x1(%ebp),%edi
    cfe3:	eb e6                	jmp    0xcfcb
    cfe5:	89 c3                	mov    %eax,%ebx
    cfe7:	b9 00 00 00 00       	mov    $0x0,%ecx
    cfec:	83 ec 0c             	sub    $0xc,%esp
    cfef:	8d 44 24 24          	lea    0x24(%esp),%eax
    cff3:	50                   	push   %eax
    cff4:	89 fa                	mov    %edi,%edx
    cff6:	89 f0                	mov    %esi,%eax
    cff8:	e8 0c fe ff ff       	call   0xce09
    cffd:	83 c4 10             	add    $0x10,%esp
    d000:	85 c0                	test   %eax,%eax
    d002:	0f 84 8a 00 00 00    	je     0xd092
    d008:	8b 54 24 18          	mov    0x18(%esp),%edx
    d00c:	0f b7 2a             	movzwl (%edx),%ebp
    d00f:	0f b7 7e 2c          	movzwl 0x2c(%esi),%edi
    d013:	83 ec 0c             	sub    $0xc,%esp
    d016:	50                   	push   %eax
    d017:	e8 91 e1 ff ff       	call   0xb1ad
    d01c:	89 34 24             	mov    %esi,(%esp)
    d01f:	e8 02 dd ff ff       	call   0xad26
    d024:	83 c4 08             	add    $0x8,%esp
    d027:	55                   	push   %ebp
    d028:	57                   	push   %edi
    d029:	e8 4a df ff ff       	call   0xaf78
    d02e:	89 c6                	mov    %eax,%esi
    d030:	83 c4 10             	add    $0x10,%esp
    d033:	85 c0                	test   %eax,%eax
    d035:	74 54                	je     0xd08b
    d037:	89 df                	mov    %ebx,%edi
    d039:	8b 06                	mov    (%esi),%eax
    d03b:	25 00 f0 ff ff       	and    $0xfffff000,%eax
    d040:	66 3d 00 40          	cmp    $0x4000,%ax
    d044:	75 39                	jne    0xd07f
    d046:	ba 01 00 00 00       	mov    $0x1,%edx
    d04b:	89 f0                	mov    %esi,%eax
    d04d:	e8 3a fd ff ff       	call   0xcd8c
    d052:	85 c0                	test   %eax,%eax
    d054:	74 29                	je     0xd07f
    d056:	8d 47 01             	lea    0x1(%edi),%eax
    d059:	64 8a 17             	mov    %fs:(%edi),%dl
    d05c:	84 d2                	test   %dl,%dl
    d05e:	74 40                	je     0xd0a0
    d060:	80 fa 2f             	cmp    $0x2f,%dl
    d063:	74 80                	je     0xcfe5
    d065:	89 c1                	mov    %eax,%ecx
    d067:	29 f9                	sub    %edi,%ecx
    d069:	8d 58 01             	lea    0x1(%eax),%ebx
    d06c:	64 8a 10             	mov    %fs:(%eax),%dl
    d06f:	84 d2                	test   %dl,%dl
    d071:	74 33                	je     0xd0a6
    d073:	89 d8                	mov    %ebx,%eax
    d075:	80 fa 2f             	cmp    $0x2f,%dl
    d078:	75 eb                	jne    0xd065
    d07a:	e9 6d ff ff ff       	jmp    0xcfec
    d07f:	83 ec 0c             	sub    $0xc,%esp
    d082:	56                   	push   %esi
    d083:	e8 9e dc ff ff       	call   0xad26
    d088:	83 c4 10             	add    $0x10,%esp
    d08b:	be 00 00 00 00       	mov    $0x0,%esi
    d090:	eb 45                	jmp    0xd0d7
    d092:	83 ec 0c             	sub    $0xc,%esp
    d095:	56                   	push   %esi
    d096:	e8 8b dc ff ff       	call   0xad26
    d09b:	83 c4 10             	add    $0x10,%esp
    d09e:	eb eb                	jmp    0xd08b
    d0a0:	8b 6c 24 04          	mov    0x4(%esp),%ebp
    d0a4:	eb 04                	jmp    0xd0aa
    d0a6:	8b 6c 24 04          	mov    0x4(%esp),%ebp
    d0aa:	85 f6                	test   %esi,%esi
    d0ac:	74 29                	je     0xd0d7
    d0ae:	89 ea                	mov    %ebp,%edx
    d0b0:	eb 02                	jmp    0xd0b4
    d0b2:	89 c5                	mov    %eax,%ebp
    d0b4:	8d 45 01             	lea    0x1(%ebp),%eax
    d0b7:	64 8a 4d 00          	mov    %fs:0x0(%ebp),%cl
    d0bb:	84 c9                	test   %cl,%cl
    d0bd:	74 09                	je     0xd0c8
    d0bf:	80 f9 2f             	cmp    $0x2f,%cl
    d0c2:	75 ee                	jne    0xd0b2
    d0c4:	89 c2                	mov    %eax,%edx
    d0c6:	eb ea                	jmp    0xd0b2
    d0c8:	29 d0                	sub    %edx,%eax
    d0ca:	48                   	dec    %eax
    d0cb:	8b 5c 24 08          	mov    0x8(%esp),%ebx
    d0cf:	89 03                	mov    %eax,(%ebx)
    d0d1:	8b 44 24 0c          	mov    0xc(%esp),%eax
    d0d5:	89 10                	mov    %edx,(%eax)
    d0d7:	89 f0                	mov    %esi,%eax
    d0d9:	8b 74 24 1c          	mov    0x1c(%esp),%esi
    d0dd:	65 33 35 14 00 00 00 	xor    %gs:0x14,%esi
    d0e4:	75 08                	jne    0xd0ee
    d0e6:	83 c4 2c             	add    $0x2c,%esp
    d0e9:	5b                   	pop    %ebx
    d0ea:	5e                   	pop    %esi
    d0eb:	5f                   	pop    %edi
    d0ec:	5d                   	pop    %ebp
    d0ed:	c3                   	ret    
    d0ee:	e8 b3 93 ff ff       	call   0x64a6
    d0f3:	55                   	push   %ebp
    d0f4:	57                   	push   %edi
    d0f5:	56                   	push   %esi
    d0f6:	53                   	push   %ebx
    d0f7:	83 ec 1c             	sub    $0x1c,%esp
    d0fa:	89 c7                	mov    %eax,%edi
    d0fc:	89 54 24 0c          	mov    %edx,0xc(%esp)
    d100:	89 c8                	mov    %ecx,%eax
    d102:	89 4c 24 08          	mov    %ecx,0x8(%esp)
    d106:	8b 4c 24 30          	mov    0x30(%esp),%ecx
    d10a:	c7 01 00 00 00 00    	movl   $0x0,(%ecx)
    d110:	83 f8 0e             	cmp    $0xe,%eax
    d113:	7f 0e                	jg     0xd123
    d115:	85 c0                	test   %eax,%eax
    d117:	75 12                	jne    0xd12b
    d119:	b9 00 00 00 00       	mov    $0x0,%ecx
    d11e:	e9 20 01 00 00       	jmp    0xd243
    d123:	c7 44 24 08 0e 00 00 	movl   $0xe,0x8(%esp)
    d12a:	00 
    d12b:	0f b7 47 0e          	movzwl 0xe(%edi),%eax
    d12f:	85 c0                	test   %eax,%eax
    d131:	0f 84 16 01 00 00    	je     0xd24d
    d137:	83 ec 08             	sub    $0x8,%esp
    d13a:	50                   	push   %eax
    d13b:	0f b7 47 2c          	movzwl 0x2c(%edi),%eax
    d13f:	50                   	push   %eax
    d140:	e8 f0 e3 ff ff       	call   0xb535
    d145:	89 c1                	mov    %eax,%ecx
    d147:	83 c4 10             	add    $0x10,%esp
    d14a:	85 c0                	test   %eax,%eax
    d14c:	0f 84 f1 00 00 00    	je     0xd243
    d152:	8b 18                	mov    (%eax),%ebx
    d154:	be 00 00 00 00       	mov    $0x0,%esi
    d159:	eb 4d                	jmp    0xd1a8
    d15b:	83 ec 0c             	sub    $0xc,%esp
    d15e:	51                   	push   %ecx
    d15f:	e8 49 e0 ff ff       	call   0xb1ad
    d164:	83 c4 08             	add    $0x8,%esp
    d167:	89 f0                	mov    %esi,%eax
    d169:	c1 e8 06             	shr    $0x6,%eax
    d16c:	50                   	push   %eax
    d16d:	57                   	push   %edi
    d16e:	e8 9a db ff ff       	call   0xad0d
    d173:	83 c4 10             	add    $0x10,%esp
    d176:	85 c0                	test   %eax,%eax
    d178:	0f 84 d6 00 00 00    	je     0xd254
    d17e:	83 ec 08             	sub    $0x8,%esp
    d181:	50                   	push   %eax
    d182:	0f b7 47 2c          	movzwl 0x2c(%edi),%eax
    d186:	50                   	push   %eax
    d187:	e8 a9 e3 ff ff       	call   0xb535
    d18c:	89 c1                	mov    %eax,%ecx
    d18e:	83 c4 10             	add    $0x10,%esp
    d191:	85 c0                	test   %eax,%eax
    d193:	74 04                	je     0xd199
    d195:	8b 18                	mov    (%eax),%ebx
    d197:	eb 1a                	jmp    0xd1b3
    d199:	8d 76 40             	lea    0x40(%esi),%esi
    d19c:	eb 0a                	jmp    0xd1a8
    d19e:	66 83 3b 00          	cmpw   $0x0,(%ebx)
    d1a2:	74 4a                	je     0xd1ee
    d1a4:	83 c3 10             	add    $0x10,%ebx
    d1a7:	46                   	inc    %esi
    d1a8:	8b 01                	mov    (%ecx),%eax
    d1aa:	05 00 04 00 00       	add    $0x400,%eax
    d1af:	39 c3                	cmp    %eax,%ebx
    d1b1:	73 a8                	jae    0xd15b
    d1b3:	89 f0                	mov    %esi,%eax
    d1b5:	c1 e0 04             	shl    $0x4,%eax
    d1b8:	3b 47 04             	cmp    0x4(%edi),%eax
    d1bb:	72 e1                	jb     0xd19e
    d1bd:	66 c7 03 00 00       	movw   $0x0,(%ebx)
    d1c2:	83 c0 10             	add    $0x10,%eax
    d1c5:	89 47 04             	mov    %eax,0x4(%edi)
    d1c8:	c6 47 33 01          	movb   $0x1,0x33(%edi)
    d1cc:	8b 2d 08 69 01 00    	mov    0x16908,%ebp
    d1d2:	b8 1f 85 eb 51       	mov    $0x51eb851f,%eax
    d1d7:	f7 ed                	imul   %ebp
    d1d9:	89 d0                	mov    %edx,%eax
    d1db:	c1 f8 05             	sar    $0x5,%eax
    d1de:	c1 fd 1f             	sar    $0x1f,%ebp
    d1e1:	29 e8                	sub    %ebp,%eax
    d1e3:	03 05 04 69 01 00    	add    0x16904,%eax
    d1e9:	89 47 28             	mov    %eax,0x28(%edi)
    d1ec:	eb b0                	jmp    0xd19e
    d1ee:	8b 35 08 69 01 00    	mov    0x16908,%esi
    d1f4:	b8 1f 85 eb 51       	mov    $0x51eb851f,%eax
    d1f9:	f7 ee                	imul   %esi
    d1fb:	89 d0                	mov    %edx,%eax
    d1fd:	c1 f8 05             	sar    $0x5,%eax
    d200:	c1 fe 1f             	sar    $0x1f,%esi
    d203:	29 f0                	sub    %esi,%eax
    d205:	03 05 04 69 01 00    	add    0x16904,%eax
    d20b:	89 47 08             	mov    %eax,0x8(%edi)
    d20e:	b8 00 00 00 00       	mov    $0x0,%eax
    d213:	be 00 00 00 00       	mov    $0x0,%esi
    d218:	8b 6c 24 0c          	mov    0xc(%esp),%ebp
    d21c:	8b 7c 24 08          	mov    0x8(%esp),%edi
    d220:	eb 0c                	jmp    0xd22e
    d222:	89 f2                	mov    %esi,%edx
    d224:	88 54 03 02          	mov    %dl,0x2(%ebx,%eax,1)
    d228:	40                   	inc    %eax
    d229:	83 f8 0e             	cmp    $0xe,%eax
    d22c:	74 0b                	je     0xd239
    d22e:	39 c7                	cmp    %eax,%edi
    d230:	7e f0                	jle    0xd222
    d232:	64 8a 54 05 00       	mov    %fs:0x0(%ebp,%eax,1),%dl
    d237:	eb eb                	jmp    0xd224
    d239:	c6 41 09 01          	movb   $0x1,0x9(%ecx)
    d23d:	8b 44 24 30          	mov    0x30(%esp),%eax
    d241:	89 18                	mov    %ebx,(%eax)
    d243:	89 c8                	mov    %ecx,%eax
    d245:	83 c4 1c             	add    $0x1c,%esp
    d248:	5b                   	pop    %ebx
    d249:	5e                   	pop    %esi
    d24a:	5f                   	pop    %edi
    d24b:	5d                   	pop    %ebp
    d24c:	c3                   	ret    
    d24d:	b9 00 00 00 00       	mov    $0x0,%ecx
    d252:	eb ef                	jmp    0xd243
    d254:	b9 00 00 00 00       	mov    $0x0,%ecx
    d259:	eb e8                	jmp    0xd243
    d25b:	57                   	push   %edi
    d25c:	56                   	push   %esi
    d25d:	53                   	push   %ebx
    d25e:	83 ec 10             	sub    $0x10,%esp
    d261:	65 a1 14 00 00 00    	mov    %gs:0x14,%eax
    d267:	89 44 24 0c          	mov    %eax,0xc(%esp)
    d26b:	31 c0                	xor    %eax,%eax
    d26d:	89 e1                	mov    %esp,%ecx
    d26f:	8d 54 24 04          	lea    0x4(%esp),%edx
    d273:	8b 44 24 20          	mov    0x20(%esp),%eax
    d277:	e8 c9 fc ff ff       	call   0xcf45
    d27c:	89 c3                	mov    %eax,%ebx
    d27e:	85 c0                	test   %eax,%eax
    d280:	74 08                	je     0xd28a
    d282:	8b 4c 24 04          	mov    0x4(%esp),%ecx
    d286:	85 c9                	test   %ecx,%ecx
    d288:	75 1a                	jne    0xd2a4
    d28a:	89 d8                	mov    %ebx,%eax
    d28c:	8b 74 24 0c          	mov    0xc(%esp),%esi
    d290:	65 33 35 14 00 00 00 	xor    %gs:0x14,%esi
    d297:	0f 85 8f 00 00 00    	jne    0xd32c
    d29d:	83 c4 10             	add    $0x10,%esp
    d2a0:	5b                   	pop    %ebx
    d2a1:	5e                   	pop    %esi
    d2a2:	5f                   	pop    %edi
    d2a3:	c3                   	ret    
    d2a4:	83 ec 0c             	sub    $0xc,%esp
    d2a7:	8d 44 24 14          	lea    0x14(%esp),%eax
    d2ab:	50                   	push   %eax
    d2ac:	8b 54 24 10          	mov    0x10(%esp),%edx
    d2b0:	89 d8                	mov    %ebx,%eax
    d2b2:	e8 52 fb ff ff       	call   0xce09
    d2b7:	83 c4 10             	add    $0x10,%esp
    d2ba:	85 c0                	test   %eax,%eax
    d2bc:	74 58                	je     0xd316
    d2be:	8b 54 24 08          	mov    0x8(%esp),%edx
    d2c2:	0f b7 3a             	movzwl (%edx),%edi
    d2c5:	0f b7 73 2c          	movzwl 0x2c(%ebx),%esi
    d2c9:	83 ec 0c             	sub    $0xc,%esp
    d2cc:	50                   	push   %eax
    d2cd:	e8 db de ff ff       	call   0xb1ad
    d2d2:	89 1c 24             	mov    %ebx,(%esp)
    d2d5:	e8 4c da ff ff       	call   0xad26
    d2da:	83 c4 08             	add    $0x8,%esp
    d2dd:	57                   	push   %edi
    d2de:	56                   	push   %esi
    d2df:	e8 94 dc ff ff       	call   0xaf78
    d2e4:	89 c3                	mov    %eax,%ebx
    d2e6:	83 c4 10             	add    $0x10,%esp
    d2e9:	85 c0                	test   %eax,%eax
    d2eb:	74 9d                	je     0xd28a
    d2ed:	8b 0d 08 69 01 00    	mov    0x16908,%ecx
    d2f3:	b8 1f 85 eb 51       	mov    $0x51eb851f,%eax
    d2f8:	f7 e9                	imul   %ecx
    d2fa:	89 d0                	mov    %edx,%eax
    d2fc:	c1 f8 05             	sar    $0x5,%eax
    d2ff:	c1 f9 1f             	sar    $0x1f,%ecx
    d302:	29 c8                	sub    %ecx,%eax
    d304:	03 05 04 69 01 00    	add    0x16904,%eax
    d30a:	89 43 24             	mov    %eax,0x24(%ebx)
    d30d:	c6 43 33 01          	movb   $0x1,0x33(%ebx)
    d311:	e9 74 ff ff ff       	jmp    0xd28a
    d316:	83 ec 0c             	sub    $0xc,%esp
    d319:	53                   	push   %ebx
    d31a:	e8 07 da ff ff       	call   0xad26
    d31f:	83 c4 10             	add    $0x10,%esp
    d322:	bb 00 00 00 00       	mov    $0x0,%ebx
    d327:	e9 5e ff ff ff       	jmp    0xd28a
    d32c:	e8 75 91 ff ff       	call   0x64a6
    d331:	55                   	push   %ebp
    d332:	57                   	push   %edi
    d333:	56                   	push   %esi
    d334:	53                   	push   %ebx
    d335:	83 ec 2c             	sub    $0x2c,%esp
    d338:	8b 44 24 40          	mov    0x40(%esp),%eax
    d33c:	8b 74 24 4c          	mov    0x4c(%esp),%esi
    d340:	65 8b 0d 14 00 00 00 	mov    %gs:0x14,%ecx
    d347:	89 4c 24 1c          	mov    %ecx,0x1c(%esp)
    d34b:	31 c9                	xor    %ecx,%ecx
    d34d:	8b 54 24 44          	mov    0x44(%esp),%edx
    d351:	81 e2 03 02 00 00    	and    $0x203,%edx
    d357:	81 fa 00 02 00 00    	cmp    $0x200,%edx
    d35d:	74 54                	je     0xd3b3
    d35f:	8b 15 00 2d 01 00    	mov    0x12d00,%edx
    d365:	8b 9a e8 00 00 00    	mov    0xe8(%edx),%ebx
    d36b:	8d 4c 24 10          	lea    0x10(%esp),%ecx
    d36f:	8d 54 24 14          	lea    0x14(%esp),%edx
    d373:	e8 cd fb ff ff       	call   0xcf45
    d378:	89 c7                	mov    %eax,%edi
    d37a:	85 c0                	test   %eax,%eax
    d37c:	0f 84 4c 02 00 00    	je     0xd5ce
    d382:	8b 4c 24 14          	mov    0x14(%esp),%ecx
    d386:	85 c9                	test   %ecx,%ecx
    d388:	75 43                	jne    0xd3cd
    d38a:	8b 5c 24 44          	mov    0x44(%esp),%ebx
    d38e:	81 e3 43 02 00 00    	and    $0x243,%ebx
    d394:	75 24                	jne    0xd3ba
    d396:	89 06                	mov    %eax,(%esi)
    d398:	89 d8                	mov    %ebx,%eax
    d39a:	8b 74 24 1c          	mov    0x1c(%esp),%esi
    d39e:	65 33 35 14 00 00 00 	xor    %gs:0x14,%esi
    d3a5:	0f 85 41 02 00 00    	jne    0xd5ec
    d3ab:	83 c4 2c             	add    $0x2c,%esp
    d3ae:	5b                   	pop    %ebx
    d3af:	5e                   	pop    %esi
    d3b0:	5f                   	pop    %edi
    d3b1:	5d                   	pop    %ebp
    d3b2:	c3                   	ret    
    d3b3:	83 4c 24 44 01       	orl    $0x1,0x44(%esp)
    d3b8:	eb a5                	jmp    0xd35f
    d3ba:	83 ec 0c             	sub    $0xc,%esp
    d3bd:	50                   	push   %eax
    d3be:	e8 63 d9 ff ff       	call   0xad26
    d3c3:	83 c4 10             	add    $0x10,%esp
    d3c6:	bb eb ff ff ff       	mov    $0xffffffeb,%ebx
    d3cb:	eb cb                	jmp    0xd398
    d3cd:	83 ec 0c             	sub    $0xc,%esp
    d3d0:	8d 44 24 24          	lea    0x24(%esp),%eax
    d3d4:	50                   	push   %eax
    d3d5:	8b 54 24 20          	mov    0x20(%esp),%edx
    d3d9:	89 f8                	mov    %edi,%eax
    d3db:	e8 29 fa ff ff       	call   0xce09
    d3e0:	83 c4 10             	add    $0x10,%esp
    d3e3:	85 c0                	test   %eax,%eax
    d3e5:	0f 84 b2 00 00 00    	je     0xd49d
    d3eb:	8b 54 24 18          	mov    0x18(%esp),%edx
    d3ef:	0f b7 2a             	movzwl (%edx),%ebp
    d3f2:	0f b7 4f 2c          	movzwl 0x2c(%edi),%ecx
    d3f6:	89 4c 24 0c          	mov    %ecx,0xc(%esp)
    d3fa:	83 ec 0c             	sub    $0xc,%esp
    d3fd:	50                   	push   %eax
    d3fe:	e8 aa dd ff ff       	call   0xb1ad
    d403:	89 3c 24             	mov    %edi,(%esp)
    d406:	e8 1b d9 ff ff       	call   0xad26
    d40b:	83 c4 10             	add    $0x10,%esp
    d40e:	8b 5c 24 44          	mov    0x44(%esp),%ebx
    d412:	81 e3 80 00 00 00    	and    $0x80,%ebx
    d418:	0f 85 ba 01 00 00    	jne    0xd5d8
    d41e:	83 ec 08             	sub    $0x8,%esp
    d421:	55                   	push   %ebp
    d422:	ff 74 24 18          	pushl  0x18(%esp)
    d426:	e8 4d db ff ff       	call   0xaf78
    d42b:	89 c7                	mov    %eax,%edi
    d42d:	83 c4 10             	add    $0x10,%esp
    d430:	85 c0                	test   %eax,%eax
    d432:	0f 84 aa 01 00 00    	je     0xd5e2
    d438:	8b 00                	mov    (%eax),%eax
    d43a:	25 00 f0 ff ff       	and    $0xfffff000,%eax
    d43f:	66 3d 00 40          	cmp    $0x4000,%ax
    d443:	0f 84 53 01 00 00    	je     0xd59c
    d449:	8b 44 24 44          	mov    0x44(%esp),%eax
    d44d:	83 e0 03             	and    $0x3,%eax
    d450:	0f be a8 19 f6 00 00 	movsbl 0xf619(%eax),%ebp
    d457:	89 ea                	mov    %ebp,%edx
    d459:	89 f8                	mov    %edi,%eax
    d45b:	e8 2c f9 ff ff       	call   0xcd8c
    d460:	39 c5                	cmp    %eax,%ebp
    d462:	0f 85 3f 01 00 00    	jne    0xd5a7
    d468:	8b 0d 08 69 01 00    	mov    0x16908,%ecx
    d46e:	b8 1f 85 eb 51       	mov    $0x51eb851f,%eax
    d473:	f7 e9                	imul   %ecx
    d475:	89 d0                	mov    %edx,%eax
    d477:	c1 f8 05             	sar    $0x5,%eax
    d47a:	c1 f9 1f             	sar    $0x1f,%ecx
    d47d:	29 c8                	sub    %ecx,%eax
    d47f:	03 05 04 69 01 00    	add    0x16904,%eax
    d485:	89 47 24             	mov    %eax,0x24(%edi)
    d488:	f7 44 24 44 00 02 00 	testl  $0x200,0x44(%esp)
    d48f:	00 
    d490:	0f 85 27 01 00 00    	jne    0xd5bd
    d496:	89 3e                	mov    %edi,(%esi)
    d498:	e9 fb fe ff ff       	jmp    0xd398
    d49d:	f6 44 24 44 40       	testb  $0x40,0x44(%esp)
    d4a2:	0f 84 91 00 00 00    	je     0xd539
    d4a8:	ba 02 00 00 00       	mov    $0x2,%edx
    d4ad:	89 f8                	mov    %edi,%eax
    d4af:	e8 d8 f8 ff ff       	call   0xcd8c
    d4b4:	85 c0                	test   %eax,%eax
    d4b6:	0f 84 93 00 00 00    	je     0xd54f
    d4bc:	83 ec 0c             	sub    $0xc,%esp
    d4bf:	0f b7 47 2c          	movzwl 0x2c(%edi),%eax
    d4c3:	50                   	push   %eax
    d4c4:	e8 78 0f 00 00       	call   0xe441
    d4c9:	89 c5                	mov    %eax,%ebp
    d4cb:	83 c4 10             	add    $0x10,%esp
    d4ce:	85 c0                	test   %eax,%eax
    d4d0:	0f 84 8f 00 00 00    	je     0xd565
    d4d6:	f7 d3                	not    %ebx
    d4d8:	81 e3 ff 01 00 00    	and    $0x1ff,%ebx
    d4de:	23 5c 24 48          	and    0x48(%esp),%ebx
    d4e2:	80 cf 80             	or     $0x80,%bh
    d4e5:	66 89 18             	mov    %bx,(%eax)
    d4e8:	c6 40 33 01          	movb   $0x1,0x33(%eax)
    d4ec:	83 ec 0c             	sub    $0xc,%esp
    d4ef:	8d 44 24 24          	lea    0x24(%esp),%eax
    d4f3:	50                   	push   %eax
    d4f4:	8b 4c 24 24          	mov    0x24(%esp),%ecx
    d4f8:	8b 54 24 20          	mov    0x20(%esp),%edx
    d4fc:	89 f8                	mov    %edi,%eax
    d4fe:	e8 f0 fb ff ff       	call   0xd0f3
    d503:	83 c4 10             	add    $0x10,%esp
    d506:	85 c0                	test   %eax,%eax
    d508:	74 71                	je     0xd57b
    d50a:	66 8b 4d 2e          	mov    0x2e(%ebp),%cx
    d50e:	8b 54 24 18          	mov    0x18(%esp),%edx
    d512:	66 89 0a             	mov    %cx,(%edx)
    d515:	c6 40 09 01          	movb   $0x1,0x9(%eax)
    d519:	83 ec 0c             	sub    $0xc,%esp
    d51c:	50                   	push   %eax
    d51d:	e8 8b dc ff ff       	call   0xb1ad
    d522:	89 3c 24             	mov    %edi,(%esp)
    d525:	e8 fc d7 ff ff       	call   0xad26
    d52a:	89 2e                	mov    %ebp,(%esi)
    d52c:	83 c4 10             	add    $0x10,%esp
    d52f:	bb 00 00 00 00       	mov    $0x0,%ebx
    d534:	e9 5f fe ff ff       	jmp    0xd398
    d539:	83 ec 0c             	sub    $0xc,%esp
    d53c:	57                   	push   %edi
    d53d:	e8 e4 d7 ff ff       	call   0xad26
    d542:	83 c4 10             	add    $0x10,%esp
    d545:	bb fe ff ff ff       	mov    $0xfffffffe,%ebx
    d54a:	e9 49 fe ff ff       	jmp    0xd398
    d54f:	83 ec 0c             	sub    $0xc,%esp
    d552:	57                   	push   %edi
    d553:	e8 ce d7 ff ff       	call   0xad26
    d558:	83 c4 10             	add    $0x10,%esp
    d55b:	bb f3 ff ff ff       	mov    $0xfffffff3,%ebx
    d560:	e9 33 fe ff ff       	jmp    0xd398
    d565:	83 ec 0c             	sub    $0xc,%esp
    d568:	57                   	push   %edi
    d569:	e8 b8 d7 ff ff       	call   0xad26
    d56e:	83 c4 10             	add    $0x10,%esp
    d571:	bb e4 ff ff ff       	mov    $0xffffffe4,%ebx
    d576:	e9 1d fe ff ff       	jmp    0xd398
    d57b:	fe 4d 0d             	decb   0xd(%ebp)
    d57e:	83 ec 0c             	sub    $0xc,%esp
    d581:	55                   	push   %ebp
    d582:	e8 9f d7 ff ff       	call   0xad26
    d587:	89 3c 24             	mov    %edi,(%esp)
    d58a:	e8 97 d7 ff ff       	call   0xad26
    d58f:	83 c4 10             	add    $0x10,%esp
    d592:	bb e4 ff ff ff       	mov    $0xffffffe4,%ebx
    d597:	e9 fc fd ff ff       	jmp    0xd398
    d59c:	f6 44 24 44 03       	testb  $0x3,0x44(%esp)
    d5a1:	0f 84 a2 fe ff ff    	je     0xd449
    d5a7:	83 ec 0c             	sub    $0xc,%esp
    d5aa:	57                   	push   %edi
    d5ab:	e8 76 d7 ff ff       	call   0xad26
    d5b0:	83 c4 10             	add    $0x10,%esp
    d5b3:	bb ff ff ff ff       	mov    $0xffffffff,%ebx
    d5b8:	e9 db fd ff ff       	jmp    0xd398
    d5bd:	83 ec 0c             	sub    $0xc,%esp
    d5c0:	57                   	push   %edi
    d5c1:	e8 a7 14 00 00       	call   0xea6d
    d5c6:	83 c4 10             	add    $0x10,%esp
    d5c9:	e9 c8 fe ff ff       	jmp    0xd496
    d5ce:	bb fe ff ff ff       	mov    $0xfffffffe,%ebx
    d5d3:	e9 c0 fd ff ff       	jmp    0xd398
    d5d8:	bb ef ff ff ff       	mov    $0xffffffef,%ebx
    d5dd:	e9 b6 fd ff ff       	jmp    0xd398
    d5e2:	bb f3 ff ff ff       	mov    $0xfffffff3,%ebx
    d5e7:	e9 ac fd ff ff       	jmp    0xd398
    d5ec:	e8 b5 8e ff ff       	call   0x64a6
    d5f1:	55                   	push   %ebp
    d5f2:	57                   	push   %edi
    d5f3:	56                   	push   %esi
    d5f4:	53                   	push   %ebx
    d5f5:	83 ec 1c             	sub    $0x1c,%esp
    d5f8:	8b 44 24 30          	mov    0x30(%esp),%eax
    d5fc:	65 8b 3d 14 00 00 00 	mov    %gs:0x14,%edi
    d603:	89 7c 24 0c          	mov    %edi,0xc(%esp)
    d607:	31 ff                	xor    %edi,%edi
    d609:	8b 15 00 2d 01 00    	mov    0x12d00,%edx
    d60f:	66 83 ba be 00 00 00 	cmpw   $0x0,0xbe(%edx)
    d616:	00 
    d617:	74 0e                	je     0xd627
    d619:	66 83 ba bc 00 00 00 	cmpw   $0x0,0xbc(%edx)
    d620:	00 
    d621:	0f 85 99 02 00 00    	jne    0xd8c0
    d627:	89 e1                	mov    %esp,%ecx
    d629:	8d 54 24 04          	lea    0x4(%esp),%edx
    d62d:	e8 13 f9 ff ff       	call   0xcf45
    d632:	89 c5                	mov    %eax,%ebp
    d634:	85 c0                	test   %eax,%eax
    d636:	0f 84 8e 02 00 00    	je     0xd8ca
    d63c:	8b 5c 24 04          	mov    0x4(%esp),%ebx
    d640:	85 db                	test   %ebx,%ebx
    d642:	0f 84 9c 01 00 00    	je     0xd7e4
    d648:	ba 02 00 00 00       	mov    $0x2,%edx
    d64d:	e8 3a f7 ff ff       	call   0xcd8c
    d652:	85 c0                	test   %eax,%eax
    d654:	0f 84 9d 01 00 00    	je     0xd7f7
    d65a:	83 ec 0c             	sub    $0xc,%esp
    d65d:	8d 44 24 14          	lea    0x14(%esp),%eax
    d661:	50                   	push   %eax
    d662:	89 d9                	mov    %ebx,%ecx
    d664:	8b 54 24 10          	mov    0x10(%esp),%edx
    d668:	89 e8                	mov    %ebp,%eax
    d66a:	e8 9a f7 ff ff       	call   0xce09
    d66f:	83 c4 10             	add    $0x10,%esp
    d672:	85 c0                	test   %eax,%eax
    d674:	0f 85 90 01 00 00    	jne    0xd80a
    d67a:	83 ec 0c             	sub    $0xc,%esp
    d67d:	0f b7 45 2c          	movzwl 0x2c(%ebp),%eax
    d681:	50                   	push   %eax
    d682:	e8 ba 0d 00 00       	call   0xe441
    d687:	89 c3                	mov    %eax,%ebx
    d689:	83 c4 10             	add    $0x10,%esp
    d68c:	85 c0                	test   %eax,%eax
    d68e:	0f 84 91 01 00 00    	je     0xd825
    d694:	c7 40 04 20 00 00 00 	movl   $0x20,0x4(%eax)
    d69b:	c6 40 33 01          	movb   $0x1,0x33(%eax)
    d69f:	8b 0d 08 69 01 00    	mov    0x16908,%ecx
    d6a5:	b8 1f 85 eb 51       	mov    $0x51eb851f,%eax
    d6aa:	f7 e9                	imul   %ecx
    d6ac:	89 d0                	mov    %edx,%eax
    d6ae:	c1 f8 05             	sar    $0x5,%eax
    d6b1:	c1 f9 1f             	sar    $0x1f,%ecx
    d6b4:	29 c8                	sub    %ecx,%eax
    d6b6:	03 05 04 69 01 00    	add    0x16904,%eax
    d6bc:	89 43 24             	mov    %eax,0x24(%ebx)
    d6bf:	89 43 08             	mov    %eax,0x8(%ebx)
    d6c2:	83 ec 0c             	sub    $0xc,%esp
    d6c5:	0f b7 43 2c          	movzwl 0x2c(%ebx),%eax
    d6c9:	50                   	push   %eax
    d6ca:	e8 db 0a 00 00       	call   0xe1aa
    d6cf:	66 89 43 0e          	mov    %ax,0xe(%ebx)
    d6d3:	83 c4 10             	add    $0x10,%esp
    d6d6:	66 85 c0             	test   %ax,%ax
    d6d9:	0f 84 59 01 00 00    	je     0xd838
    d6df:	c6 43 33 01          	movb   $0x1,0x33(%ebx)
    d6e3:	83 ec 08             	sub    $0x8,%esp
    d6e6:	0f b7 c0             	movzwl %ax,%eax
    d6e9:	50                   	push   %eax
    d6ea:	0f b7 43 2c          	movzwl 0x2c(%ebx),%eax
    d6ee:	50                   	push   %eax
    d6ef:	e8 41 de ff ff       	call   0xb535
    d6f4:	89 c2                	mov    %eax,%edx
    d6f6:	83 c4 10             	add    $0x10,%esp
    d6f9:	85 c0                	test   %eax,%eax
    d6fb:	0f 84 58 01 00 00    	je     0xd859
    d701:	8b 00                	mov    (%eax),%eax
    d703:	89 44 24 08          	mov    %eax,0x8(%esp)
    d707:	66 8b 4b 2e          	mov    0x2e(%ebx),%cx
    d70b:	66 89 08             	mov    %cx,(%eax)
    d70e:	8b 4c 24 08          	mov    0x8(%esp),%ecx
    d712:	8d 79 02             	lea    0x2(%ecx),%edi
    d715:	be 1e f6 00 00       	mov    $0xf61e,%esi
    d71a:	fc                   	cld    
    d71b:	ac                   	lods   %ds:(%esi),%al
    d71c:	aa                   	stos   %al,%es:(%edi)
    d71d:	84 c0                	test   %al,%al
    d71f:	75 fa                	jne    0xd71b
    d721:	8d 41 10             	lea    0x10(%ecx),%eax
    d724:	89 44 24 08          	mov    %eax,0x8(%esp)
    d728:	66 8b 45 2e          	mov    0x2e(%ebp),%ax
    d72c:	66 89 41 10          	mov    %ax,0x10(%ecx)
    d730:	8d 79 12             	lea    0x12(%ecx),%edi
    d733:	be 20 f6 00 00       	mov    $0xf620,%esi
    d738:	fc                   	cld    
    d739:	ac                   	lods   %ds:(%esi),%al
    d73a:	aa                   	stos   %al,%es:(%edi)
    d73b:	84 c0                	test   %al,%al
    d73d:	75 fa                	jne    0xd739
    d73f:	c6 43 0d 02          	movb   $0x2,0xd(%ebx)
    d743:	c6 42 09 01          	movb   $0x1,0x9(%edx)
    d747:	83 ec 0c             	sub    $0xc,%esp
    d74a:	52                   	push   %edx
    d74b:	e8 5d da ff ff       	call   0xb1ad
    d750:	a1 00 2d 01 00       	mov    0x12d00,%eax
    d755:	8b 80 e8 00 00 00    	mov    0xe8(%eax),%eax
    d75b:	f7 d0                	not    %eax
    d75d:	23 44 24 44          	and    0x44(%esp),%eax
    d761:	25 ff 01 00 00       	and    $0x1ff,%eax
    d766:	80 cc 40             	or     $0x40,%ah
    d769:	66 89 03             	mov    %ax,(%ebx)
    d76c:	c6 43 33 01          	movb   $0x1,0x33(%ebx)
    d770:	83 c4 04             	add    $0x4,%esp
    d773:	8d 44 24 14          	lea    0x14(%esp),%eax
    d777:	50                   	push   %eax
    d778:	8b 4c 24 14          	mov    0x14(%esp),%ecx
    d77c:	8b 54 24 10          	mov    0x10(%esp),%edx
    d780:	89 e8                	mov    %ebp,%eax
    d782:	e8 6c f9 ff ff       	call   0xd0f3
    d787:	89 c6                	mov    %eax,%esi
    d789:	83 c4 10             	add    $0x10,%esp
    d78c:	85 c0                	test   %eax,%eax
    d78e:	0f 84 f8 00 00 00    	je     0xd88c
    d794:	66 8b 53 2e          	mov    0x2e(%ebx),%dx
    d798:	8b 44 24 08          	mov    0x8(%esp),%eax
    d79c:	66 89 10             	mov    %dx,(%eax)
    d79f:	c6 46 09 01          	movb   $0x1,0x9(%esi)
    d7a3:	fe 45 0d             	incb   0xd(%ebp)
    d7a6:	c6 45 33 01          	movb   $0x1,0x33(%ebp)
    d7aa:	83 ec 0c             	sub    $0xc,%esp
    d7ad:	55                   	push   %ebp
    d7ae:	e8 73 d5 ff ff       	call   0xad26
    d7b3:	89 1c 24             	mov    %ebx,(%esp)
    d7b6:	e8 6b d5 ff ff       	call   0xad26
    d7bb:	89 34 24             	mov    %esi,(%esp)
    d7be:	e8 ea d9 ff ff       	call   0xb1ad
    d7c3:	83 c4 10             	add    $0x10,%esp
    d7c6:	b8 00 00 00 00       	mov    $0x0,%eax
    d7cb:	8b 7c 24 0c          	mov    0xc(%esp),%edi
    d7cf:	65 33 3d 14 00 00 00 	xor    %gs:0x14,%edi
    d7d6:	0f 85 f8 00 00 00    	jne    0xd8d4
    d7dc:	83 c4 1c             	add    $0x1c,%esp
    d7df:	5b                   	pop    %ebx
    d7e0:	5e                   	pop    %esi
    d7e1:	5f                   	pop    %edi
    d7e2:	5d                   	pop    %ebp
    d7e3:	c3                   	ret    
    d7e4:	83 ec 0c             	sub    $0xc,%esp
    d7e7:	50                   	push   %eax
    d7e8:	e8 39 d5 ff ff       	call   0xad26
    d7ed:	83 c4 10             	add    $0x10,%esp
    d7f0:	b8 fe ff ff ff       	mov    $0xfffffffe,%eax
    d7f5:	eb d4                	jmp    0xd7cb
    d7f7:	83 ec 0c             	sub    $0xc,%esp
    d7fa:	55                   	push   %ebp
    d7fb:	e8 26 d5 ff ff       	call   0xad26
    d800:	83 c4 10             	add    $0x10,%esp
    d803:	b8 ff ff ff ff       	mov    $0xffffffff,%eax
    d808:	eb c1                	jmp    0xd7cb
    d80a:	83 ec 0c             	sub    $0xc,%esp
    d80d:	50                   	push   %eax
    d80e:	e8 9a d9 ff ff       	call   0xb1ad
    d813:	89 2c 24             	mov    %ebp,(%esp)
    d816:	e8 0b d5 ff ff       	call   0xad26
    d81b:	83 c4 10             	add    $0x10,%esp
    d81e:	b8 ef ff ff ff       	mov    $0xffffffef,%eax
    d823:	eb a6                	jmp    0xd7cb
    d825:	83 ec 0c             	sub    $0xc,%esp
    d828:	55                   	push   %ebp
    d829:	e8 f8 d4 ff ff       	call   0xad26
    d82e:	83 c4 10             	add    $0x10,%esp
    d831:	b8 e4 ff ff ff       	mov    $0xffffffe4,%eax
    d836:	eb 93                	jmp    0xd7cb
    d838:	83 ec 0c             	sub    $0xc,%esp
    d83b:	55                   	push   %ebp
    d83c:	e8 e5 d4 ff ff       	call   0xad26
    d841:	fe 4b 0d             	decb   0xd(%ebx)
    d844:	89 1c 24             	mov    %ebx,(%esp)
    d847:	e8 da d4 ff ff       	call   0xad26
    d84c:	83 c4 10             	add    $0x10,%esp
    d84f:	b8 e4 ff ff ff       	mov    $0xffffffe4,%eax
    d854:	e9 72 ff ff ff       	jmp    0xd7cb
    d859:	83 ec 0c             	sub    $0xc,%esp
    d85c:	55                   	push   %ebp
    d85d:	e8 c4 d4 ff ff       	call   0xad26
    d862:	83 c4 08             	add    $0x8,%esp
    d865:	0f b7 43 0e          	movzwl 0xe(%ebx),%eax
    d869:	50                   	push   %eax
    d86a:	0f b7 43 2c          	movzwl 0x2c(%ebx),%eax
    d86e:	50                   	push   %eax
    d86f:	e8 0e 08 00 00       	call   0xe082
    d874:	fe 4b 0d             	decb   0xd(%ebx)
    d877:	89 1c 24             	mov    %ebx,(%esp)
    d87a:	e8 a7 d4 ff ff       	call   0xad26
    d87f:	83 c4 10             	add    $0x10,%esp
    d882:	b8 9d ff ff ff       	mov    $0xffffff9d,%eax
    d887:	e9 3f ff ff ff       	jmp    0xd7cb
    d88c:	83 ec 0c             	sub    $0xc,%esp
    d88f:	55                   	push   %ebp
    d890:	e8 91 d4 ff ff       	call   0xad26
    d895:	83 c4 08             	add    $0x8,%esp
    d898:	0f b7 43 0e          	movzwl 0xe(%ebx),%eax
    d89c:	50                   	push   %eax
    d89d:	0f b7 43 2c          	movzwl 0x2c(%ebx),%eax
    d8a1:	50                   	push   %eax
    d8a2:	e8 db 07 00 00       	call   0xe082
    d8a7:	c6 43 0d 00          	movb   $0x0,0xd(%ebx)
    d8ab:	89 1c 24             	mov    %ebx,(%esp)
    d8ae:	e8 73 d4 ff ff       	call   0xad26
    d8b3:	83 c4 10             	add    $0x10,%esp
    d8b6:	b8 e4 ff ff ff       	mov    $0xffffffe4,%eax
    d8bb:	e9 0b ff ff ff       	jmp    0xd7cb
    d8c0:	b8 ff ff ff ff       	mov    $0xffffffff,%eax
    d8c5:	e9 01 ff ff ff       	jmp    0xd7cb
    d8ca:	b8 fe ff ff ff       	mov    $0xfffffffe,%eax
    d8cf:	e9 f7 fe ff ff       	jmp    0xd7cb
    d8d4:	e8 cd 8b ff ff       	call   0x64a6
    d8d9:	55                   	push   %ebp
    d8da:	57                   	push   %edi
    d8db:	56                   	push   %esi
    d8dc:	53                   	push   %ebx
    d8dd:	83 ec 2c             	sub    $0x2c,%esp
    d8e0:	8b 44 24 40          	mov    0x40(%esp),%eax
    d8e4:	65 8b 3d 14 00 00 00 	mov    %gs:0x14,%edi
    d8eb:	89 7c 24 1c          	mov    %edi,0x1c(%esp)
    d8ef:	31 ff                	xor    %edi,%edi
    d8f1:	8b 15 00 2d 01 00    	mov    0x12d00,%edx
    d8f7:	66 83 ba be 00 00 00 	cmpw   $0x0,0xbe(%edx)
    d8fe:	00 
    d8ff:	74 0e                	je     0xd90f
    d901:	66 83 ba bc 00 00 00 	cmpw   $0x0,0xbc(%edx)
    d908:	00 
    d909:	0f 85 75 03 00 00    	jne    0xdc84
    d90f:	8d 4c 24 10          	lea    0x10(%esp),%ecx
    d913:	8d 54 24 14          	lea    0x14(%esp),%edx
    d917:	e8 29 f6 ff ff       	call   0xcf45
    d91c:	89 c3                	mov    %eax,%ebx
    d91e:	85 c0                	test   %eax,%eax
    d920:	0f 84 68 03 00 00    	je     0xdc8e
    d926:	8b 4c 24 14          	mov    0x14(%esp),%ecx
    d92a:	85 c9                	test   %ecx,%ecx
    d92c:	0f 84 e2 00 00 00    	je     0xda14
    d932:	83 ec 0c             	sub    $0xc,%esp
    d935:	8d 44 24 24          	lea    0x24(%esp),%eax
    d939:	50                   	push   %eax
    d93a:	8b 54 24 20          	mov    0x20(%esp),%edx
    d93e:	89 d8                	mov    %ebx,%eax
    d940:	e8 c4 f4 ff ff       	call   0xce09
    d945:	89 44 24 10          	mov    %eax,0x10(%esp)
    d949:	83 c4 10             	add    $0x10,%esp
    d94c:	85 c0                	test   %eax,%eax
    d94e:	0f 84 d3 00 00 00    	je     0xda27
    d954:	ba 02 00 00 00       	mov    $0x2,%edx
    d959:	89 d8                	mov    %ebx,%eax
    d95b:	e8 2c f4 ff ff       	call   0xcd8c
    d960:	85 c0                	test   %eax,%eax
    d962:	0f 84 d2 00 00 00    	je     0xda3a
    d968:	83 ec 08             	sub    $0x8,%esp
    d96b:	8b 44 24 20          	mov    0x20(%esp),%eax
    d96f:	0f b7 00             	movzwl (%eax),%eax
    d972:	50                   	push   %eax
    d973:	0f b7 43 2c          	movzwl 0x2c(%ebx),%eax
    d977:	50                   	push   %eax
    d978:	e8 fb d5 ff ff       	call   0xaf78
    d97d:	89 c5                	mov    %eax,%ebp
    d97f:	83 c4 10             	add    $0x10,%esp
    d982:	85 c0                	test   %eax,%eax
    d984:	0f 84 cf 00 00 00    	je     0xda59
    d98a:	39 c3                	cmp    %eax,%ebx
    d98c:	0f 84 e6 00 00 00    	je     0xda78
    d992:	8b 00                	mov    (%eax),%eax
    d994:	25 00 f0 ff ff       	and    $0xfffff000,%eax
    d999:	66 3d 00 40          	cmp    $0x4000,%ax
    d99d:	0f 85 ff 00 00 00    	jne    0xdaa2
    d9a3:	8b 45 04             	mov    0x4(%ebp),%eax
    d9a6:	c1 e8 04             	shr    $0x4,%eax
    d9a9:	89 44 24 04          	mov    %eax,0x4(%esp)
    d9ad:	83 f8 01             	cmp    $0x1,%eax
    d9b0:	7e 0d                	jle    0xd9bf
    d9b2:	66 8b 45 0e          	mov    0xe(%ebp),%ax
    d9b6:	66 85 c0             	test   %ax,%ax
    d9b9:	0f 85 0d 01 00 00    	jne    0xdacc
    d9bf:	83 ec 08             	sub    $0x8,%esp
    d9c2:	0f b7 45 2c          	movzwl 0x2c(%ebp),%eax
    d9c6:	50                   	push   %eax
    d9c7:	68 a4 fa 00 00       	push   $0xfaa4
    d9cc:	e8 dd 8a ff ff       	call   0x64ae
    d9d1:	83 c4 10             	add    $0x10,%esp
    d9d4:	83 ec 0c             	sub    $0xc,%esp
    d9d7:	55                   	push   %ebp
    d9d8:	e8 49 d3 ff ff       	call   0xad26
    d9dd:	89 1c 24             	mov    %ebx,(%esp)
    d9e0:	e8 41 d3 ff ff       	call   0xad26
    d9e5:	83 c4 04             	add    $0x4,%esp
    d9e8:	ff 74 24 0c          	pushl  0xc(%esp)
    d9ec:	e8 bc d7 ff ff       	call   0xb1ad
    d9f1:	83 c4 10             	add    $0x10,%esp
    d9f4:	be d9 ff ff ff       	mov    $0xffffffd9,%esi
    d9f9:	89 f0                	mov    %esi,%eax
    d9fb:	8b 7c 24 1c          	mov    0x1c(%esp),%edi
    d9ff:	65 33 3d 14 00 00 00 	xor    %gs:0x14,%edi
    da06:	0f 85 95 02 00 00    	jne    0xdca1
    da0c:	83 c4 2c             	add    $0x2c,%esp
    da0f:	5b                   	pop    %ebx
    da10:	5e                   	pop    %esi
    da11:	5f                   	pop    %edi
    da12:	5d                   	pop    %ebp
    da13:	c3                   	ret    
    da14:	83 ec 0c             	sub    $0xc,%esp
    da17:	50                   	push   %eax
    da18:	e8 09 d3 ff ff       	call   0xad26
    da1d:	83 c4 10             	add    $0x10,%esp
    da20:	be fe ff ff ff       	mov    $0xfffffffe,%esi
    da25:	eb d2                	jmp    0xd9f9
    da27:	83 ec 0c             	sub    $0xc,%esp
    da2a:	53                   	push   %ebx
    da2b:	e8 f6 d2 ff ff       	call   0xad26
    da30:	83 c4 10             	add    $0x10,%esp
    da33:	be fe ff ff ff       	mov    $0xfffffffe,%esi
    da38:	eb bf                	jmp    0xd9f9
    da3a:	83 ec 0c             	sub    $0xc,%esp
    da3d:	53                   	push   %ebx
    da3e:	e8 e3 d2 ff ff       	call   0xad26
    da43:	83 c4 04             	add    $0x4,%esp
    da46:	ff 74 24 0c          	pushl  0xc(%esp)
    da4a:	e8 5e d7 ff ff       	call   0xb1ad
    da4f:	83 c4 10             	add    $0x10,%esp
    da52:	be ff ff ff ff       	mov    $0xffffffff,%esi
    da57:	eb a0                	jmp    0xd9f9
    da59:	83 ec 0c             	sub    $0xc,%esp
    da5c:	53                   	push   %ebx
    da5d:	e8 c4 d2 ff ff       	call   0xad26
    da62:	83 c4 04             	add    $0x4,%esp
    da65:	ff 74 24 0c          	pushl  0xc(%esp)
    da69:	e8 3f d7 ff ff       	call   0xb1ad
    da6e:	83 c4 10             	add    $0x10,%esp
    da71:	be ff ff ff ff       	mov    $0xffffffff,%esi
    da76:	eb 81                	jmp    0xd9f9
    da78:	83 ec 0c             	sub    $0xc,%esp
    da7b:	50                   	push   %eax
    da7c:	e8 a5 d2 ff ff       	call   0xad26
    da81:	89 1c 24             	mov    %ebx,(%esp)
    da84:	e8 9d d2 ff ff       	call   0xad26
    da89:	83 c4 04             	add    $0x4,%esp
    da8c:	ff 74 24 0c          	pushl  0xc(%esp)
    da90:	e8 18 d7 ff ff       	call   0xb1ad
    da95:	83 c4 10             	add    $0x10,%esp
    da98:	be ff ff ff ff       	mov    $0xffffffff,%esi
    da9d:	e9 57 ff ff ff       	jmp    0xd9f9
    daa2:	83 ec 0c             	sub    $0xc,%esp
    daa5:	55                   	push   %ebp
    daa6:	e8 7b d2 ff ff       	call   0xad26
    daab:	89 1c 24             	mov    %ebx,(%esp)
    daae:	e8 73 d2 ff ff       	call   0xad26
    dab3:	83 c4 04             	add    $0x4,%esp
    dab6:	ff 74 24 0c          	pushl  0xc(%esp)
    daba:	e8 ee d6 ff ff       	call   0xb1ad
    dabf:	83 c4 10             	add    $0x10,%esp
    dac2:	be ec ff ff ff       	mov    $0xffffffec,%esi
    dac7:	e9 2d ff ff ff       	jmp    0xd9f9
    dacc:	83 ec 08             	sub    $0x8,%esp
    dacf:	0f b7 c0             	movzwl %ax,%eax
    dad2:	50                   	push   %eax
    dad3:	0f b7 45 2c          	movzwl 0x2c(%ebp),%eax
    dad7:	50                   	push   %eax
    dad8:	e8 58 da ff ff       	call   0xb535
    dadd:	89 c1                	mov    %eax,%ecx
    dadf:	83 c4 10             	add    $0x10,%esp
    dae2:	85 c0                	test   %eax,%eax
    dae4:	0f 84 d5 fe ff ff    	je     0xd9bf
    daea:	8b 10                	mov    (%eax),%edx
    daec:	66 8b 45 2e          	mov    0x2e(%ebp),%ax
    daf0:	66 39 02             	cmp    %ax,(%edx)
    daf3:	75 6e                	jne    0xdb63
    daf5:	66 83 7a 10 00       	cmpw   $0x0,0x10(%edx)
    dafa:	74 67                	je     0xdb63
    dafc:	8d 72 02             	lea    0x2(%edx),%esi
    daff:	bf 1e f6 00 00       	mov    $0xf61e,%edi
    db04:	fc                   	cld    
    db05:	ac                   	lods   %ds:(%esi),%al
    db06:	ae                   	scas   %es:(%edi),%al
    db07:	75 08                	jne    0xdb11
    db09:	84 c0                	test   %al,%al
    db0b:	75 f8                	jne    0xdb05
    db0d:	31 c0                	xor    %eax,%eax
    db0f:	eb 09                	jmp    0xdb1a
    db11:	b8 01 00 00 00       	mov    $0x1,%eax
    db16:	7c 02                	jl     0xdb1a
    db18:	f7 d8                	neg    %eax
    db1a:	85 c0                	test   %eax,%eax
    db1c:	75 45                	jne    0xdb63
    db1e:	8d 72 12             	lea    0x12(%edx),%esi
    db21:	bf 20 f6 00 00       	mov    $0xf620,%edi
    db26:	fc                   	cld    
    db27:	ac                   	lods   %ds:(%esi),%al
    db28:	ae                   	scas   %es:(%edi),%al
    db29:	75 08                	jne    0xdb33
    db2b:	84 c0                	test   %al,%al
    db2d:	75 f8                	jne    0xdb27
    db2f:	31 c0                	xor    %eax,%eax
    db31:	eb 09                	jmp    0xdb3c
    db33:	b8 01 00 00 00       	mov    $0x1,%eax
    db38:	7c 02                	jl     0xdb3c
    db3a:	f7 d8                	neg    %eax
    db3c:	89 c6                	mov    %eax,%esi
    db3e:	85 c0                	test   %eax,%eax
    db40:	75 21                	jne    0xdb63
    db42:	8d 7a 20             	lea    0x20(%edx),%edi
    db45:	83 7c 24 04 02       	cmpl   $0x2,0x4(%esp)
    db4a:	0f 8e a8 00 00 00    	jle    0xdbf8
    db50:	b8 02 00 00 00       	mov    $0x2,%eax
    db55:	89 5c 24 08          	mov    %ebx,0x8(%esp)
    db59:	89 c3                	mov    %eax,%ebx
    db5b:	89 74 24 0c          	mov    %esi,0xc(%esp)
    db5f:	89 ce                	mov    %ecx,%esi
    db61:	eb 47                	jmp    0xdbaa
    db63:	83 ec 08             	sub    $0x8,%esp
    db66:	0f b7 45 2c          	movzwl 0x2c(%ebp),%eax
    db6a:	50                   	push   %eax
    db6b:	68 a4 fa 00 00       	push   $0xfaa4
    db70:	e8 39 89 ff ff       	call   0x64ae
    db75:	83 c4 10             	add    $0x10,%esp
    db78:	e9 57 fe ff ff       	jmp    0xd9d4
    db7d:	83 ec 08             	sub    $0x8,%esp
    db80:	50                   	push   %eax
    db81:	0f b7 45 2c          	movzwl 0x2c(%ebp),%eax
    db85:	50                   	push   %eax
    db86:	e8 aa d9 ff ff       	call   0xb535
    db8b:	89 c6                	mov    %eax,%esi
    db8d:	83 c4 10             	add    $0x10,%esp
    db90:	85 c0                	test   %eax,%eax
    db92:	0f 84 00 01 00 00    	je     0xdc98
    db98:	8b 38                	mov    (%eax),%edi
    db9a:	66 83 3f 00          	cmpw   $0x0,(%edi)
    db9e:	75 39                	jne    0xdbd9
    dba0:	83 c7 10             	add    $0x10,%edi
    dba3:	43                   	inc    %ebx
    dba4:	39 5c 24 04          	cmp    %ebx,0x4(%esp)
    dba8:	7e 44                	jle    0xdbee
    dbaa:	8b 06                	mov    (%esi),%eax
    dbac:	05 00 04 00 00       	add    $0x400,%eax
    dbb1:	39 c7                	cmp    %eax,%edi
    dbb3:	72 e5                	jb     0xdb9a
    dbb5:	83 ec 0c             	sub    $0xc,%esp
    dbb8:	56                   	push   %esi
    dbb9:	e8 ef d5 ff ff       	call   0xb1ad
    dbbe:	83 c4 08             	add    $0x8,%esp
    dbc1:	89 d8                	mov    %ebx,%eax
    dbc3:	c1 e8 06             	shr    $0x6,%eax
    dbc6:	50                   	push   %eax
    dbc7:	55                   	push   %ebp
    dbc8:	e8 27 d1 ff ff       	call   0xacf4
    dbcd:	83 c4 10             	add    $0x10,%esp
    dbd0:	85 c0                	test   %eax,%eax
    dbd2:	75 a9                	jne    0xdb7d
    dbd4:	83 c3 40             	add    $0x40,%ebx
    dbd7:	eb cb                	jmp    0xdba4
    dbd9:	8b 5c 24 08          	mov    0x8(%esp),%ebx
    dbdd:	83 ec 0c             	sub    $0xc,%esp
    dbe0:	56                   	push   %esi
    dbe1:	e8 c7 d5 ff ff       	call   0xb1ad
    dbe6:	83 c4 10             	add    $0x10,%esp
    dbe9:	e9 e6 fd ff ff       	jmp    0xd9d4
    dbee:	8b 5c 24 08          	mov    0x8(%esp),%ebx
    dbf2:	89 f1                	mov    %esi,%ecx
    dbf4:	8b 74 24 0c          	mov    0xc(%esp),%esi
    dbf8:	83 ec 0c             	sub    $0xc,%esp
    dbfb:	51                   	push   %ecx
    dbfc:	e8 ac d5 ff ff       	call   0xb1ad
    dc01:	8a 45 0d             	mov    0xd(%ebp),%al
    dc04:	83 c4 10             	add    $0x10,%esp
    dc07:	3c 02                	cmp    $0x2,%al
    dc09:	75 63                	jne    0xdc6e
    dc0b:	8b 44 24 18          	mov    0x18(%esp),%eax
    dc0f:	66 c7 00 00 00       	movw   $0x0,(%eax)
    dc14:	8b 04 24             	mov    (%esp),%eax
    dc17:	c6 40 09 01          	movb   $0x1,0x9(%eax)
    dc1b:	83 ec 0c             	sub    $0xc,%esp
    dc1e:	50                   	push   %eax
    dc1f:	e8 89 d5 ff ff       	call   0xb1ad
    dc24:	c6 45 0d 00          	movb   $0x0,0xd(%ebp)
    dc28:	c6 45 33 01          	movb   $0x1,0x33(%ebp)
    dc2c:	fe 4b 0d             	decb   0xd(%ebx)
    dc2f:	8b 0d 08 69 01 00    	mov    0x16908,%ecx
    dc35:	b8 1f 85 eb 51       	mov    $0x51eb851f,%eax
    dc3a:	f7 e9                	imul   %ecx
    dc3c:	89 d0                	mov    %edx,%eax
    dc3e:	c1 f8 05             	sar    $0x5,%eax
    dc41:	c1 f9 1f             	sar    $0x1f,%ecx
    dc44:	29 c8                	sub    %ecx,%eax
    dc46:	03 05 04 69 01 00    	add    0x16904,%eax
    dc4c:	89 43 08             	mov    %eax,0x8(%ebx)
    dc4f:	89 43 28             	mov    %eax,0x28(%ebx)
    dc52:	c6 43 33 01          	movb   $0x1,0x33(%ebx)
    dc56:	89 1c 24             	mov    %ebx,(%esp)
    dc59:	e8 c8 d0 ff ff       	call   0xad26
    dc5e:	89 2c 24             	mov    %ebp,(%esp)
    dc61:	e8 c0 d0 ff ff       	call   0xad26
    dc66:	83 c4 10             	add    $0x10,%esp
    dc69:	e9 8b fd ff ff       	jmp    0xd9f9
    dc6e:	83 ec 08             	sub    $0x8,%esp
    dc71:	0f b6 c0             	movzbl %al,%eax
    dc74:	50                   	push   %eax
    dc75:	68 cc fa 00 00       	push   $0xfacc
    dc7a:	e8 2f 88 ff ff       	call   0x64ae
    dc7f:	83 c4 10             	add    $0x10,%esp
    dc82:	eb 87                	jmp    0xdc0b
    dc84:	be ff ff ff ff       	mov    $0xffffffff,%esi
    dc89:	e9 6b fd ff ff       	jmp    0xd9f9
    dc8e:	be fe ff ff ff       	mov    $0xfffffffe,%esi
    dc93:	e9 61 fd ff ff       	jmp    0xd9f9
    dc98:	8b 5c 24 08          	mov    0x8(%esp),%ebx
    dc9c:	e9 33 fd ff ff       	jmp    0xd9d4
    dca1:	e8 00 88 ff ff       	call   0x64a6
    dca6:	57                   	push   %edi
    dca7:	56                   	push   %esi
    dca8:	53                   	push   %ebx
    dca9:	83 ec 10             	sub    $0x10,%esp
    dcac:	65 a1 14 00 00 00    	mov    %gs:0x14,%eax
    dcb2:	89 44 24 0c          	mov    %eax,0xc(%esp)
    dcb6:	31 c0                	xor    %eax,%eax
    dcb8:	89 e1                	mov    %esp,%ecx
    dcba:	8d 54 24 04          	lea    0x4(%esp),%edx
    dcbe:	8b 44 24 20          	mov    0x20(%esp),%eax
    dcc2:	e8 7e f2 ff ff       	call   0xcf45
    dcc7:	85 c0                	test   %eax,%eax
    dcc9:	0f 84 a4 01 00 00    	je     0xde73
    dccf:	89 c6                	mov    %eax,%esi
    dcd1:	8b 5c 24 04          	mov    0x4(%esp),%ebx
    dcd5:	85 db                	test   %ebx,%ebx
    dcd7:	0f 84 de 00 00 00    	je     0xddbb
    dcdd:	ba 02 00 00 00       	mov    $0x2,%edx
    dce2:	e8 a5 f0 ff ff       	call   0xcd8c
    dce7:	85 c0                	test   %eax,%eax
    dce9:	0f 84 df 00 00 00    	je     0xddce
    dcef:	83 ec 0c             	sub    $0xc,%esp
    dcf2:	8d 44 24 14          	lea    0x14(%esp),%eax
    dcf6:	50                   	push   %eax
    dcf7:	89 d9                	mov    %ebx,%ecx
    dcf9:	8b 54 24 10          	mov    0x10(%esp),%edx
    dcfd:	89 f0                	mov    %esi,%eax
    dcff:	e8 05 f1 ff ff       	call   0xce09
    dd04:	89 c7                	mov    %eax,%edi
    dd06:	83 c4 10             	add    $0x10,%esp
    dd09:	85 c0                	test   %eax,%eax
    dd0b:	0f 84 d0 00 00 00    	je     0xdde1
    dd11:	83 ec 08             	sub    $0x8,%esp
    dd14:	8b 44 24 10          	mov    0x10(%esp),%eax
    dd18:	0f b7 00             	movzwl (%eax),%eax
    dd1b:	50                   	push   %eax
    dd1c:	0f b7 46 2c          	movzwl 0x2c(%esi),%eax
    dd20:	50                   	push   %eax
    dd21:	e8 52 d2 ff ff       	call   0xaf78
    dd26:	89 c3                	mov    %eax,%ebx
    dd28:	83 c4 10             	add    $0x10,%esp
    dd2b:	85 c0                	test   %eax,%eax
    dd2d:	0f 84 c1 00 00 00    	je     0xddf4
    dd33:	8b 00                	mov    (%eax),%eax
    dd35:	25 00 f0 ff ff       	and    $0xfffff000,%eax
    dd3a:	66 3d 00 80          	cmp    $0x8000,%ax
    dd3e:	0f 85 e7 00 00 00    	jne    0xde2b
    dd44:	80 7b 0d 00          	cmpb   $0x0,0xd(%ebx)
    dd48:	0f 84 03 01 00 00    	je     0xde51
    dd4e:	8b 44 24 08          	mov    0x8(%esp),%eax
    dd52:	66 c7 00 00 00       	movw   $0x0,(%eax)
    dd57:	c6 47 09 01          	movb   $0x1,0x9(%edi)
    dd5b:	83 ec 0c             	sub    $0xc,%esp
    dd5e:	57                   	push   %edi
    dd5f:	e8 49 d4 ff ff       	call   0xb1ad
    dd64:	fe 4b 0d             	decb   0xd(%ebx)
    dd67:	c6 43 33 01          	movb   $0x1,0x33(%ebx)
    dd6b:	8b 0d 08 69 01 00    	mov    0x16908,%ecx
    dd71:	b8 1f 85 eb 51       	mov    $0x51eb851f,%eax
    dd76:	f7 e9                	imul   %ecx
    dd78:	89 d0                	mov    %edx,%eax
    dd7a:	c1 f8 05             	sar    $0x5,%eax
    dd7d:	c1 f9 1f             	sar    $0x1f,%ecx
    dd80:	29 c8                	sub    %ecx,%eax
    dd82:	03 05 04 69 01 00    	add    0x16904,%eax
    dd88:	89 43 28             	mov    %eax,0x28(%ebx)
    dd8b:	89 1c 24             	mov    %ebx,(%esp)
    dd8e:	e8 93 cf ff ff       	call   0xad26
    dd93:	89 34 24             	mov    %esi,(%esp)
    dd96:	e8 8b cf ff ff       	call   0xad26
    dd9b:	83 c4 10             	add    $0x10,%esp
    dd9e:	b8 00 00 00 00       	mov    $0x0,%eax
    dda3:	8b 7c 24 0c          	mov    0xc(%esp),%edi
    dda7:	65 33 3d 14 00 00 00 	xor    %gs:0x14,%edi
    ddae:	0f 85 c9 00 00 00    	jne    0xde7d
    ddb4:	83 c4 10             	add    $0x10,%esp
    ddb7:	5b                   	pop    %ebx
    ddb8:	5e                   	pop    %esi
    ddb9:	5f                   	pop    %edi
    ddba:	c3                   	ret    
    ddbb:	83 ec 0c             	sub    $0xc,%esp
    ddbe:	50                   	push   %eax
    ddbf:	e8 62 cf ff ff       	call   0xad26
    ddc4:	83 c4 10             	add    $0x10,%esp
    ddc7:	b8 fe ff ff ff       	mov    $0xfffffffe,%eax
    ddcc:	eb d5                	jmp    0xdda3
    ddce:	83 ec 0c             	sub    $0xc,%esp
    ddd1:	56                   	push   %esi
    ddd2:	e8 4f cf ff ff       	call   0xad26
    ddd7:	83 c4 10             	add    $0x10,%esp
    ddda:	b8 ff ff ff ff       	mov    $0xffffffff,%eax
    dddf:	eb c2                	jmp    0xdda3
    dde1:	83 ec 0c             	sub    $0xc,%esp
    dde4:	56                   	push   %esi
    dde5:	e8 3c cf ff ff       	call   0xad26
    ddea:	83 c4 10             	add    $0x10,%esp
    dded:	b8 fe ff ff ff       	mov    $0xfffffffe,%eax
    ddf2:	eb af                	jmp    0xdda3
    ddf4:	83 ec 04             	sub    $0x4,%esp
    ddf7:	8b 44 24 0c          	mov    0xc(%esp),%eax
    ddfb:	0f b7 00             	movzwl (%eax),%eax
    ddfe:	50                   	push   %eax
    ddff:	0f b7 46 2c          	movzwl 0x2c(%esi),%eax
    de03:	50                   	push   %eax
    de04:	68 f0 fa 00 00       	push   $0xfaf0
    de09:	e8 a0 86 ff ff       	call   0x64ae
    de0e:	89 34 24             	mov    %esi,(%esp)
    de11:	e8 10 cf ff ff       	call   0xad26
    de16:	89 3c 24             	mov    %edi,(%esp)
    de19:	e8 8f d3 ff ff       	call   0xb1ad
    de1e:	83 c4 10             	add    $0x10,%esp
    de21:	b8 fe ff ff ff       	mov    $0xfffffffe,%eax
    de26:	e9 78 ff ff ff       	jmp    0xdda3
    de2b:	83 ec 0c             	sub    $0xc,%esp
    de2e:	53                   	push   %ebx
    de2f:	e8 f2 ce ff ff       	call   0xad26
    de34:	89 34 24             	mov    %esi,(%esp)
    de37:	e8 ea ce ff ff       	call   0xad26
    de3c:	89 3c 24             	mov    %edi,(%esp)
    de3f:	e8 69 d3 ff ff       	call   0xb1ad
    de44:	83 c4 10             	add    $0x10,%esp
    de47:	b8 ff ff ff ff       	mov    $0xffffffff,%eax
    de4c:	e9 52 ff ff ff       	jmp    0xdda3
    de51:	6a 00                	push   $0x0
    de53:	0f b7 43 2e          	movzwl 0x2e(%ebx),%eax
    de57:	50                   	push   %eax
    de58:	0f b7 43 2c          	movzwl 0x2c(%ebx),%eax
    de5c:	50                   	push   %eax
    de5d:	68 10 fb 00 00       	push   $0xfb10
    de62:	e8 47 86 ff ff       	call   0x64ae
    de67:	c6 43 0d 01          	movb   $0x1,0xd(%ebx)
    de6b:	83 c4 10             	add    $0x10,%esp
    de6e:	e9 db fe ff ff       	jmp    0xdd4e
    de73:	b8 fe ff ff ff       	mov    $0xfffffffe,%eax
    de78:	e9 26 ff ff ff       	jmp    0xdda3
    de7d:	e8 24 86 ff ff       	call   0x64a6
    de82:	57                   	push   %edi
    de83:	56                   	push   %esi
    de84:	53                   	push   %ebx
    de85:	83 ec 1c             	sub    $0x1c,%esp
    de88:	8b 74 24 30          	mov    0x30(%esp),%esi
    de8c:	65 a1 14 00 00 00    	mov    %gs:0x14,%eax
    de92:	89 44 24 18          	mov    %eax,0x18(%esp)
    de96:	31 c0                	xor    %eax,%eax
    de98:	ff 74 24 2c          	pushl  0x2c(%esp)
    de9c:	e8 ba f3 ff ff       	call   0xd25b
    dea1:	83 c4 10             	add    $0x10,%esp
    dea4:	85 c0                	test   %eax,%eax
    dea6:	0f 84 c7 01 00 00    	je     0xe073
    deac:	89 c3                	mov    %eax,%ebx
    deae:	8b 00                	mov    (%eax),%eax
    deb0:	25 00 f0 ff ff       	and    $0xfffff000,%eax
    deb5:	66 3d 00 80          	cmp    $0x8000,%ax
    deb9:	0f 85 f6 00 00 00    	jne    0xdfb5
    debf:	8d 4c 24 04          	lea    0x4(%esp),%ecx
    dec3:	8d 54 24 08          	lea    0x8(%esp),%edx
    dec7:	89 f0                	mov    %esi,%eax
    dec9:	e8 77 f0 ff ff       	call   0xcf45
    dece:	89 c6                	mov    %eax,%esi
    ded0:	85 c0                	test   %eax,%eax
    ded2:	0f 84 f0 00 00 00    	je     0xdfc8
    ded8:	8b 7c 24 08          	mov    0x8(%esp),%edi
    dedc:	85 ff                	test   %edi,%edi
    dede:	0f 84 f7 00 00 00    	je     0xdfdb
    dee4:	8b 43 2c             	mov    0x2c(%ebx),%eax
    dee7:	66 39 46 2c          	cmp    %ax,0x2c(%esi)
    deeb:	0f 85 05 01 00 00    	jne    0xdff6
    def1:	ba 02 00 00 00       	mov    $0x2,%edx
    def6:	89 f0                	mov    %esi,%eax
    def8:	e8 8f ee ff ff       	call   0xcd8c
    defd:	85 c0                	test   %eax,%eax
    deff:	0f 84 0c 01 00 00    	je     0xe011
    df05:	83 ec 0c             	sub    $0xc,%esp
    df08:	8d 44 24 0c          	lea    0xc(%esp),%eax
    df0c:	50                   	push   %eax
    df0d:	89 f9                	mov    %edi,%ecx
    df0f:	8b 54 24 14          	mov    0x14(%esp),%edx
    df13:	89 f0                	mov    %esi,%eax
    df15:	e8 ef ee ff ff       	call   0xce09
    df1a:	83 c4 10             	add    $0x10,%esp
    df1d:	85 c0                	test   %eax,%eax
    df1f:	0f 85 0a 01 00 00    	jne    0xe02f
    df25:	83 ec 0c             	sub    $0xc,%esp
    df28:	8d 44 24 0c          	lea    0xc(%esp),%eax
    df2c:	50                   	push   %eax
    df2d:	8b 4c 24 18          	mov    0x18(%esp),%ecx
    df31:	8b 54 24 14          	mov    0x14(%esp),%edx
    df35:	89 f0                	mov    %esi,%eax
    df37:	e8 b7 f1 ff ff       	call   0xd0f3
    df3c:	83 c4 10             	add    $0x10,%esp
    df3f:	85 c0                	test   %eax,%eax
    df41:	0f 84 0e 01 00 00    	je     0xe055
    df47:	66 8b 4b 2e          	mov    0x2e(%ebx),%cx
    df4b:	8b 14 24             	mov    (%esp),%edx
    df4e:	66 89 0a             	mov    %cx,(%edx)
    df51:	c6 40 09 01          	movb   $0x1,0x9(%eax)
    df55:	83 ec 0c             	sub    $0xc,%esp
    df58:	50                   	push   %eax
    df59:	e8 4f d2 ff ff       	call   0xb1ad
    df5e:	89 34 24             	mov    %esi,(%esp)
    df61:	e8 c0 cd ff ff       	call   0xad26
    df66:	fe 43 0d             	incb   0xd(%ebx)
    df69:	8b 0d 08 69 01 00    	mov    0x16908,%ecx
    df6f:	b8 1f 85 eb 51       	mov    $0x51eb851f,%eax
    df74:	f7 e9                	imul   %ecx
    df76:	89 d0                	mov    %edx,%eax
    df78:	c1 f8 05             	sar    $0x5,%eax
    df7b:	c1 f9 1f             	sar    $0x1f,%ecx
    df7e:	29 c8                	sub    %ecx,%eax
    df80:	03 05 04 69 01 00    	add    0x16904,%eax
    df86:	89 43 28             	mov    %eax,0x28(%ebx)
    df89:	c6 43 33 01          	movb   $0x1,0x33(%ebx)
    df8d:	89 1c 24             	mov    %ebx,(%esp)
    df90:	e8 91 cd ff ff       	call   0xad26
    df95:	83 c4 10             	add    $0x10,%esp
    df98:	b8 00 00 00 00       	mov    $0x0,%eax
    df9d:	8b 7c 24 0c          	mov    0xc(%esp),%edi
    dfa1:	65 33 3d 14 00 00 00 	xor    %gs:0x14,%edi
    dfa8:	0f 85 cf 00 00 00    	jne    0xe07d
    dfae:	83 c4 10             	add    $0x10,%esp
    dfb1:	5b                   	pop    %ebx
    dfb2:	5e                   	pop    %esi
    dfb3:	5f                   	pop    %edi
    dfb4:	c3                   	ret    
    dfb5:	83 ec 0c             	sub    $0xc,%esp
    dfb8:	53                   	push   %ebx
    dfb9:	e8 68 cd ff ff       	call   0xad26
    dfbe:	83 c4 10             	add    $0x10,%esp
    dfc1:	b8 ff ff ff ff       	mov    $0xffffffff,%eax
    dfc6:	eb d5                	jmp    0xdf9d
    dfc8:	83 ec 0c             	sub    $0xc,%esp
    dfcb:	53                   	push   %ebx
    dfcc:	e8 55 cd ff ff       	call   0xad26
    dfd1:	83 c4 10             	add    $0x10,%esp
    dfd4:	b8 f3 ff ff ff       	mov    $0xfffffff3,%eax
    dfd9:	eb c2                	jmp    0xdf9d
    dfdb:	83 ec 0c             	sub    $0xc,%esp
    dfde:	53                   	push   %ebx
    dfdf:	e8 42 cd ff ff       	call   0xad26
    dfe4:	89 34 24             	mov    %esi,(%esp)
    dfe7:	e8 3a cd ff ff       	call   0xad26
    dfec:	83 c4 10             	add    $0x10,%esp
    dfef:	b8 ff ff ff ff       	mov    $0xffffffff,%eax
    dff4:	eb a7                	jmp    0xdf9d
    dff6:	83 ec 0c             	sub    $0xc,%esp
    dff9:	56                   	push   %esi
    dffa:	e8 27 cd ff ff       	call   0xad26
    dfff:	89 1c 24             	mov    %ebx,(%esp)
    e002:	e8 1f cd ff ff       	call   0xad26
    e007:	83 c4 10             	add    $0x10,%esp
    e00a:	b8 ee ff ff ff       	mov    $0xffffffee,%eax
    e00f:	eb 8c                	jmp    0xdf9d
    e011:	83 ec 0c             	sub    $0xc,%esp
    e014:	56                   	push   %esi
    e015:	e8 0c cd ff ff       	call   0xad26
    e01a:	89 1c 24             	mov    %ebx,(%esp)
    e01d:	e8 04 cd ff ff       	call   0xad26
    e022:	83 c4 10             	add    $0x10,%esp
    e025:	b8 f3 ff ff ff       	mov    $0xfffffff3,%eax
    e02a:	e9 6e ff ff ff       	jmp    0xdf9d
    e02f:	83 ec 0c             	sub    $0xc,%esp
    e032:	50                   	push   %eax
    e033:	e8 75 d1 ff ff       	call   0xb1ad
    e038:	89 34 24             	mov    %esi,(%esp)
    e03b:	e8 e6 cc ff ff       	call   0xad26
    e040:	89 1c 24             	mov    %ebx,(%esp)
    e043:	e8 de cc ff ff       	call   0xad26
    e048:	83 c4 10             	add    $0x10,%esp
    e04b:	b8 ef ff ff ff       	mov    $0xffffffef,%eax
    e050:	e9 48 ff ff ff       	jmp    0xdf9d
    e055:	83 ec 0c             	sub    $0xc,%esp
    e058:	56                   	push   %esi
    e059:	e8 c8 cc ff ff       	call   0xad26
    e05e:	89 1c 24             	mov    %ebx,(%esp)
    e061:	e8 c0 cc ff ff       	call   0xad26
    e066:	83 c4 10             	add    $0x10,%esp
    e069:	b8 e4 ff ff ff       	mov    $0xffffffe4,%eax
    e06e:	e9 2a ff ff ff       	jmp    0xdf9d
    e073:	b8 fe ff ff ff       	mov    $0xfffffffe,%eax
    e078:	e9 20 ff ff ff       	jmp    0xdf9d
    e07d:	e8 24 84 ff ff       	call   0x64a6
    e082:	55                   	push   %ebp
    e083:	57                   	push   %edi
    e084:	56                   	push   %esi
    e085:	53                   	push   %ebx
    e086:	83 ec 0c             	sub    $0xc,%esp
    e089:	8b 74 24 20          	mov    0x20(%esp),%esi
    e08d:	8b 7c 24 24          	mov    0x24(%esp),%edi
    e091:	0f b7 05 14 9b 01 00 	movzwl 0x19b14,%eax
    e098:	39 c6                	cmp    %eax,%esi
    e09a:	0f 84 81 00 00 00    	je     0xe121
    e0a0:	bb 28 9b 01 00       	mov    $0x19b28,%ebx
    e0a5:	0f b7 43 54          	movzwl 0x54(%ebx),%eax
    e0a9:	39 c6                	cmp    %eax,%esi
    e0ab:	74 22                	je     0xe0cf
    e0ad:	83 c3 68             	add    $0x68,%ebx
    e0b0:	81 fb 00 9e 01 00    	cmp    $0x19e00,%ebx
    e0b6:	72 ed                	jb     0xe0a5
    e0b8:	bb 00 00 00 00       	mov    $0x0,%ebx
    e0bd:	83 ec 0c             	sub    $0xc,%esp
    e0c0:	68 3c fb 00 00       	push   $0xfb3c
    e0c5:	e8 b9 83 ff ff       	call   0x6483
    e0ca:	83 c4 10             	add    $0x10,%esp
    e0cd:	eb 04                	jmp    0xe0d3
    e0cf:	85 db                	test   %ebx,%ebx
    e0d1:	74 ea                	je     0xe0bd
    e0d3:	0f b7 43 08          	movzwl 0x8(%ebx),%eax
    e0d7:	39 f8                	cmp    %edi,%eax
    e0d9:	7f 08                	jg     0xe0e3
    e0db:	0f b7 43 02          	movzwl 0x2(%ebx),%eax
    e0df:	39 f8                	cmp    %edi,%eax
    e0e1:	7f 10                	jg     0xe0f3
    e0e3:	83 ec 0c             	sub    $0xc,%esp
    e0e6:	68 68 fb 00 00       	push   $0xfb68
    e0eb:	e8 93 83 ff ff       	call   0x6483
    e0f0:	83 c4 10             	add    $0x10,%esp
    e0f3:	83 ec 08             	sub    $0x8,%esp
    e0f6:	57                   	push   %edi
    e0f7:	56                   	push   %esi
    e0f8:	e8 0f d1 ff ff       	call   0xb20c
    e0fd:	83 c4 10             	add    $0x10,%esp
    e100:	85 c0                	test   %eax,%eax
    e102:	74 38                	je     0xe13c
    e104:	8a 50 0a             	mov    0xa(%eax),%dl
    e107:	80 fa 01             	cmp    $0x1,%dl
    e10a:	74 1c                	je     0xe128
    e10c:	0f b6 d2             	movzbl %dl,%edx
    e10f:	52                   	push   %edx
    e110:	57                   	push   %edi
    e111:	56                   	push   %esi
    e112:	68 90 fb 00 00       	push   $0xfb90
    e117:	e8 92 83 ff ff       	call   0x64ae
    e11c:	83 c4 10             	add    $0x10,%esp
    e11f:	eb 51                	jmp    0xe172
    e121:	bb c0 9a 01 00       	mov    $0x19ac0,%ebx
    e126:	eb ab                	jmp    0xe0d3
    e128:	c6 40 09 00          	movb   $0x0,0x9(%eax)
    e12c:	c6 40 08 00          	movb   $0x0,0x8(%eax)
    e130:	83 ec 0c             	sub    $0xc,%esp
    e133:	50                   	push   %eax
    e134:	e8 74 d0 ff ff       	call   0xb1ad
    e139:	83 c4 10             	add    $0x10,%esp
    e13c:	0f b7 43 08          	movzwl 0x8(%ebx),%eax
    e140:	48                   	dec    %eax
    e141:	29 c7                	sub    %eax,%edi
    e143:	89 f8                	mov    %edi,%eax
    e145:	85 ff                	test   %edi,%edi
    e147:	78 31                	js     0xe17a
    e149:	c1 f8 0d             	sar    $0xd,%eax
    e14c:	8d 2c 83             	lea    (%ebx,%eax,4),%ebp
    e14f:	89 fa                	mov    %edi,%edx
    e151:	81 e2 ff 1f 00 00    	and    $0x1fff,%edx
    e157:	8b 45 34             	mov    0x34(%ebp),%eax
    e15a:	8b 08                	mov    (%eax),%ecx
    e15c:	b8 00 00 00 00       	mov    $0x0,%eax
    e161:	0f b3 11             	btr    %edx,(%ecx)
    e164:	0f 93 c0             	setae  %al
    e167:	85 c0                	test   %eax,%eax
    e169:	75 17                	jne    0xe182
    e16b:	8b 45 34             	mov    0x34(%ebp),%eax
    e16e:	c6 40 09 01          	movb   $0x1,0x9(%eax)
    e172:	83 c4 0c             	add    $0xc,%esp
    e175:	5b                   	pop    %ebx
    e176:	5e                   	pop    %esi
    e177:	5f                   	pop    %edi
    e178:	5d                   	pop    %ebp
    e179:	c3                   	ret    
    e17a:	8d 87 ff 1f 00 00    	lea    0x1fff(%edi),%eax
    e180:	eb c7                	jmp    0xe149
    e182:	83 ec 04             	sub    $0x4,%esp
    e185:	0f b7 43 08          	movzwl 0x8(%ebx),%eax
    e189:	8d 44 07 ff          	lea    -0x1(%edi,%eax,1),%eax
    e18d:	50                   	push   %eax
    e18e:	56                   	push   %esi
    e18f:	68 23 f6 00 00       	push   $0xf623
    e194:	e8 15 83 ff ff       	call   0x64ae
    e199:	c7 04 24 bc fb 00 00 	movl   $0xfbbc,(%esp)
    e1a0:	e8 de 82 ff ff       	call   0x6483
    e1a5:	83 c4 10             	add    $0x10,%esp
    e1a8:	eb c1                	jmp    0xe16b
    e1aa:	55                   	push   %ebp
    e1ab:	57                   	push   %edi
    e1ac:	56                   	push   %esi
    e1ad:	53                   	push   %ebx
    e1ae:	83 ec 1c             	sub    $0x1c,%esp
    e1b1:	0f b7 05 14 9b 01 00 	movzwl 0x19b14,%eax
    e1b8:	39 44 24 30          	cmp    %eax,0x30(%esp)
    e1bc:	74 3e                	je     0xe1fc
    e1be:	bf 28 9b 01 00       	mov    $0x19b28,%edi
    e1c3:	8b 54 24 30          	mov    0x30(%esp),%edx
    e1c7:	0f b7 47 54          	movzwl 0x54(%edi),%eax
    e1cb:	39 c2                	cmp    %eax,%edx
    e1cd:	74 22                	je     0xe1f1
    e1cf:	83 c7 68             	add    $0x68,%edi
    e1d2:	81 ff 00 9e 01 00    	cmp    $0x19e00,%edi
    e1d8:	72 ed                	jb     0xe1c7
    e1da:	bf 00 00 00 00       	mov    $0x0,%edi
    e1df:	83 ec 0c             	sub    $0xc,%esp
    e1e2:	68 dc fb 00 00       	push   $0xfbdc
    e1e7:	e8 97 82 ff ff       	call   0x6483
    e1ec:	83 c4 10             	add    $0x10,%esp
    e1ef:	eb 04                	jmp    0xe1f5
    e1f1:	85 ff                	test   %edi,%edi
    e1f3:	74 ea                	je     0xe1df
    e1f5:	bb 00 00 00 00       	mov    $0x0,%ebx
    e1fa:	eb 0d                	jmp    0xe209
    e1fc:	bf c0 9a 01 00       	mov    $0x19ac0,%edi
    e201:	eb f2                	jmp    0xe1f5
    e203:	43                   	inc    %ebx
    e204:	83 fb 08             	cmp    $0x8,%ebx
    e207:	74 72                	je     0xe27b
    e209:	8b 6c 9f 34          	mov    0x34(%edi,%ebx,4),%ebp
    e20d:	85 ed                	test   %ebp,%ebp
    e20f:	74 f2                	je     0xe203
    e211:	8b 75 00             	mov    0x0(%ebp),%esi
    e214:	b9 00 00 00 00       	mov    $0x0,%ecx
    e219:	fc                   	cld    
    e21a:	ad                   	lods   %ds:(%esi),%eax
    e21b:	f7 d0                	not    %eax
    e21d:	0f bc d0             	bsf    %eax,%edx
    e220:	74 04                	je     0xe226
    e222:	01 d1                	add    %edx,%ecx
    e224:	eb 0b                	jmp    0xe231
    e226:	83 c1 20             	add    $0x20,%ecx
    e229:	81 f9 00 20 00 00    	cmp    $0x2000,%ecx
    e22f:	7c e9                	jl     0xe21a
    e231:	81 f9 ff 1f 00 00    	cmp    $0x1fff,%ecx
    e237:	7f ca                	jg     0xe203
    e239:	89 4c 24 0c          	mov    %ecx,0xc(%esp)
    e23d:	83 fb 07             	cmp    $0x7,%ebx
    e240:	0f 8f bb 00 00 00    	jg     0xe301
    e246:	b8 00 00 00 00       	mov    $0x0,%eax
    e24b:	8b 54 24 0c          	mov    0xc(%esp),%edx
    e24f:	0f ab 16             	bts    %edx,(%esi)
    e252:	0f 92 c0             	setb   %al
    e255:	85 c0                	test   %eax,%eax
    e257:	75 31                	jne    0xe28a
    e259:	c6 45 09 01          	movb   $0x1,0x9(%ebp)
    e25d:	c1 e3 0d             	shl    $0xd,%ebx
    e260:	0f b7 47 08          	movzwl 0x8(%edi),%eax
    e264:	8d 5c 03 ff          	lea    -0x1(%ebx,%eax,1),%ebx
    e268:	03 5c 24 0c          	add    0xc(%esp),%ebx
    e26c:	0f b7 47 02          	movzwl 0x2(%edi),%eax
    e270:	39 d8                	cmp    %ebx,%eax
    e272:	7f 28                	jg     0xe29c
    e274:	bb 00 00 00 00       	mov    $0x0,%ebx
    e279:	eb 05                	jmp    0xe280
    e27b:	bb 00 00 00 00       	mov    $0x0,%ebx
    e280:	89 d8                	mov    %ebx,%eax
    e282:	83 c4 1c             	add    $0x1c,%esp
    e285:	5b                   	pop    %ebx
    e286:	5e                   	pop    %esi
    e287:	5f                   	pop    %edi
    e288:	5d                   	pop    %ebp
    e289:	c3                   	ret    
    e28a:	83 ec 0c             	sub    $0xc,%esp
    e28d:	68 34 f6 00 00       	push   $0xf634
    e292:	e8 ec 81 ff ff       	call   0x6483
    e297:	83 c4 10             	add    $0x10,%esp
    e29a:	eb bd                	jmp    0xe259
    e29c:	83 ec 08             	sub    $0x8,%esp
    e29f:	53                   	push   %ebx
    e2a0:	ff 74 24 3c          	pushl  0x3c(%esp)
    e2a4:	e8 c9 cf ff ff       	call   0xb272
    e2a9:	89 c6                	mov    %eax,%esi
    e2ab:	83 c4 10             	add    $0x10,%esp
    e2ae:	85 c0                	test   %eax,%eax
    e2b0:	74 2b                	je     0xe2dd
    e2b2:	80 7e 0a 01          	cmpb   $0x1,0xa(%esi)
    e2b6:	75 37                	jne    0xe2ef
    e2b8:	8b 3e                	mov    (%esi),%edi
    e2ba:	b8 00 00 00 00       	mov    $0x0,%eax
    e2bf:	b9 00 01 00 00       	mov    $0x100,%ecx
    e2c4:	fc                   	cld    
    e2c5:	f3 ab                	rep stos %eax,%es:(%edi)
    e2c7:	c6 46 08 01          	movb   $0x1,0x8(%esi)
    e2cb:	c6 46 09 01          	movb   $0x1,0x9(%esi)
    e2cf:	83 ec 0c             	sub    $0xc,%esp
    e2d2:	56                   	push   %esi
    e2d3:	e8 d5 ce ff ff       	call   0xb1ad
    e2d8:	83 c4 10             	add    $0x10,%esp
    e2db:	eb a3                	jmp    0xe280
    e2dd:	83 ec 0c             	sub    $0xc,%esp
    e2e0:	68 4f f6 00 00       	push   $0xf64f
    e2e5:	e8 99 81 ff ff       	call   0x6483
    e2ea:	83 c4 10             	add    $0x10,%esp
    e2ed:	eb c3                	jmp    0xe2b2
    e2ef:	83 ec 0c             	sub    $0xc,%esp
    e2f2:	68 6b f6 00 00       	push   $0xf66b
    e2f7:	e8 87 81 ff ff       	call   0x6483
    e2fc:	83 c4 10             	add    $0x10,%esp
    e2ff:	eb b7                	jmp    0xe2b8
    e301:	bb 00 00 00 00       	mov    $0x0,%ebx
    e306:	e9 75 ff ff ff       	jmp    0xe280
    e30b:	57                   	push   %edi
    e30c:	53                   	push   %ebx
    e30d:	83 ec 04             	sub    $0x4,%esp
    e310:	8b 7c 24 10          	mov    0x10(%esp),%edi
    e314:	85 ff                	test   %edi,%edi
    e316:	0f 84 f4 00 00 00    	je     0xe410
    e31c:	66 83 7f 2c 00       	cmpw   $0x0,0x2c(%edi)
    e321:	74 4c                	je     0xe36f
    e323:	8b 47 30             	mov    0x30(%edi),%eax
    e326:	66 83 f8 01          	cmp    $0x1,%ax
    e32a:	77 52                	ja     0xe37e
    e32c:	80 7f 0d 00          	cmpb   $0x0,0xd(%edi)
    e330:	75 6e                	jne    0xe3a0
    e332:	8b 47 2c             	mov    0x2c(%edi),%eax
    e335:	66 3b 05 14 9b 01 00 	cmp    0x19b14,%ax
    e33c:	0f 84 d4 00 00 00    	je     0xe416
    e342:	bb 28 9b 01 00       	mov    $0x19b28,%ebx
    e347:	66 3b 43 54          	cmp    0x54(%ebx),%ax
    e34b:	74 65                	je     0xe3b2
    e34d:	83 c3 68             	add    $0x68,%ebx
    e350:	81 fb 00 9e 01 00    	cmp    $0x19e00,%ebx
    e356:	72 ef                	jb     0xe347
    e358:	bb 00 00 00 00       	mov    $0x0,%ebx
    e35d:	83 ec 0c             	sub    $0xc,%esp
    e360:	68 50 fc 00 00       	push   $0xfc50
    e365:	e8 19 81 ff ff       	call   0x6483
    e36a:	83 c4 10             	add    $0x10,%esp
    e36d:	eb 47                	jmp    0xe3b6
    e36f:	b0 00                	mov    $0x0,%al
    e371:	b9 38 00 00 00       	mov    $0x38,%ecx
    e376:	fc                   	cld    
    e377:	f3 aa                	rep stos %al,%es:(%edi)
    e379:	e9 92 00 00 00       	jmp    0xe410
    e37e:	83 ec 08             	sub    $0x8,%esp
    e381:	0f b7 c0             	movzwl %ax,%eax
    e384:	50                   	push   %eax
    e385:	68 0c fc 00 00       	push   $0xfc0c
    e38a:	e8 1f 81 ff ff       	call   0x64ae
    e38f:	c7 04 24 84 f6 00 00 	movl   $0xf684,(%esp)
    e396:	e8 e8 80 ff ff       	call   0x6483
    e39b:	83 c4 10             	add    $0x10,%esp
    e39e:	eb 8c                	jmp    0xe32c
    e3a0:	83 ec 0c             	sub    $0xc,%esp
    e3a3:	68 30 fc 00 00       	push   $0xfc30
    e3a8:	e8 d6 80 ff ff       	call   0x6483
    e3ad:	83 c4 10             	add    $0x10,%esp
    e3b0:	eb 80                	jmp    0xe332
    e3b2:	85 db                	test   %ebx,%ebx
    e3b4:	74 a7                	je     0xe35d
    e3b6:	66 8b 47 2e          	mov    0x2e(%edi),%ax
    e3ba:	66 85 c0             	test   %ax,%ax
    e3bd:	74 05                	je     0xe3c4
    e3bf:	66 3b 03             	cmp    (%ebx),%ax
    e3c2:	76 10                	jbe    0xe3d4
    e3c4:	83 ec 0c             	sub    $0xc,%esp
    e3c7:	68 7c fc 00 00       	push   $0xfc7c
    e3cc:	e8 b2 80 ff ff       	call   0x6483
    e3d1:	83 c4 10             	add    $0x10,%esp
    e3d4:	66 8b 47 2e          	mov    0x2e(%edi),%ax
    e3d8:	66 c1 e8 0d          	shr    $0xd,%ax
    e3dc:	0f b7 c0             	movzwl %ax,%eax
    e3df:	8b 5c 83 14          	mov    0x14(%ebx,%eax,4),%ebx
    e3e3:	85 db                	test   %ebx,%ebx
    e3e5:	74 36                	je     0xe41d
    e3e7:	66 8b 57 2e          	mov    0x2e(%edi),%dx
    e3eb:	81 e2 ff 1f 00 00    	and    $0x1fff,%edx
    e3f1:	8b 0b                	mov    (%ebx),%ecx
    e3f3:	b8 00 00 00 00       	mov    $0x0,%eax
    e3f8:	0f b3 11             	btr    %edx,(%ecx)
    e3fb:	0f 93 c0             	setae  %al
    e3fe:	85 c0                	test   %eax,%eax
    e400:	75 2d                	jne    0xe42f
    e402:	c6 43 09 01          	movb   $0x1,0x9(%ebx)
    e406:	b0 00                	mov    $0x0,%al
    e408:	b9 38 00 00 00       	mov    $0x38,%ecx
    e40d:	fc                   	cld    
    e40e:	f3 aa                	rep stos %al,%es:(%edi)
    e410:	83 c4 04             	add    $0x4,%esp
    e413:	5b                   	pop    %ebx
    e414:	5f                   	pop    %edi
    e415:	c3                   	ret    
    e416:	bb c0 9a 01 00       	mov    $0x19ac0,%ebx
    e41b:	eb 99                	jmp    0xe3b6
    e41d:	83 ec 0c             	sub    $0xc,%esp
    e420:	68 a8 fc 00 00       	push   $0xfca8
    e425:	e8 59 80 ff ff       	call   0x6483
    e42a:	83 c4 10             	add    $0x10,%esp
    e42d:	eb b8                	jmp    0xe3e7
    e42f:	83 ec 0c             	sub    $0xc,%esp
    e432:	68 c8 fc 00 00       	push   $0xfcc8
    e437:	e8 47 80 ff ff       	call   0x6483
    e43c:	83 c4 10             	add    $0x10,%esp
    e43f:	eb c1                	jmp    0xe402
    e441:	55                   	push   %ebp
    e442:	57                   	push   %edi
    e443:	56                   	push   %esi
    e444:	53                   	push   %ebx
    e445:	83 ec 1c             	sub    $0x1c,%esp
    e448:	e8 ce c9 ff ff       	call   0xae1b
    e44d:	89 44 24 0c          	mov    %eax,0xc(%esp)
    e451:	85 c0                	test   %eax,%eax
    e453:	0f 84 10 01 00 00    	je     0xe569
    e459:	0f b7 05 14 9b 01 00 	movzwl 0x19b14,%eax
    e460:	39 44 24 30          	cmp    %eax,0x30(%esp)
    e464:	74 43                	je     0xe4a9
    e466:	bf 28 9b 01 00       	mov    $0x19b28,%edi
    e46b:	8b 54 24 30          	mov    0x30(%esp),%edx
    e46f:	0f b7 47 54          	movzwl 0x54(%edi),%eax
    e473:	39 c2                	cmp    %eax,%edx
    e475:	74 22                	je     0xe499
    e477:	83 c7 68             	add    $0x68,%edi
    e47a:	81 ff 00 9e 01 00    	cmp    $0x19e00,%edi
    e480:	72 ed                	jb     0xe46f
    e482:	bf 00 00 00 00       	mov    $0x0,%edi
    e487:	83 ec 0c             	sub    $0xc,%esp
    e48a:	68 8f f6 00 00       	push   $0xf68f
    e48f:	e8 ef 7f ff ff       	call   0x6483
    e494:	83 c4 10             	add    $0x10,%esp
    e497:	eb 04                	jmp    0xe49d
    e499:	85 ff                	test   %edi,%edi
    e49b:	74 ea                	je     0xe487
    e49d:	be 00 20 00 00       	mov    $0x2000,%esi
    e4a2:	bb 00 00 00 00       	mov    $0x0,%ebx
    e4a7:	eb 0d                	jmp    0xe4b6
    e4a9:	bf c0 9a 01 00       	mov    $0x19ac0,%edi
    e4ae:	eb ed                	jmp    0xe49d
    e4b0:	43                   	inc    %ebx
    e4b1:	83 fb 08             	cmp    $0x8,%ebx
    e4b4:	74 34                	je     0xe4ea
    e4b6:	8b 6c 9f 14          	mov    0x14(%edi,%ebx,4),%ebp
    e4ba:	85 ed                	test   %ebp,%ebp
    e4bc:	74 f2                	je     0xe4b0
    e4be:	8b 75 00             	mov    0x0(%ebp),%esi
    e4c1:	b9 00 00 00 00       	mov    $0x0,%ecx
    e4c6:	fc                   	cld    
    e4c7:	ad                   	lods   %ds:(%esi),%eax
    e4c8:	f7 d0                	not    %eax
    e4ca:	0f bc d0             	bsf    %eax,%edx
    e4cd:	74 04                	je     0xe4d3
    e4cf:	01 d1                	add    %edx,%ecx
    e4d1:	eb 0b                	jmp    0xe4de
    e4d3:	83 c1 20             	add    $0x20,%ecx
    e4d6:	81 f9 00 20 00 00    	cmp    $0x2000,%ecx
    e4dc:	7c e9                	jl     0xe4c7
    e4de:	89 ce                	mov    %ecx,%esi
    e4e0:	81 f9 ff 1f 00 00    	cmp    $0x1fff,%ecx
    e4e6:	7f c8                	jg     0xe4b0
    e4e8:	eb 10                	jmp    0xe4fa
    e4ea:	85 ed                	test   %ebp,%ebp
    e4ec:	0f 84 83 00 00 00    	je     0xe575
    e4f2:	81 fe ff 1f 00 00    	cmp    $0x1fff,%esi
    e4f8:	7f 7b                	jg     0xe575
    e4fa:	89 d8                	mov    %ebx,%eax
    e4fc:	c1 e0 0d             	shl    $0xd,%eax
    e4ff:	01 f0                	add    %esi,%eax
    e501:	0f b7 17             	movzwl (%edi),%edx
    e504:	39 d0                	cmp    %edx,%eax
    e506:	7f 6d                	jg     0xe575
    e508:	8b 55 00             	mov    0x0(%ebp),%edx
    e50b:	b8 00 00 00 00       	mov    $0x0,%eax
    e510:	0f ab 32             	bts    %esi,(%edx)
    e513:	0f 92 c0             	setb   %al
    e516:	85 c0                	test   %eax,%eax
    e518:	75 74                	jne    0xe58e
    e51a:	c6 45 09 01          	movb   $0x1,0x9(%ebp)
    e51e:	8b 44 24 0c          	mov    0xc(%esp),%eax
    e522:	66 c7 40 30 01 00    	movw   $0x1,0x30(%eax)
    e528:	c6 40 0d 01          	movb   $0x1,0xd(%eax)
    e52c:	8b 54 24 30          	mov    0x30(%esp),%edx
    e530:	66 89 50 2c          	mov    %dx,0x2c(%eax)
    e534:	c6 40 33 01          	movb   $0x1,0x33(%eax)
    e538:	c1 e3 0d             	shl    $0xd,%ebx
    e53b:	01 f3                	add    %esi,%ebx
    e53d:	89 c6                	mov    %eax,%esi
    e53f:	66 89 58 2e          	mov    %bx,0x2e(%eax)
    e543:	8b 0d 08 69 01 00    	mov    0x16908,%ecx
    e549:	b8 1f 85 eb 51       	mov    $0x51eb851f,%eax
    e54e:	f7 e9                	imul   %ecx
    e550:	89 d0                	mov    %edx,%eax
    e552:	c1 f8 05             	sar    $0x5,%eax
    e555:	c1 f9 1f             	sar    $0x1f,%ecx
    e558:	29 c8                	sub    %ecx,%eax
    e55a:	03 05 04 69 01 00    	add    0x16904,%eax
    e560:	89 46 28             	mov    %eax,0x28(%esi)
    e563:	89 46 24             	mov    %eax,0x24(%esi)
    e566:	89 46 08             	mov    %eax,0x8(%esi)
    e569:	8b 44 24 0c          	mov    0xc(%esp),%eax
    e56d:	83 c4 1c             	add    $0x1c,%esp
    e570:	5b                   	pop    %ebx
    e571:	5e                   	pop    %esi
    e572:	5f                   	pop    %edi
    e573:	5d                   	pop    %ebp
    e574:	c3                   	ret    
    e575:	83 ec 0c             	sub    $0xc,%esp
    e578:	ff 74 24 18          	pushl  0x18(%esp)
    e57c:	e8 a5 c7 ff ff       	call   0xad26
    e581:	83 c4 10             	add    $0x10,%esp
    e584:	c7 44 24 0c 00 00 00 	movl   $0x0,0xc(%esp)
    e58b:	00 
    e58c:	eb db                	jmp    0xe569
    e58e:	83 ec 0c             	sub    $0xc,%esp
    e591:	68 ad f6 00 00       	push   $0xf6ad
    e596:	e8 e8 7e ff ff       	call   0x6483
    e59b:	83 c4 10             	add    $0x10,%esp
    e59e:	e9 77 ff ff ff       	jmp    0xe51a
    e5a3:	83 f8 13             	cmp    $0x13,%eax
    e5a6:	77 58                	ja     0xe600
    e5a8:	56                   	push   %esi
    e5a9:	53                   	push   %ebx
    e5aa:	8b 1d 00 2d 01 00    	mov    0x12d00,%ebx
    e5b0:	8b 84 83 f8 00 00 00 	mov    0xf8(%ebx,%eax,4),%eax
    e5b7:	85 c0                	test   %eax,%eax
    e5b9:	74 4b                	je     0xe606
    e5bb:	83 fa 13             	cmp    $0x13,%edx
    e5be:	77 4d                	ja     0xe60d
    e5c0:	83 bc 93 f8 00 00 00 	cmpl   $0x0,0xf8(%ebx,%edx,4)
    e5c7:	00 
    e5c8:	74 10                	je     0xe5da
    e5ca:	42                   	inc    %edx
    e5cb:	83 fa 14             	cmp    $0x14,%edx
    e5ce:	74 29                	je     0xe5f9
    e5d0:	83 bc 93 f8 00 00 00 	cmpl   $0x0,0xf8(%ebx,%edx,4)
    e5d7:	00 
    e5d8:	75 f0                	jne    0xe5ca
    e5da:	be fe ff ff ff       	mov    $0xfffffffe,%esi
    e5df:	88 d1                	mov    %dl,%cl
    e5e1:	d3 c6                	rol    %cl,%esi
    e5e3:	21 b3 f4 00 00 00    	and    %esi,0xf4(%ebx)
    e5e9:	89 84 93 f8 00 00 00 	mov    %eax,0xf8(%ebx,%edx,4)
    e5f0:	66 ff 40 04          	incw   0x4(%eax)
    e5f4:	89 d0                	mov    %edx,%eax
    e5f6:	5b                   	pop    %ebx
    e5f7:	5e                   	pop    %esi
    e5f8:	c3                   	ret    
    e5f9:	b8 e8 ff ff ff       	mov    $0xffffffe8,%eax
    e5fe:	eb f6                	jmp    0xe5f6
    e600:	b8 f7 ff ff ff       	mov    $0xfffffff7,%eax
    e605:	c3                   	ret    
    e606:	b8 f7 ff ff ff       	mov    $0xfffffff7,%eax
    e60b:	eb e9                	jmp    0xe5f6
    e60d:	b8 ea ff ff ff       	mov    $0xffffffea,%eax
    e612:	eb e2                	jmp    0xe5f6
    e614:	53                   	push   %ebx
    e615:	83 ec 14             	sub    $0x14,%esp
    e618:	8b 5c 24 20          	mov    0x20(%esp),%ebx
    e61c:	53                   	push   %ebx
    e61d:	e8 77 be ff ff       	call   0xa499
    e622:	89 da                	mov    %ebx,%edx
    e624:	8b 44 24 20          	mov    0x20(%esp),%eax
    e628:	e8 76 ff ff ff       	call   0xe5a3
    e62d:	83 c4 18             	add    $0x18,%esp
    e630:	5b                   	pop    %ebx
    e631:	c3                   	ret    
    e632:	ba 00 00 00 00       	mov    $0x0,%edx
    e637:	8b 44 24 04          	mov    0x4(%esp),%eax
    e63b:	e8 63 ff ff ff       	call   0xe5a3
    e640:	c3                   	ret    
    e641:	53                   	push   %ebx
    e642:	8b 4c 24 08          	mov    0x8(%esp),%ecx
    e646:	8b 44 24 0c          	mov    0xc(%esp),%eax
    e64a:	83 f9 13             	cmp    $0x13,%ecx
    e64d:	0f 87 91 00 00 00    	ja     0xe6e4
    e653:	8b 15 00 2d 01 00    	mov    0x12d00,%edx
    e659:	8b 9c 8a f8 00 00 00 	mov    0xf8(%edx,%ecx,4),%ebx
    e660:	85 db                	test   %ebx,%ebx
    e662:	0f 84 83 00 00 00    	je     0xe6eb
    e668:	83 f8 04             	cmp    $0x4,%eax
    e66b:	0f 87 81 00 00 00    	ja     0xe6f2
    e671:	ff 24 85 40 f0 00 00 	jmp    *0xf040(,%eax,4)
    e678:	8b 54 24 10          	mov    0x10(%esp),%edx
    e67c:	89 c8                	mov    %ecx,%eax
    e67e:	e8 20 ff ff ff       	call   0xe5a3
    e683:	5b                   	pop    %ebx
    e684:	c3                   	ret    
    e685:	8b 82 f4 00 00 00    	mov    0xf4(%edx),%eax
    e68b:	d3 e8                	shr    %cl,%eax
    e68d:	83 e0 01             	and    $0x1,%eax
    e690:	eb f1                	jmp    0xe683
    e692:	f6 44 24 10 01       	testb  $0x1,0x10(%esp)
    e697:	74 14                	je     0xe6ad
    e699:	b8 01 00 00 00       	mov    $0x1,%eax
    e69e:	d3 e0                	shl    %cl,%eax
    e6a0:	09 82 f4 00 00 00    	or     %eax,0xf4(%edx)
    e6a6:	b8 00 00 00 00       	mov    $0x0,%eax
    e6ab:	eb d6                	jmp    0xe683
    e6ad:	b8 fe ff ff ff       	mov    $0xfffffffe,%eax
    e6b2:	d3 c0                	rol    %cl,%eax
    e6b4:	21 82 f4 00 00 00    	and    %eax,0xf4(%edx)
    e6ba:	b8 00 00 00 00       	mov    $0x0,%eax
    e6bf:	eb c2                	jmp    0xe683
    e6c1:	0f b7 43 02          	movzwl 0x2(%ebx),%eax
    e6c5:	eb bc                	jmp    0xe683
    e6c7:	66 8b 53 02          	mov    0x2(%ebx),%dx
    e6cb:	80 e6 f3             	and    $0xf3,%dh
    e6ce:	8b 44 24 10          	mov    0x10(%esp),%eax
    e6d2:	25 00 0c 00 00       	and    $0xc00,%eax
    e6d7:	09 d0                	or     %edx,%eax
    e6d9:	66 89 43 02          	mov    %ax,0x2(%ebx)
    e6dd:	b8 00 00 00 00       	mov    $0x0,%eax
    e6e2:	eb 9f                	jmp    0xe683
    e6e4:	b8 f7 ff ff ff       	mov    $0xfffffff7,%eax
    e6e9:	eb 98                	jmp    0xe683
    e6eb:	b8 f7 ff ff ff       	mov    $0xfffffff7,%eax
    e6f0:	eb 91                	jmp    0xe683
    e6f2:	b8 ff ff ff ff       	mov    $0xffffffff,%eax
    e6f7:	eb 8a                	jmp    0xe683
    e6f9:	56                   	push   %esi
    e6fa:	53                   	push   %ebx
    e6fb:	83 ec 04             	sub    $0x4,%esp
    e6fe:	8b 44 24 10          	mov    0x10(%esp),%eax
    e702:	83 f8 13             	cmp    $0x13,%eax
    e705:	77 6a                	ja     0xe771
    e707:	8b 15 00 2d 01 00    	mov    0x12d00,%edx
    e70d:	8b 84 82 f8 00 00 00 	mov    0xf8(%edx,%eax,4),%eax
    e714:	85 c0                	test   %eax,%eax
    e716:	74 60                	je     0xe778
    e718:	8b 50 08             	mov    0x8(%eax),%edx
    e71b:	8b 02                	mov    (%edx),%eax
    e71d:	25 00 b0 ff ff       	and    $0xffffb000,%eax
    e722:	66 3d 00 20          	cmp    $0x2000,%ax
    e726:	74 07                	je     0xe72f
    e728:	b8 ea ff ff ff       	mov    $0xffffffea,%eax
    e72d:	eb 2a                	jmp    0xe759
    e72f:	0f b7 72 0e          	movzwl 0xe(%edx),%esi
    e733:	89 f3                	mov    %esi,%ebx
    e735:	c1 eb 08             	shr    $0x8,%ebx
    e738:	83 fb 07             	cmp    $0x7,%ebx
    e73b:	77 22                	ja     0xe75f
    e73d:	8b 04 9d 60 f0 00 00 	mov    0xf060(,%ebx,4),%eax
    e744:	85 c0                	test   %eax,%eax
    e746:	74 37                	je     0xe77f
    e748:	83 ec 04             	sub    $0x4,%esp
    e74b:	ff 74 24 1c          	pushl  0x1c(%esp)
    e74f:	ff 74 24 1c          	pushl  0x1c(%esp)
    e753:	56                   	push   %esi
    e754:	ff d0                	call   *%eax
    e756:	83 c4 10             	add    $0x10,%esp
    e759:	83 c4 04             	add    $0x4,%esp
    e75c:	5b                   	pop    %ebx
    e75d:	5e                   	pop    %esi
    e75e:	c3                   	ret    
    e75f:	83 ec 0c             	sub    $0xc,%esp
    e762:	68 c8 f6 00 00       	push   $0xf6c8
    e767:	e8 17 7d ff ff       	call   0x6483
    e76c:	83 c4 10             	add    $0x10,%esp
    e76f:	eb cc                	jmp    0xe73d
    e771:	b8 f7 ff ff ff       	mov    $0xfffffff7,%eax
    e776:	eb e1                	jmp    0xe759
    e778:	b8 f7 ff ff ff       	mov    $0xfffffff7,%eax
    e77d:	eb da                	jmp    0xe759
    e77f:	b8 e7 ff ff ff       	mov    $0xffffffe7,%eax
    e784:	eb d3                	jmp    0xe759
    e786:	55                   	push   %ebp
    e787:	57                   	push   %edi
    e788:	56                   	push   %esi
    e789:	53                   	push   %ebx
    e78a:	83 ec 3c             	sub    $0x3c,%esp
    e78d:	8b 74 24 58          	mov    0x58(%esp),%esi
    e791:	65 a1 14 00 00 00    	mov    %gs:0x14,%eax
    e797:	89 44 24 2c          	mov    %eax,0x2c(%esp)
    e79b:	31 c0                	xor    %eax,%eax
    e79d:	8b 44 24 50          	mov    0x50(%esp),%eax
    e7a1:	c1 e8 08             	shr    $0x8,%eax
    e7a4:	83 f8 05             	cmp    $0x5,%eax
    e7a7:	74 33                	je     0xe7dc
    e7a9:	0f b6 5c 24 50       	movzbl 0x50(%esp),%ebx
    e7ae:	8d 3c 1b             	lea    (%ebx,%ebx,1),%edi
    e7b1:	01 df                	add    %ebx,%edi
    e7b3:	89 f8                	mov    %edi,%eax
    e7b5:	c1 e0 05             	shl    $0x5,%eax
    e7b8:	01 c7                	add    %eax,%edi
    e7ba:	c1 e7 05             	shl    $0x5,%edi
    e7bd:	8d 9f 60 3e 01 00    	lea    0x13e60(%edi),%ebx
    e7c3:	8b 44 24 54          	mov    0x54(%esp),%eax
    e7c7:	2d 01 54 00 00       	sub    $0x5401,%eax
    e7cc:	83 f8 10             	cmp    $0x10,%eax
    e7cf:	0f 87 11 02 00 00    	ja     0xe9e6
    e7d5:	ff 24 85 80 f0 00 00 	jmp    *0xf080(,%eax,4)
    e7dc:	a1 00 2d 01 00       	mov    0x12d00,%eax
    e7e1:	8b 98 e4 00 00 00    	mov    0xe4(%eax),%ebx
    e7e7:	85 db                	test   %ebx,%ebx
    e7e9:	79 c3                	jns    0xe7ae
    e7eb:	83 ec 0c             	sub    $0xc,%esp
    e7ee:	68 e1 f6 00 00       	push   $0xf6e1
    e7f3:	e8 8b 7c ff ff       	call   0x6483
    e7f8:	83 c4 10             	add    $0x10,%esp
    e7fb:	eb b1                	jmp    0xe7ae
    e7fd:	b8 00 00 00 00       	mov    $0x0,%eax
    e802:	e9 1c 01 00 00       	jmp    0xe923
    e807:	83 ec 08             	sub    $0x8,%esp
    e80a:	6a 24                	push   $0x24
    e80c:	56                   	push   %esi
    e80d:	e8 37 78 ff ff       	call   0x6049
    e812:	8d 4e 24             	lea    0x24(%esi),%ecx
    e815:	83 c4 10             	add    $0x10,%esp
    e818:	89 f0                	mov    %esi,%eax
    e81a:	29 f3                	sub    %esi,%ebx
    e81c:	8a 14 03             	mov    (%ebx,%eax,1),%dl
    e81f:	64 88 10             	mov    %dl,%fs:(%eax)
    e822:	40                   	inc    %eax
    e823:	39 c8                	cmp    %ecx,%eax
    e825:	75 f5                	jne    0xe81c
    e827:	b8 00 00 00 00       	mov    $0x0,%eax
    e82c:	e9 f2 00 00 00       	jmp    0xe923
    e831:	fa                   	cli    
    e832:	8b 43 38             	mov    0x38(%ebx),%eax
    e835:	89 43 34             	mov    %eax,0x34(%ebx)
    e838:	fb                   	sti    
    e839:	8d 4e 24             	lea    0x24(%esi),%ecx
    e83c:	89 f2                	mov    %esi,%edx
    e83e:	29 f3                	sub    %esi,%ebx
    e840:	64 8a 02             	mov    %fs:(%edx),%al
    e843:	88 04 13             	mov    %al,(%ebx,%edx,1)
    e846:	42                   	inc    %edx
    e847:	39 ca                	cmp    %ecx,%edx
    e849:	75 f5                	jne    0xe840
    e84b:	b8 00 00 00 00       	mov    $0x0,%eax
    e850:	e9 ce 00 00 00       	jmp    0xe923
    e855:	83 ec 08             	sub    $0x8,%esp
    e858:	6a 12                	push   $0x12
    e85a:	56                   	push   %esi
    e85b:	e8 e9 77 ff ff       	call   0x6049
    e860:	8b 87 60 3e 01 00    	mov    0x13e60(%edi),%eax
    e866:	66 89 44 24 2a       	mov    %ax,0x2a(%esp)
    e86b:	8b 43 04             	mov    0x4(%ebx),%eax
    e86e:	66 89 44 24 2c       	mov    %ax,0x2c(%esp)
    e873:	8b 43 08             	mov    0x8(%ebx),%eax
    e876:	66 89 44 24 2e       	mov    %ax,0x2e(%esp)
    e87b:	8b 43 0c             	mov    0xc(%ebx),%eax
    e87e:	66 89 44 24 30       	mov    %ax,0x30(%esp)
    e883:	8a 43 10             	mov    0x10(%ebx),%al
    e886:	88 44 24 32          	mov    %al,0x32(%esp)
    e88a:	83 c4 10             	add    $0x10,%esp
    e88d:	b8 00 00 00 00       	mov    $0x0,%eax
    e892:	8a 4c 03 11          	mov    0x11(%ebx,%eax,1),%cl
    e896:	88 4c 04 23          	mov    %cl,0x23(%esp,%eax,1)
    e89a:	40                   	inc    %eax
    e89b:	83 f8 08             	cmp    $0x8,%eax
    e89e:	75 f2                	jne    0xe892
    e8a0:	8d 5e 12             	lea    0x12(%esi),%ebx
    e8a3:	89 f0                	mov    %esi,%eax
    e8a5:	8d 4c 24 1a          	lea    0x1a(%esp),%ecx
    e8a9:	29 f1                	sub    %esi,%ecx
    e8ab:	8a 14 01             	mov    (%ecx,%eax,1),%dl
    e8ae:	64 88 10             	mov    %dl,%fs:(%eax)
    e8b1:	40                   	inc    %eax
    e8b2:	39 d8                	cmp    %ebx,%eax
    e8b4:	75 f5                	jne    0xe8ab
    e8b6:	b8 00 00 00 00       	mov    $0x0,%eax
    e8bb:	eb 66                	jmp    0xe923
    e8bd:	fa                   	cli    
    e8be:	8b 43 38             	mov    0x38(%ebx),%eax
    e8c1:	89 43 34             	mov    %eax,0x34(%ebx)
    e8c4:	fb                   	sti    
    e8c5:	8d 6e 12             	lea    0x12(%esi),%ebp
    e8c8:	89 f2                	mov    %esi,%edx
    e8ca:	8d 4c 24 1a          	lea    0x1a(%esp),%ecx
    e8ce:	29 f1                	sub    %esi,%ecx
    e8d0:	64 8a 02             	mov    %fs:(%edx),%al
    e8d3:	88 04 11             	mov    %al,(%ecx,%edx,1)
    e8d6:	42                   	inc    %edx
    e8d7:	39 ea                	cmp    %ebp,%edx
    e8d9:	75 f5                	jne    0xe8d0
    e8db:	66 8b 44 24 1a       	mov    0x1a(%esp),%ax
    e8e0:	66 89 87 60 3e 01 00 	mov    %ax,0x13e60(%edi)
    e8e7:	8b 44 24 1c          	mov    0x1c(%esp),%eax
    e8eb:	66 89 43 04          	mov    %ax,0x4(%ebx)
    e8ef:	66 8b 44 24 1e       	mov    0x1e(%esp),%ax
    e8f4:	66 89 43 08          	mov    %ax,0x8(%ebx)
    e8f8:	8b 44 24 20          	mov    0x20(%esp),%eax
    e8fc:	66 89 43 0c          	mov    %ax,0xc(%ebx)
    e900:	8a 44 24 22          	mov    0x22(%esp),%al
    e904:	88 43 10             	mov    %al,0x10(%ebx)
    e907:	b8 00 00 00 00       	mov    $0x0,%eax
    e90c:	8a 4c 04 23          	mov    0x23(%esp,%eax,1),%cl
    e910:	88 4c 24 0f          	mov    %cl,0xf(%esp)
    e914:	88 4c 03 11          	mov    %cl,0x11(%ebx,%eax,1)
    e918:	40                   	inc    %eax
    e919:	83 f8 08             	cmp    $0x8,%eax
    e91c:	75 ee                	jne    0xe90c
    e91e:	b8 00 00 00 00       	mov    $0x0,%eax
    e923:	8b 74 24 2c          	mov    0x2c(%esp),%esi
    e927:	65 33 35 14 00 00 00 	xor    %gs:0x14,%esi
    e92e:	0f 85 c6 00 00 00    	jne    0xe9fa
    e934:	83 c4 3c             	add    $0x3c,%esp
    e937:	5b                   	pop    %ebx
    e938:	5e                   	pop    %esi
    e939:	5f                   	pop    %edi
    e93a:	5d                   	pop    %ebp
    e93b:	c3                   	ret    
    e93c:	85 f6                	test   %esi,%esi
    e93e:	74 2b                	je     0xe96b
    e940:	83 fe 01             	cmp    $0x1,%esi
    e943:	74 32                	je     0xe977
    e945:	83 fe 02             	cmp    $0x2,%esi
    e948:	0f 85 a2 00 00 00    	jne    0xe9f0
    e94e:	fa                   	cli    
    e94f:	8b 43 38             	mov    0x38(%ebx),%eax
    e952:	89 43 34             	mov    %eax,0x34(%ebx)
    e955:	fb                   	sti    
    e956:	fa                   	cli    
    e957:	8b 83 48 04 00 00    	mov    0x448(%ebx),%eax
    e95d:	89 83 44 04 00 00    	mov    %eax,0x444(%ebx)
    e963:	fb                   	sti    
    e964:	b8 00 00 00 00       	mov    $0x0,%eax
    e969:	eb b8                	jmp    0xe923
    e96b:	fa                   	cli    
    e96c:	8b 43 38             	mov    0x38(%ebx),%eax
    e96f:	89 43 34             	mov    %eax,0x34(%ebx)
    e972:	fb                   	sti    
    e973:	89 f0                	mov    %esi,%eax
    e975:	eb ac                	jmp    0xe923
    e977:	fa                   	cli    
    e978:	8b 83 48 04 00 00    	mov    0x448(%ebx),%eax
    e97e:	89 83 44 04 00 00    	mov    %eax,0x444(%ebx)
    e984:	fb                   	sti    
    e985:	b8 00 00 00 00       	mov    $0x0,%eax
    e98a:	eb 97                	jmp    0xe923
    e98c:	83 ec 08             	sub    $0x8,%esp
    e98f:	6a 04                	push   $0x4
    e991:	56                   	push   %esi
    e992:	e8 b2 76 ff ff       	call   0x6049
    e997:	8b 43 24             	mov    0x24(%ebx),%eax
    e99a:	64 89 06             	mov    %eax,%fs:(%esi)
    e99d:	83 c4 10             	add    $0x10,%esp
    e9a0:	b8 00 00 00 00       	mov    $0x0,%eax
    e9a5:	e9 79 ff ff ff       	jmp    0xe923
    e9aa:	64 8b 06             	mov    %fs:(%esi),%eax
    e9ad:	89 43 24             	mov    %eax,0x24(%ebx)
    e9b0:	b8 00 00 00 00       	mov    $0x0,%eax
    e9b5:	e9 69 ff ff ff       	jmp    0xe923
    e9ba:	83 ec 08             	sub    $0x8,%esp
    e9bd:	6a 04                	push   $0x4
    e9bf:	56                   	push   %esi
    e9c0:	e8 84 76 ff ff       	call   0x6049
    e9c5:	8b 83 44 04 00 00    	mov    0x444(%ebx),%eax
    e9cb:	2b 83 48 04 00 00    	sub    0x448(%ebx),%eax
    e9d1:	25 ff 03 00 00       	and    $0x3ff,%eax
    e9d6:	64 89 06             	mov    %eax,%fs:(%esi)
    e9d9:	83 c4 10             	add    $0x10,%esp
    e9dc:	b8 00 00 00 00       	mov    $0x0,%eax
    e9e1:	e9 3d ff ff ff       	jmp    0xe923
    e9e6:	b8 ea ff ff ff       	mov    $0xffffffea,%eax
    e9eb:	e9 33 ff ff ff       	jmp    0xe923
    e9f0:	b8 ea ff ff ff       	mov    $0xffffffea,%eax
    e9f5:	e9 29 ff ff ff       	jmp    0xe923
    e9fa:	e8 a7 7a ff ff       	call   0x64a6
    e9ff:	85 d2                	test   %edx,%edx
    ea01:	75 01                	jne    0xea04
    ea03:	c3                   	ret    
    ea04:	55                   	push   %ebp
    ea05:	57                   	push   %edi
    ea06:	56                   	push   %esi
    ea07:	53                   	push   %ebx
    ea08:	83 ec 24             	sub    $0x24,%esp
    ea0b:	89 54 24 14          	mov    %edx,0x14(%esp)
    ea0f:	89 c7                	mov    %eax,%edi
    ea11:	52                   	push   %edx
    ea12:	50                   	push   %eax
    ea13:	e8 1d cb ff ff       	call   0xb535
    ea18:	89 c5                	mov    %eax,%ebp
    ea1a:	83 c4 10             	add    $0x10,%esp
    ea1d:	85 c0                	test   %eax,%eax
    ea1f:	74 37                	je     0xea58
    ea21:	8b 18                	mov    (%eax),%ebx
    ea23:	8d b3 00 04 00 00    	lea    0x400(%ebx),%esi
    ea29:	eb 07                	jmp    0xea32
    ea2b:	83 c3 02             	add    $0x2,%ebx
    ea2e:	39 de                	cmp    %ebx,%esi
    ea30:	74 1a                	je     0xea4c
    ea32:	66 8b 03             	mov    (%ebx),%ax
    ea35:	66 85 c0             	test   %ax,%ax
    ea38:	74 f1                	je     0xea2b
    ea3a:	83 ec 08             	sub    $0x8,%esp
    ea3d:	0f b7 c0             	movzwl %ax,%eax
    ea40:	50                   	push   %eax
    ea41:	57                   	push   %edi
    ea42:	e8 3b f6 ff ff       	call   0xe082
    ea47:	83 c4 10             	add    $0x10,%esp
    ea4a:	eb df                	jmp    0xea2b
    ea4c:	83 ec 0c             	sub    $0xc,%esp
    ea4f:	55                   	push   %ebp
    ea50:	e8 58 c7 ff ff       	call   0xb1ad
    ea55:	83 c4 10             	add    $0x10,%esp
    ea58:	83 ec 08             	sub    $0x8,%esp
    ea5b:	ff 74 24 14          	pushl  0x14(%esp)
    ea5f:	57                   	push   %edi
    ea60:	e8 1d f6 ff ff       	call   0xe082
    ea65:	83 c4 2c             	add    $0x2c,%esp
    ea68:	5b                   	pop    %ebx
    ea69:	5e                   	pop    %esi
    ea6a:	5f                   	pop    %edi
    ea6b:	5d                   	pop    %ebp
    ea6c:	c3                   	ret    
    ea6d:	55                   	push   %ebp
    ea6e:	57                   	push   %edi
    ea6f:	56                   	push   %esi
    ea70:	53                   	push   %ebx
    ea71:	83 ec 1c             	sub    $0x1c,%esp
    ea74:	8b 7c 24 30          	mov    0x30(%esp),%edi
    ea78:	8b 07                	mov    (%edi),%eax
    ea7a:	25 00 f0 ff ff       	and    $0xfffff000,%eax
    ea7f:	66 3d 00 80          	cmp    $0x8000,%ax
    ea83:	74 0a                	je     0xea8f
    ea85:	66 3d 00 40          	cmp    $0x4000,%ax
    ea89:	0f 85 85 00 00 00    	jne    0xeb14
    ea8f:	8d 5f 0e             	lea    0xe(%edi),%ebx
    ea92:	8d 77 1c             	lea    0x1c(%edi),%esi
    ea95:	eb 07                	jmp    0xea9e
    ea97:	83 c3 02             	add    $0x2,%ebx
    ea9a:	39 de                	cmp    %ebx,%esi
    ea9c:	74 23                	je     0xeac1
    ea9e:	66 8b 03             	mov    (%ebx),%ax
    eaa1:	66 85 c0             	test   %ax,%ax
    eaa4:	74 f1                	je     0xea97
    eaa6:	83 ec 08             	sub    $0x8,%esp
    eaa9:	0f b7 c0             	movzwl %ax,%eax
    eaac:	50                   	push   %eax
    eaad:	0f b7 47 2c          	movzwl 0x2c(%edi),%eax
    eab1:	50                   	push   %eax
    eab2:	e8 cb f5 ff ff       	call   0xe082
    eab7:	66 c7 03 00 00       	movw   $0x0,(%ebx)
    eabc:	83 c4 10             	add    $0x10,%esp
    eabf:	eb d6                	jmp    0xea97
    eac1:	0f b7 57 1c          	movzwl 0x1c(%edi),%edx
    eac5:	0f b7 47 2c          	movzwl 0x2c(%edi),%eax
    eac9:	e8 31 ff ff ff       	call   0xe9ff
    eace:	0f b7 47 1e          	movzwl 0x1e(%edi),%eax
    ead2:	89 44 24 08          	mov    %eax,0x8(%esp)
    ead6:	85 c0                	test   %eax,%eax
    ead8:	75 42                	jne    0xeb1c
    eada:	66 c7 47 1e 00 00    	movw   $0x0,0x1e(%edi)
    eae0:	66 c7 47 1c 00 00    	movw   $0x0,0x1c(%edi)
    eae6:	c7 47 04 00 00 00 00 	movl   $0x0,0x4(%edi)
    eaed:	c6 47 33 01          	movb   $0x1,0x33(%edi)
    eaf1:	8b 0d 08 69 01 00    	mov    0x16908,%ecx
    eaf7:	b8 1f 85 eb 51       	mov    $0x51eb851f,%eax
    eafc:	f7 e9                	imul   %ecx
    eafe:	89 d0                	mov    %edx,%eax
    eb00:	c1 f8 05             	sar    $0x5,%eax
    eb03:	c1 f9 1f             	sar    $0x1f,%ecx
    eb06:	29 c8                	sub    %ecx,%eax
    eb08:	03 05 04 69 01 00    	add    0x16904,%eax
    eb0e:	89 47 28             	mov    %eax,0x28(%edi)
    eb11:	89 47 08             	mov    %eax,0x8(%edi)
    eb14:	83 c4 1c             	add    $0x1c,%esp
    eb17:	5b                   	pop    %ebx
    eb18:	5e                   	pop    %esi
    eb19:	5f                   	pop    %edi
    eb1a:	5d                   	pop    %ebp
    eb1b:	c3                   	ret    
    eb1c:	0f b7 6f 2c          	movzwl 0x2c(%edi),%ebp
    eb20:	83 ec 08             	sub    $0x8,%esp
    eb23:	ff 74 24 10          	pushl  0x10(%esp)
    eb27:	55                   	push   %ebp
    eb28:	e8 08 ca ff ff       	call   0xb535
    eb2d:	89 44 24 1c          	mov    %eax,0x1c(%esp)
    eb31:	83 c4 10             	add    $0x10,%esp
    eb34:	85 c0                	test   %eax,%eax
    eb36:	74 34                	je     0xeb6c
    eb38:	8b 18                	mov    (%eax),%ebx
    eb3a:	8d b3 00 04 00 00    	lea    0x400(%ebx),%esi
    eb40:	eb 07                	jmp    0xeb49
    eb42:	83 c3 02             	add    $0x2,%ebx
    eb45:	39 f3                	cmp    %esi,%ebx
    eb47:	74 14                	je     0xeb5d
    eb49:	66 8b 13             	mov    (%ebx),%dx
    eb4c:	66 85 d2             	test   %dx,%dx
    eb4f:	74 f1                	je     0xeb42
    eb51:	0f b7 d2             	movzwl %dx,%edx
    eb54:	89 e8                	mov    %ebp,%eax
    eb56:	e8 a4 fe ff ff       	call   0xe9ff
    eb5b:	eb e5                	jmp    0xeb42
    eb5d:	83 ec 0c             	sub    $0xc,%esp
    eb60:	ff 74 24 18          	pushl  0x18(%esp)
    eb64:	e8 44 c6 ff ff       	call   0xb1ad
    eb69:	83 c4 10             	add    $0x10,%esp
    eb6c:	83 ec 08             	sub    $0x8,%esp
    eb6f:	ff 74 24 10          	pushl  0x10(%esp)
    eb73:	55                   	push   %ebp
    eb74:	e8 09 f5 ff ff       	call   0xe082
    eb79:	83 c4 10             	add    $0x10,%esp
    eb7c:	e9 59 ff ff ff       	jmp    0xeada
    eb81:	53                   	push   %ebx
    eb82:	b8 01 00 00 00       	mov    $0x1,%eax
    eb87:	8b 5c 24 08          	mov    0x8(%esp),%ebx
    eb8b:	cd 80                	int    $0x80
    eb8d:	5b                   	pop    %ebx
    eb8e:	c3                   	ret    
    eb8f:	56                   	push   %esi
    eb90:	53                   	push   %ebx
    eb91:	be 05 00 00 00       	mov    $0x5,%esi
    eb96:	8b 4c 24 10          	mov    0x10(%esp),%ecx
    eb9a:	8b 54 24 14          	mov    0x14(%esp),%edx
    eb9e:	89 f0                	mov    %esi,%eax
    eba0:	8b 5c 24 0c          	mov    0xc(%esp),%ebx
    eba4:	cd 80                	int    $0x80
    eba6:	85 c0                	test   %eax,%eax
    eba8:	78 03                	js     0xebad
    ebaa:	5b                   	pop    %ebx
    ebab:	5e                   	pop    %esi
    ebac:	c3                   	ret    
    ebad:	89 c6                	mov    %eax,%esi
    ebaf:	f7 de                	neg    %esi
    ebb1:	89 35 04 a2 01 00    	mov    %esi,0x1a204
    ebb7:	b8 ff ff ff ff       	mov    $0xffffffff,%eax
    ebbc:	eb ec                	jmp    0xebaa
    ebbe:	53                   	push   %ebx
    ebbf:	ba 06 00 00 00       	mov    $0x6,%edx
    ebc4:	89 d0                	mov    %edx,%eax
    ebc6:	8b 5c 24 08          	mov    0x8(%esp),%ebx
    ebca:	cd 80                	int    $0x80
    ebcc:	89 c2                	mov    %eax,%edx
    ebce:	85 c0                	test   %eax,%eax
    ebd0:	78 02                	js     0xebd4
    ebd2:	5b                   	pop    %ebx
    ebd3:	c3                   	ret    
    ebd4:	f7 da                	neg    %edx
    ebd6:	89 15 04 a2 01 00    	mov    %edx,0x1a204
    ebdc:	b8 ff ff ff ff       	mov    $0xffffffff,%eax
    ebe1:	eb ef                	jmp    0xebd2
    ebe3:	56                   	push   %esi
    ebe4:	53                   	push   %ebx
    ebe5:	be 04 00 00 00       	mov    $0x4,%esi
    ebea:	8b 4c 24 10          	mov    0x10(%esp),%ecx
    ebee:	8b 54 24 14          	mov    0x14(%esp),%edx
    ebf2:	89 f0                	mov    %esi,%eax
    ebf4:	8b 5c 24 0c          	mov    0xc(%esp),%ebx
    ebf8:	cd 80                	int    $0x80
    ebfa:	89 c6                	mov    %eax,%esi
    ebfc:	85 c0                	test   %eax,%eax
    ebfe:	78 03                	js     0xec03
    ec00:	5b                   	pop    %ebx
    ec01:	5e                   	pop    %esi
    ec02:	c3                   	ret    
    ec03:	f7 de                	neg    %esi
    ec05:	89 35 04 a2 01 00    	mov    %esi,0x1a204
    ec0b:	b8 ff ff ff ff       	mov    $0xffffffff,%eax
    ec10:	eb ee                	jmp    0xec00
    ec12:	53                   	push   %ebx
    ec13:	ba 29 00 00 00       	mov    $0x29,%edx
    ec18:	89 d0                	mov    %edx,%eax
    ec1a:	8b 5c 24 08          	mov    0x8(%esp),%ebx
    ec1e:	cd 80                	int    $0x80
    ec20:	89 c2                	mov    %eax,%edx
    ec22:	85 c0                	test   %eax,%eax
    ec24:	78 02                	js     0xec28
    ec26:	5b                   	pop    %ebx
    ec27:	c3                   	ret    
    ec28:	f7 da                	neg    %edx
    ec2a:	89 15 04 a2 01 00    	mov    %edx,0x1a204
    ec30:	b8 ff ff ff ff       	mov    $0xffffffff,%eax
    ec35:	eb ef                	jmp    0xec26
    ec37:	ba 42 00 00 00       	mov    $0x42,%edx
    ec3c:	89 d0                	mov    %edx,%eax
    ec3e:	cd 80                	int    $0x80
    ec40:	89 c2                	mov    %eax,%edx
    ec42:	85 c0                	test   %eax,%eax
    ec44:	78 01                	js     0xec47
    ec46:	c3                   	ret    
    ec47:	f7 da                	neg    %edx
    ec49:	89 15 04 a2 01 00    	mov    %edx,0x1a204
    ec4f:	b8 ff ff ff ff       	mov    $0xffffffff,%eax
    ec54:	eb f0                	jmp    0xec46
    ec56:	56                   	push   %esi
    ec57:	53                   	push   %ebx
    ec58:	be 0b 00 00 00       	mov    $0xb,%esi
    ec5d:	8b 4c 24 10          	mov    0x10(%esp),%ecx
    ec61:	8b 54 24 14          	mov    0x14(%esp),%edx
    ec65:	89 f0                	mov    %esi,%eax
    ec67:	8b 5c 24 0c          	mov    0xc(%esp),%ebx
    ec6b:	cd 80                	int    $0x80
    ec6d:	89 c6                	mov    %eax,%esi
    ec6f:	85 c0                	test   %eax,%eax
    ec71:	78 03                	js     0xec76
    ec73:	5b                   	pop    %ebx
    ec74:	5e                   	pop    %esi
    ec75:	c3                   	ret    
    ec76:	f7 de                	neg    %esi
    ec78:	89 35 04 a2 01 00    	mov    %esi,0x1a204
    ec7e:	b8 ff ff ff ff       	mov    $0xffffffff,%eax
    ec83:	eb ee                	jmp    0xec73
    ec85:	56                   	push   %esi
    ec86:	53                   	push   %ebx
    ec87:	be 07 00 00 00       	mov    $0x7,%esi
    ec8c:	8b 4c 24 10          	mov    0x10(%esp),%ecx
    ec90:	8b 54 24 14          	mov    0x14(%esp),%edx
    ec94:	89 f0                	mov    %esi,%eax
    ec96:	8b 5c 24 0c          	mov    0xc(%esp),%ebx
    ec9a:	cd 80                	int    $0x80
    ec9c:	89 c6                	mov    %eax,%esi
    ec9e:	85 c0                	test   %eax,%eax
    eca0:	78 03                	js     0xeca5
    eca2:	5b                   	pop    %ebx
    eca3:	5e                   	pop    %esi
    eca4:	c3                   	ret    
    eca5:	f7 de                	neg    %esi
    eca7:	89 35 04 a2 01 00    	mov    %esi,0x1a204
    ecad:	b8 ff ff ff ff       	mov    $0xffffffff,%eax
    ecb2:	eb ee                	jmp    0xeca2
    ecb4:	56                   	push   %esi
    ecb5:	53                   	push   %ebx
    ecb6:	be 07 00 00 00       	mov    $0x7,%esi
    ecbb:	8b 4c 24 0c          	mov    0xc(%esp),%ecx
    ecbf:	bb ff ff ff ff       	mov    $0xffffffff,%ebx
    ecc4:	ba 00 00 00 00       	mov    $0x0,%edx
    ecc9:	89 f0                	mov    %esi,%eax
    eccb:	cd 80                	int    $0x80
    eccd:	89 c6                	mov    %eax,%esi
    eccf:	85 c0                	test   %eax,%eax
    ecd1:	78 03                	js     0xecd6
    ecd3:	5b                   	pop    %ebx
    ecd4:	5e                   	pop    %esi
    ecd5:	c3                   	ret    
    ecd6:	f7 de                	neg    %esi
    ecd8:	89 35 04 a2 01 00    	mov    %esi,0x1a204
    ecde:	b8 ff ff ff ff       	mov    $0xffffffff,%eax
    ece3:	eb ee                	jmp    0xecd3
	...
    ecfd:	00 00                	add    %al,(%eax)
    ecff:	00 f8                	add    %bh,%al
    ed01:	54                   	push   %esp
    ed02:	00 00                	add    %al,(%eax)
    ed04:	dc 54 00 00          	fcoml  0x0(%eax,%eax,1)
    ed08:	dc 54 00 00          	fcoml  0x0(%eax,%eax,1)
    ed0c:	dc 54 00 00          	fcoml  0x0(%eax,%eax,1)
    ed10:	dc 54 00 00          	fcoml  0x0(%eax,%eax,1)
    ed14:	dc 54 00 00          	fcoml  0x0(%eax,%eax,1)
    ed18:	dc 54 00 00          	fcoml  0x0(%eax,%eax,1)
    ed1c:	f8                   	clc    
    ed1d:	54                   	push   %esp
    ed1e:	00 00                	add    %al,(%eax)
    ed20:	dc 54 00 00          	fcoml  0x0(%eax,%eax,1)
    ed24:	f8                   	clc    
    ed25:	54                   	push   %esp
    ed26:	00 00                	add    %al,(%eax)
    ed28:	dc 54 00 00          	fcoml  0x0(%eax,%eax,1)
    ed2c:	dc 54 00 00          	fcoml  0x0(%eax,%eax,1)
    ed30:	dc 54 00 00          	fcoml  0x0(%eax,%eax,1)
    ed34:	dc 54 00 00          	fcoml  0x0(%eax,%eax,1)
    ed38:	dc 54 00 00          	fcoml  0x0(%eax,%eax,1)
    ed3c:	f8                   	clc    
    ed3d:	54                   	push   %esp
    ed3e:	00 00                	add    %al,(%eax)
    ed40:	f8                   	clc    
    ed41:	54                   	push   %esp
    ed42:	00 00                	add    %al,(%eax)
    ed44:	dc 54 00 00          	fcoml  0x0(%eax,%eax,1)
    ed48:	39 67 00             	cmp    %esp,0x0(%edi)
    ed4b:	00 48 67             	add    %cl,0x67(%eax)
    ed4e:	00 00                	add    %al,(%eax)
    ed50:	48                   	dec    %eax
    ed51:	67 00 00             	add    %al,(%bx,%si)
    ed54:	3e 67 00 00          	add    %al,%ds:(%bx,%si)
    ed58:	48                   	dec    %eax
    ed59:	67 00 00             	add    %al,(%bx,%si)
    ed5c:	48                   	dec    %eax
    ed5d:	67 00 00             	add    %al,(%bx,%si)
    ed60:	48                   	dec    %eax
    ed61:	67 00 00             	add    %al,(%bx,%si)
    ed64:	48                   	dec    %eax
    ed65:	67 00 00             	add    %al,(%bx,%si)
    ed68:	48                   	dec    %eax
    ed69:	67 00 00             	add    %al,(%bx,%si)
    ed6c:	48                   	dec    %eax
    ed6d:	67 00 00             	add    %al,(%bx,%si)
    ed70:	48                   	dec    %eax
    ed71:	67 00 00             	add    %al,(%bx,%si)
    ed74:	34 67                	xor    $0x67,%al
    ed76:	00 00                	add    %al,(%eax)
    ed78:	48                   	dec    %eax
    ed79:	67 00 00             	add    %al,(%bx,%si)
    ed7c:	1c 67                	sbb    $0x67,%al
    ed7e:	00 00                	add    %al,(%eax)
    ed80:	48                   	dec    %eax
    ed81:	67 00 00             	add    %al,(%bx,%si)
    ed84:	48                   	dec    %eax
    ed85:	67 00 00             	add    %al,(%bx,%si)
    ed88:	43                   	inc    %ebx
    ed89:	67 00 00             	add    %al,(%bx,%si)
    ed8c:	81 69 00 00 04 6a 00 	subl   $0x6a0400,0x0(%ecx)
    ed93:	00 04 6a             	add    %al,(%edx,%ebp,2)
    ed96:	00 00                	add    %al,(%eax)
    ed98:	04 6a                	add    $0x6a,%al
    ed9a:	00 00                	add    %al,(%eax)
    ed9c:	04 6a                	add    $0x6a,%al
    ed9e:	00 00                	add    %al,(%eax)
    eda0:	04 6a                	add    $0x6a,%al
    eda2:	00 00                	add    %al,(%eax)
    eda4:	04 6a                	add    $0x6a,%al
    eda6:	00 00                	add    %al,(%eax)
    eda8:	04 6a                	add    $0x6a,%al
    edaa:	00 00                	add    %al,(%eax)
    edac:	04 6a                	add    $0x6a,%al
    edae:	00 00                	add    %al,(%eax)
    edb0:	04 6a                	add    $0x6a,%al
    edb2:	00 00                	add    %al,(%eax)
    edb4:	04 6a                	add    $0x6a,%al
    edb6:	00 00                	add    %al,(%eax)
    edb8:	49                   	dec    %ecx
    edb9:	68 00 00 c9 69       	push   $0x69c90000
    edbe:	00 00                	add    %al,(%eax)
    edc0:	04 6a                	add    $0x6a,%al
    edc2:	00 00                	add    %al,(%eax)
    edc4:	04 6a                	add    $0x6a,%al
    edc6:	00 00                	add    %al,(%eax)
    edc8:	04 6a                	add    $0x6a,%al
    edca:	00 00                	add    %al,(%eax)
    edcc:	04 6a                	add    $0x6a,%al
    edce:	00 00                	add    %al,(%eax)
    edd0:	c9                   	leave  
    edd1:	69 00 00 04 6a 00    	imul   $0x6a0400,(%eax),%eax
    edd7:	00 04 6a             	add    %al,(%edx,%ebp,2)
    edda:	00 00                	add    %al,(%eax)
    eddc:	04 6a                	add    $0x6a,%al
    edde:	00 00                	add    %al,(%eax)
    ede0:	04 6a                	add    $0x6a,%al
    ede2:	00 00                	add    %al,(%eax)
    ede4:	f5                   	cmc    
    ede5:	69 00 00 1d 69 00    	imul   $0x691d00,(%eax),%eax
    edeb:	00 46 69             	add    %al,0x69(%esi)
    edee:	00 00                	add    %al,(%eax)
    edf0:	04 6a                	add    $0x6a,%al
    edf2:	00 00                	add    %al,(%eax)
    edf4:	04 6a                	add    $0x6a,%al
    edf6:	00 00                	add    %al,(%eax)
    edf8:	99                   	cltd   
    edf9:	68 00 00 04 6a       	push   $0x6a040000
    edfe:	00 00                	add    %al,(%eax)
    ee00:	cc                   	int3   
    ee01:	69 00 00 04 6a 00    	imul   $0x6a0400,(%eax),%eax
    ee07:	00 04 6a             	add    %al,(%edx,%ebp,2)
    ee0a:	00 00                	add    %al,(%eax)
    ee0c:	7e 69                	jle    0xee77
    ee0e:	00 00                	add    %al,(%eax)
    ee10:	5d                   	pop    %ebp
    ee11:	74 00                	je     0xee13
    ee13:	00 4b 74             	add    %cl,0x74(%ebx)
    ee16:	00 00                	add    %al,(%eax)
    ee18:	61                   	popa   
    ee19:	74 00                	je     0xee1b
    ee1b:	00 61 74             	add    %ah,0x74(%ecx)
    ee1e:	00 00                	add    %al,(%eax)
    ee20:	51                   	push   %ecx
    ee21:	74 00                	je     0xee23
    ee23:	00 61 74             	add    %ah,0x74(%ecx)
    ee26:	00 00                	add    %al,(%eax)
    ee28:	61                   	popa   
    ee29:	74 00                	je     0xee2b
    ee2b:	00 57 74             	add    %dl,0x74(%edi)
    ee2e:	00 00                	add    %al,(%eax)
    ee30:	61                   	popa   
    ee31:	74 00                	je     0xee33
    ee33:	00 61 74             	add    %ah,0x74(%ecx)
    ee36:	00 00                	add    %al,(%eax)
    ee38:	61                   	popa   
    ee39:	74 00                	je     0xee3b
    ee3b:	00 61 74             	add    %ah,0x74(%ecx)
    ee3e:	00 00                	add    %al,(%eax)
    ee40:	61                   	popa   
    ee41:	74 00                	je     0xee43
    ee43:	00 61 74             	add    %ah,0x74(%ecx)
    ee46:	00 00                	add    %al,(%eax)
    ee48:	61                   	popa   
    ee49:	74 00                	je     0xee4b
    ee4b:	00 61 74             	add    %ah,0x74(%ecx)
    ee4e:	00 00                	add    %al,(%eax)
    ee50:	61                   	popa   
    ee51:	74 00                	je     0xee53
    ee53:	00 61 74             	add    %ah,0x74(%ecx)
    ee56:	00 00                	add    %al,(%eax)
    ee58:	61                   	popa   
    ee59:	74 00                	je     0xee5b
    ee5b:	00 61 74             	add    %ah,0x74(%ecx)
    ee5e:	00 00                	add    %al,(%eax)
    ee60:	61                   	popa   
    ee61:	74 00                	je     0xee63
    ee63:	00 61 74             	add    %ah,0x74(%ecx)
    ee66:	00 00                	add    %al,(%eax)
    ee68:	61                   	popa   
    ee69:	74 00                	je     0xee6b
    ee6b:	00 61 74             	add    %ah,0x74(%ecx)
    ee6e:	00 00                	add    %al,(%eax)
    ee70:	61                   	popa   
    ee71:	74 00                	je     0xee73
    ee73:	00 61 74             	add    %ah,0x74(%ecx)
    ee76:	00 00                	add    %al,(%eax)
    ee78:	61                   	popa   
    ee79:	74 00                	je     0xee7b
    ee7b:	00 5d 74             	add    %bl,0x74(%ebp)
    ee7e:	00 00                	add    %al,(%eax)
    ee80:	de 74 00 00          	fidivs 0x0(%eax,%eax,1)
    ee84:	3a 76 00             	cmp    0x0(%esi),%dh
    ee87:	00 46 77             	add    %al,0x77(%esi)
    ee8a:	00 00                	add    %al,(%eax)
    ee8c:	8f                   	(bad)  
    ee8d:	77 00                	ja     0xee8f
    ee8f:	00 dc                	add    %bl,%ah
    ee91:	77 00                	ja     0xee93
    ee93:	00 f9                	add    %bh,%cl
    ee95:	7b 00                	jnp    0xee97
    ee97:	00 22                	add    %ah,(%edx)
    ee99:	78 00                	js     0xee9b
    ee9b:	00 79 78             	add    %bh,0x78(%ecx)
    ee9e:	00 00                	add    %al,(%eax)
    eea0:	d0 78 00             	sarb   0x0(%eax)
    eea3:	00 25 79 00 00 7a    	add    %ah,0x7a000079
    eea9:	79 00                	jns    0xeeab
    eeab:	00 c6                	add    %al,%dh
    eead:	79 00                	jns    0xeeaf
    eeaf:	00 fb                	add    %bh,%bl
    eeb1:	77 00                	ja     0xeeb3
    eeb3:	00 42 7a             	add    %al,0x7a(%edx)
    eeb6:	00 00                	add    %al,(%eax)
    eeb8:	a5                   	movsl  %ds:(%esi),%es:(%edi)
    eeb9:	74 00                	je     0xeebb
    eebb:	00 78 7a             	add    %bh,0x7a(%eax)
    eebe:	00 00                	add    %al,(%eax)
    eec0:	cd 7a                	int    $0x7a
    eec2:	00 00                	add    %al,(%eax)
    eec4:	42                   	inc    %edx
    eec5:	7b 00                	jnp    0xeec7
    eec7:	00 64 7b 00          	add    %ah,0x0(%ebx,%edi,2)
    eecb:	00 a5 74 00 00 a5    	add    %ah,-0x5affff8c(%ebp)
    eed1:	74 00                	je     0xeed3
    eed3:	00 86 7b 00 00 a5    	add    %al,-0x5affff85(%esi)
    eed9:	74 00                	je     0xeedb
    eedb:	00 a5 74 00 00 a5    	add    %ah,-0x5affff8c(%ebp)
    eee1:	74 00                	je     0xeee3
    eee3:	00 a5 74 00 00 a5    	add    %ah,-0x5affff8c(%ebp)
    eee9:	74 00                	je     0xeeeb
    eeeb:	00 a5 74 00 00 a5    	add    %ah,-0x5affff8c(%ebp)
    eef1:	74 00                	je     0xeef3
    eef3:	00 a5 74 00 00 a5    	add    %ah,-0x5affff8c(%ebp)
    eef9:	74 00                	je     0xeefb
    eefb:	00 a5 74 00 00 a5    	add    %ah,-0x5affff8c(%ebp)
    ef01:	74 00                	je     0xef03
    ef03:	00 a5 74 00 00 a5    	add    %ah,-0x5affff8c(%ebp)
    ef09:	74 00                	je     0xef0b
    ef0b:	00 a5 74 00 00 a5    	add    %ah,-0x5affff8c(%ebp)
    ef11:	74 00                	je     0xef13
    ef13:	00 fb                	add    %bh,%bl
    ef15:	77 00                	ja     0xef17
    ef17:	00 d0                	add    %dl,%al
    ef19:	78 00                	js     0xef1b
    ef1b:	00 a5 74 00 00 a5    	add    %ah,-0x5affff8c(%ebp)
    ef21:	74 00                	je     0xef23
    ef23:	00 12                	add    %dl,(%edx)
    ef25:	7a 00                	jp     0xef27
    ef27:	00 79 78             	add    %bh,0x78(%ecx)
    ef2a:	00 00                	add    %al,(%eax)
    ef2c:	42                   	inc    %edx
    ef2d:	7a 00                	jp     0xef2f
    ef2f:	00 a5 74 00 00 a5    	add    %ah,-0x5affff8c(%ebp)
    ef35:	74 00                	je     0xef37
    ef37:	00 a5 74 00 00 a5    	add    %ah,-0x5affff8c(%ebp)
    ef3d:	74 00                	je     0xef3f
    ef3f:	00 a5 74 00 00 a5    	add    %ah,-0x5affff8c(%ebp)
    ef45:	74 00                	je     0xef47
    ef47:	00 5a 7c             	add    %bl,0x7c(%edx)
    ef4a:	00 00                	add    %al,(%eax)
    ef4c:	a5                   	movsl  %ds:(%esi),%es:(%edi)
    ef4d:	74 00                	je     0xef4f
    ef4f:	00 a5 74 00 00 a5    	add    %ah,-0x5affff8c(%ebp)
    ef55:	74 00                	je     0xef57
    ef57:	00 a5 74 00 00 64    	add    %ah,0x64000074(%ebp)
    ef5d:	7c 00                	jl     0xef5f
    ef5f:	00 c3                	add    %al,%bl
    ef61:	7c 00                	jl     0xef63
    ef63:	00 a5 74 00 00 dc    	add    %ah,-0x23ffff8c(%ebp)
    ef69:	7c 00                	jl     0xef6b
	...
    ef7f:	00 05 00 00 00 11    	add    %al,0x11000000
    ef85:	00 00                	add    %al,(%eax)
    ef87:	00 d4                	add    %dl,%ah
    ef89:	03 00                	add    (%eax),%eax
    ef8b:	00 2c 01             	add    %ch,(%ecx,%eax,1)
    ef8e:	00 00                	add    %al,(%eax)
    ef90:	d4 03                	aam    $0x3
    ef92:	00 00                	add    %al,(%eax)
    ef94:	00 00                	add    %al,(%eax)
    ef96:	00 00                	add    %al,(%eax)
    ef98:	05 00 00 00 11       	add    $0x11000000,%eax
    ef9d:	00 00                	add    %al,(%eax)
    ef9f:	00 d4                	add    %dl,%ah
    efa1:	03 00                	add    (%eax),%eax
    efa3:	00 2c 01             	add    %ch,(%ecx,%eax,1)
    efa6:	00 00                	add    %al,(%eax)
    efa8:	d4 03                	aam    $0x3
	...
    efc2:	00 00                	add    %al,(%eax)
    efc4:	80 de 28             	sbb    $0x28,%dh
    efc7:	00 00                	add    %al,(%eax)
    efc9:	1a 4f 00             	sbb    0x0(%edi),%cl
    efcc:	80 f8 77             	cmp    $0x77,%al
    efcf:	00 80 85 9f 00 00    	add    %al,0x9f85(%eax)
    efd5:	64 c8 00 00 f1       	fs enter $0x0,$0xf1
    efda:	ef                   	out    %eax,(%dx)
    efdb:	00 80 cf 18 01 00    	add    %al,0x118cf(%eax)
    efe1:	ae                   	scas   %es:(%edi),%al
    efe2:	41                   	inc    %ecx
    efe3:	01 00                	add    %eax,(%eax)
    efe5:	3b 69 01             	cmp    0x1(%ecx),%ebp
    efe8:	80 19 92             	sbbb   $0x92,(%ecx)
    efeb:	01 80 a6 b9 01 00    	add    %eax,0x1b9a6(%eax)
	...
    f009:	00 00                	add    %al,(%eax)
    f00b:	00 20                	add    %ah,(%eax)
    f00d:	8e 00                	mov    (%eax),%es
	...
    f02f:	00 c7                	add    %al,%bh
    f031:	bb 00 00 ff bb       	mov    $0xbbff0000,%ebx
	...
    f03e:	00 00                	add    %al,(%eax)
    f040:	78 e6                	js     0xf028
    f042:	00 00                	add    %al,(%eax)
    f044:	85 e6                	test   %esp,%esi
    f046:	00 00                	add    %al,(%eax)
    f048:	92                   	xchg   %eax,%edx
    f049:	e6 00                	out    %al,$0x0
    f04b:	00 c1                	add    %al,%cl
    f04d:	e6 00                	out    %al,$0x0
    f04f:	00 c7                	add    %al,%bh
    f051:	e6 00                	out    %al,$0x0
	...
    f06f:	00 86 e7 00 00 86    	add    %al,-0x79ffff19(%esi)
    f075:	e7 00                	out    %eax,$0x0
	...
    f07f:	00 07                	add    %al,(%edi)
    f081:	e8 00 00 39 e8       	call   0xe839f086
    f086:	00 00                	add    %al,(%eax)
    f088:	39 e8                	cmp    %ebp,%eax
    f08a:	00 00                	add    %al,(%eax)
    f08c:	31 e8                	xor    %ebp,%eax
    f08e:	00 00                	add    %al,(%eax)
    f090:	55                   	push   %ebp
    f091:	e8 00 00 c5 e8       	call   0xe8c5f096
    f096:	00 00                	add    %al,(%eax)
    f098:	c5 e8 00             	(bad)  
    f09b:	00 bd e8 00 00 fd    	add    %bh,-0x2ffff18(%ebp)
    f0a1:	e7 00                	out    %eax,$0x0
    f0a3:	00 e6                	add    %ah,%dh
    f0a5:	e9 00 00 3c e9       	jmp    0xe93cf0aa
    f0aa:	00 00                	add    %al,(%eax)
    f0ac:	e6 e9                	out    %al,$0xe9
    f0ae:	00 00                	add    %al,(%eax)
    f0b0:	e6 e9                	out    %al,$0xe9
    f0b2:	00 00                	add    %al,(%eax)
    f0b4:	e6 e9                	out    %al,$0xe9
    f0b6:	00 00                	add    %al,(%eax)
    f0b8:	8c e9                	mov    %gs,%ecx
    f0ba:	00 00                	add    %al,(%eax)
    f0bc:	aa                   	stos   %al,%es:(%edi)
    f0bd:	e9 00 00 ba e9       	jmp    0xe9baf0c2
    f0c2:	00 00                	add    %al,(%eax)
    f0c4:	2f                   	das    
    f0c5:	62 69 6e             	bound  %ebp,0x6e(%ecx)
    f0c8:	2f                   	das    
    f0c9:	75 70                	jne    0xf13b
    f0cb:	64 61                	fs popa 
    f0cd:	74 65                	je     0xf134
    f0cf:	00 2f                	add    %ch,(%edi)
    f0d1:	64 65 76 2f          	fs gs jbe 0xf104
    f0d5:	74 74                	je     0xf14b
    f0d7:	79 30                	jns    0xf109
    f0d9:	00 20                	add    %ah,(%eax)
    f0db:	4f                   	dec    %edi
    f0dc:	6b 2e 0a             	imul   $0xa,(%esi),%ebp
    f0df:	0d 00 46 6f 72       	or     $0x726f4600,%eax
    f0e4:	6b 20 66             	imul   $0x66,(%eax),%esp
    f0e7:	61                   	popa   
    f0e8:	69 6c 65 64 20 69 6e 	imul   $0x206e6920,0x64(%ebp,%eiz,2),%ebp
    f0ef:	20 
    f0f0:	69 6e 69 74 0d 0a 00 	imul   $0xa0d74,0x69(%esi),%ebp
    f0f7:	2f                   	das    
    f0f8:	62 69 6e             	bound  %ebp,0x6e(%ecx)
    f0fb:	2f                   	das    
    f0fc:	73 68                	jae    0xf166
    f0fe:	00 63 68             	add    %ah,0x68(%ebx)
    f101:	69 6c 64 20 25 64 20 	imul   $0x64206425,0x20(%esp,%eiz,2),%ebp
    f108:	64 
    f109:	69 65 64 20 77 69 74 	imul   $0x74697720,0x64(%ebp),%esp
    f110:	68 20 63 6f 64       	push   $0x646f6320
    f115:	65 20 25 30 34 78 0a 	and    %ah,%gs:0xa783430
    f11c:	00 48 4f             	add    %cl,0x4f(%eax)
    f11f:	4d                   	dec    %ebp
    f120:	45                   	inc    %ebp
    f121:	3d 2f 75 73 72       	cmp    $0x7273752f,%eax
    f126:	2f                   	das    
    f127:	72 6f                	jb     0xf198
    f129:	6f                   	outsl  %ds:(%esi),(%dx)
    f12a:	74 00                	je     0xf12c
    f12c:	2d 00 74 61 73       	sub    $0x73617400,%eax
    f131:	6b 5b 30 5d          	imul   $0x5d,0x30(%ebx),%ebx
    f135:	20 74 72 79          	and    %dh,0x79(%edx,%esi,2)
    f139:	69 6e 67 20 74 6f 20 	imul   $0x206f7420,0x67(%esi),%ebp
    f140:	73 6c                	jae    0xf1ae
    f142:	65 65 70 00          	gs gs jo 0xf146
    f146:	25 73 3a 20 25       	and    $0x25203a73,%eax
    f14b:	30 34 78             	xor    %dh,(%eax,%edi,2)
    f14e:	0a 0d 00 66 73 3a    	or     0x3a736600,%cl
    f154:	20 25 30 34 78 0a    	and    %ah,0xa783430
    f15a:	00 62 61             	add    %ah,0x61(%edx)
    f15d:	73 65                	jae    0xf1c4
    f15f:	3a 20                	cmp    (%eax),%ah
    f161:	25 70 2c 20 6c       	and    $0x6c202c70,%eax
    f166:	69 6d 69 74 3a 20 25 	imul   $0x25203a74,0x69(%ebp),%ebp
    f16d:	70 0a                	jo     0xf179
    f16f:	00 53 74             	add    %dl,0x74(%ebx)
    f172:	61                   	popa   
    f173:	63 6b 3a             	arpl   %bp,0x3a(%ebx)
    f176:	20 00                	and    %al,(%eax)
    f178:	25 70 20 00 0a       	and    $0xa002070,%eax
    f17d:	00 50 69             	add    %dl,0x69(%eax)
    f180:	64 3a 20             	cmp    %fs:(%eax),%ah
    f183:	25 64 2c 20 70       	and    $0x70202c64,%eax
    f188:	72 6f                	jb     0xf1f9
    f18a:	63 65 73             	arpl   %sp,0x73(%ebp)
    f18d:	73 20                	jae    0xf1af
    f18f:	6e                   	outsb  %ds:(%esi),(%dx)
    f190:	72 3a                	jb     0xf1cc
    f192:	20 25 64 0a 0d 00    	and    %ah,0xd0a64
    f198:	25 30 32 78 20       	and    $0x20783230,%eax
    f19d:	00 0a                	add    %cl,(%edx)
    f19f:	0d 00 64 6f 75       	or     $0x756f6400,%eax
    f1a4:	62 6c 65 20          	bound  %ebp,0x20(%ebp,%eiz,2)
    f1a8:	66 61                	popaw  
    f1aa:	75 6c                	jne    0xf218
    f1ac:	74 00                	je     0xf1ae
    f1ae:	67 65 6e             	outsb  %gs:(%si),(%dx)
    f1b1:	65 72 61             	gs jb  0xf215
    f1b4:	6c                   	insb   (%dx),%es:(%edi)
    f1b5:	20 70 72             	and    %dh,0x72(%eax)
    f1b8:	6f                   	outsl  %ds:(%esi),(%dx)
    f1b9:	74 65                	je     0xf220
    f1bb:	63 74 69 6f          	arpl   %si,0x6f(%ecx,%ebp,2)
    f1bf:	6e                   	outsb  %ds:(%esi),(%dx)
    f1c0:	00 64 69 76          	add    %ah,0x76(%ecx,%ebp,2)
    f1c4:	69 64 65 20 65 72 72 	imul   $0x6f727265,0x20(%ebp,%eiz,2),%esp
    f1cb:	6f 
    f1cc:	72 00                	jb     0xf1ce
    f1ce:	6e                   	outsb  %ds:(%esi),(%dx)
    f1cf:	6d                   	insl   (%dx),%es:(%edi)
    f1d0:	69 00 64 65 62 75    	imul   $0x75626564,(%eax),%eax
    f1d6:	67 00 6f 76          	add    %ch,0x76(%bx)
    f1da:	65 72 66             	gs jb  0xf243
    f1dd:	6c                   	insb   (%dx),%es:(%edi)
    f1de:	6f                   	outsl  %ds:(%esi),(%dx)
    f1df:	77 00                	ja     0xf1e1
    f1e1:	62 6f 75             	bound  %ebp,0x75(%edi)
    f1e4:	6e                   	outsb  %ds:(%esi),(%dx)
    f1e5:	64 73 00             	fs jae 0xf1e8
    f1e8:	69 6e 76 61 6c 69 64 	imul   $0x64696c61,0x76(%esi),%ebp
    f1ef:	20 6f 70             	and    %ch,0x70(%edi)
    f1f2:	65 72 61             	gs jb  0xf256
    f1f5:	6e                   	outsb  %ds:(%esi),(%dx)
    f1f6:	64 00 64 65 76       	add    %ah,%fs:0x76(%ebp,%eiz,2)
    f1fb:	69 63 65 20 6e 6f 74 	imul   $0x746f6e20,0x65(%ebx),%esp
    f202:	20 61 76             	and    %ah,0x76(%ecx)
    f205:	61                   	popa   
    f206:	69 6c 61 62 6c 65 00 	imul   $0x6300656c,0x62(%ecx,%eiz,2),%ebp
    f20d:	63 
    f20e:	6f                   	outsl  %ds:(%esi),(%dx)
    f20f:	70 72                	jo     0xf283
    f211:	6f                   	outsl  %ds:(%esi),(%dx)
    f212:	63 65 73             	arpl   %sp,0x73(%ebp)
    f215:	73 6f                	jae    0xf286
    f217:	72 20                	jb     0xf239
    f219:	73 65                	jae    0xf280
    f21b:	67 6d                	insl   (%dx),%es:(%di)
    f21d:	65 6e                	outsb  %gs:(%esi),(%dx)
    f21f:	74 20                	je     0xf241
    f221:	6f                   	outsl  %ds:(%esi),(%dx)
    f222:	76 65                	jbe    0xf289
    f224:	72 72                	jb     0xf298
    f226:	75 6e                	jne    0xf296
    f228:	00 69 6e             	add    %ch,0x6e(%ecx)
    f22b:	76 61                	jbe    0xf28e
    f22d:	6c                   	insb   (%dx),%es:(%edi)
    f22e:	69 64 20 54 53 53 00 	imul   $0x73005353,0x54(%eax,%eiz,1),%esp
    f235:	73 
    f236:	65 67 6d             	gs insl (%dx),%es:(%di)
    f239:	65 6e                	outsb  %gs:(%esi),(%dx)
    f23b:	74 20                	je     0xf25d
    f23d:	6e                   	outsb  %ds:(%esi),(%dx)
    f23e:	6f                   	outsl  %ds:(%esi),(%dx)
    f23f:	74 20                	je     0xf261
    f241:	70 72                	jo     0xf2b5
    f243:	65 73 65             	gs jae 0xf2ab
    f246:	6e                   	outsb  %ds:(%esi),(%dx)
    f247:	74 00                	je     0xf249
    f249:	73 74                	jae    0xf2bf
    f24b:	61                   	popa   
    f24c:	63 6b 20             	arpl   %bp,0x20(%ebx)
    f24f:	73 65                	jae    0xf2b6
    f251:	67 6d                	insl   (%dx),%es:(%di)
    f253:	65 6e                	outsb  %gs:(%esi),(%dx)
    f255:	74 00                	je     0xf257
    f257:	63 6f 70             	arpl   %bp,0x70(%edi)
    f25a:	72 6f                	jb     0xf2cb
    f25c:	63 65 73             	arpl   %sp,0x73(%ebp)
    f25f:	73 6f                	jae    0xf2d0
    f261:	72 20                	jb     0xf283
    f263:	65 72 72             	gs jb  0xf2d8
    f266:	6f                   	outsl  %ds:(%esi),(%dx)
    f267:	72 00                	jb     0xf269
    f269:	72 65                	jb     0xf2d0
    f26b:	73 65                	jae    0xf2d2
    f26d:	72 76                	jb     0xf2e5
    f26f:	65 64 20 28          	gs and %ch,%fs:(%eax)
    f273:	31 35 2c 31 37 2d    	xor    %esi,0x2d37312c
    f279:	33 31                	xor    (%ecx),%esi
    f27b:	29 20                	sub    %esp,(%eax)
    f27d:	65 72 72             	gs jb  0xf2f2
    f280:	6f                   	outsl  %ds:(%esi),(%dx)
    f281:	72 00                	jb     0xf283
    f283:	57                   	push   %edi
    f284:	65 20 64 6f 6e       	and    %ah,%gs:0x6e(%edi,%ebp,2)
    f289:	27                   	daa    
    f28a:	74 20                	je     0xf2ac
    f28c:	73 75                	jae    0xf303
    f28e:	70 70                	jo     0xf300
    f290:	6f                   	outsl  %ds:(%esi),(%dx)
    f291:	72 74                	jb     0xf307
    f293:	20 73 65             	and    %dh,0x65(%ebx)
    f296:	70 61                	jo     0xf2f9
    f298:	72 61                	jb     0xf2fb
    f29a:	74 65                	je     0xf301
    f29c:	20 49 26             	and    %cl,0x26(%ecx)
    f29f:	44                   	inc    %esp
    f2a0:	00 42 61             	add    %al,0x61(%edx)
    f2a3:	64 20 64 61 74       	and    %ah,%fs:0x74(%ecx,%eiz,2)
    f2a8:	61                   	popa   
    f2a9:	5f                   	pop    %edi
    f2aa:	6c                   	insb   (%dx),%es:(%edi)
    f2ab:	69 6d 69 74 00 4b 65 	imul   $0x654b0074,0x69(%ebp),%ebp
    f2b2:	72 6e                	jb     0xf322
    f2b4:	65 6c                	gs insb (%dx),%es:(%edi)
    f2b6:	20 70 61             	and    %dh,0x61(%eax)
    f2b9:	6e                   	outsb  %ds:(%esi),(%dx)
    f2ba:	69 63 3a 20 25 73 0a 	imul   $0xa732520,0x3a(%ebx),%esp
    f2c1:	0d 00 1b 5b 3f       	or     $0x3f5b1b00,%eax
    f2c6:	31 3b                	xor    %edi,(%ebx)
    f2c8:	32 63 00             	xor    0x0(%ebx),%ah
    f2cb:	54                   	push   %esp
    f2cc:	72 79                	jb     0xf347
    f2ce:	69 6e 67 20 74 6f 20 	imul   $0x206f7420,0x67(%esi),%ebp
    f2d5:	77 72                	ja     0xf349
    f2d7:	69 74 65 20 62 61 64 	imul   $0x20646162,0x20(%ebp,%eiz,2),%esi
    f2de:	20 
    f2df:	73 65                	jae    0xf346
    f2e1:	63 74 6f 72          	arpl   %si,0x72(%edi,%ebp,2)
    f2e5:	00 48 44             	add    %cl,0x44(%eax)
    f2e8:	20 63 6f             	and    %ah,0x6f(%ebx)
    f2eb:	6e                   	outsb  %ds:(%esi),(%dx)
    f2ec:	74 72                	je     0xf360
    f2ee:	6f                   	outsl  %ds:(%esi),(%dx)
    f2ef:	6c                   	insb   (%dx),%es:(%edi)
    f2f0:	6c                   	insb   (%dx),%es:(%edi)
    f2f1:	65 72 20             	gs jb  0xf314
    f2f4:	6e                   	outsb  %ds:(%esi),(%dx)
    f2f5:	6f                   	outsl  %ds:(%esi),(%dx)
    f2f6:	74 20                	je     0xf318
    f2f8:	72 65                	jb     0xf35f
    f2fa:	61                   	popa   
    f2fb:	64 79 00             	fs jns 0xf2fe
    f2fe:	48                   	dec    %eax
    f2ff:	44                   	inc    %esp
    f300:	2d 63 6f 6e 74       	sub    $0x746e6f63,%eax
    f305:	72 6f                	jb     0xf376
    f307:	6c                   	insb   (%dx),%es:(%edi)
    f308:	6c                   	insb   (%dx),%es:(%edi)
    f309:	65 72 20             	gs jb  0xf32c
    f30c:	73 74                	jae    0xf382
    f30e:	69 6c 6c 20 62 75 73 	imul   $0x79737562,0x20(%esp,%ebp,2),%ebp
    f315:	79 
    f316:	0a 0d 00 75 6e 6b    	or     0x6b6e7500,%cl
    f31c:	6e                   	outsb  %ds:(%esi),(%dx)
    f31d:	6f                   	outsl  %ds:(%esi),(%dx)
    f31e:	77 6e                	ja     0xf38e
    f320:	20 68 64             	and    %ch,0x64(%eax)
    f323:	2d 63 6f 6d 6d       	sub    $0x6d6d6f63,%eax
    f328:	61                   	popa   
    f329:	6e                   	outsb  %ds:(%esi),(%dx)
    f32a:	64 00 42 61          	add    %al,%fs:0x61(%edx)
    f32e:	64 20 68 64          	and    %ch,%fs:0x64(%eax)
    f332:	20 63 6f             	and    %ah,0x6f(%ebx)
    f335:	6d                   	insl   (%dx),%es:(%edi)
    f336:	6d                   	insl   (%dx),%es:(%edi)
    f337:	61                   	popa   
    f338:	6e                   	outsb  %ds:(%esi),(%dx)
    f339:	64 2c 20             	fs sub $0x20,%al
    f33c:	6d                   	insl   (%dx),%es:(%edi)
    f33d:	75 73                	jne    0xf3b2
    f33f:	74 20                	je     0xf361
    f341:	62 65 20             	bound  %esp,0x20(%ebp)
    f344:	52                   	push   %edx
    f345:	2f                   	das    
    f346:	57                   	push   %edi
    f347:	00 68 64             	add    %ch,0x64(%eax)
    f34a:	2e 63 3a             	arpl   %di,%cs:(%edx)
    f34d:	20 62 75             	and    %ah,0x75(%edx)
    f350:	66 66 65 72 20       	data16 data16 gs jb 0xf375
    f355:	6d                   	insl   (%dx),%es:(%edi)
    f356:	75 6c                	jne    0xf3c4
    f358:	74 69                	je     0xf3c3
    f35a:	70 6c                	jo     0xf3c8
    f35c:	79 20                	jns    0xf37e
    f35e:	6c                   	insb   (%dx),%es:(%edi)
    f35f:	6f                   	outsl  %ds:(%esi),(%dx)
    f360:	63 6b 65             	arpl   %bp,0x65(%ebx)
    f363:	64 0a 00             	or     %fs:(%eax),%al
    f366:	00 73 00             	add    %dh,0x0(%ebx)
    f369:	50                   	push   %eax
    f36a:	61                   	popa   
    f36b:	72 74                	jb     0xf3e1
    f36d:	69 74 69 6f 6e 20 74 	imul   $0x6174206e,0x6f(%ecx,%ebp,2),%esi
    f374:	61 
    f375:	62 6c 65 25          	bound  %ebp,0x25(%ebp,%eiz,2)
    f379:	73 20                	jae    0xf39b
    f37b:	6f                   	outsl  %ds:(%esi),(%dx)
    f37c:	6b 2e 0a             	imul   $0xa,(%esi),%ebp
    f37f:	0d 00 55 6e 65       	or     $0x656e5500,%eax
    f384:	78 70                	js     0xf3f6
    f386:	65 63 74 65 64       	arpl   %si,%gs:0x64(%ebp,%eiz,2)
    f38b:	20 48 44             	and    %cl,0x44(%eax)
    f38e:	20 69 6e             	and    %ch,0x6e(%ecx)
    f391:	74 65                	je     0xf3f8
    f393:	72 72                	jb     0xf407
    f395:	75 70                	jne    0xf407
    f397:	74 0a                	je     0xf3a3
    f399:	0d 00 74 72 79       	or     $0x79727400,%eax
    f39e:	69 6e 67 20 74 6f 20 	imul   $0x206f7420,0x67(%esi),%ebp
    f3a5:	66 72 65             	data16 jb 0xf40d
    f3a8:	65 20 66 72          	and    %ah,%gs:0x72(%esi)
    f3ac:	65 65 20 70 61       	gs and %dh,%gs:0x61(%eax)
    f3b1:	67 65 00 54 72       	add    %dl,%gs:0x72(%si)
    f3b6:	79 69                	jns    0xf421
    f3b8:	6e                   	outsb  %ds:(%esi),(%dx)
    f3b9:	67 20 74 6f          	and    %dh,0x6f(%si)
    f3bd:	20 70 75             	and    %dh,0x75(%eax)
    f3c0:	74 20                	je     0xf3e2
    f3c2:	70 61                	jo     0xf425
    f3c4:	67 65 20 25          	and    %ah,%gs:(%di)
    f3c8:	70 20                	jo     0xf3ea
    f3ca:	61                   	popa   
    f3cb:	74 20                	je     0xf3ed
    f3cd:	25 70 0a 00 25       	and    $0x25000a70,%eax
    f3d2:	64 20 70 61          	and    %dh,%fs:0x61(%eax)
    f3d6:	67 65 73 20          	addr16 gs jae 0xf3fa
    f3da:	66 72 65             	data16 jb 0xf442
    f3dd:	65 20 28             	and    %ch,%gs:(%eax)
    f3e0:	6f                   	outsl  %ds:(%esi),(%dx)
    f3e1:	66 20 25 64 29 0a 0d 	data16 and %ah,0xd0a2964
    f3e8:	00 50 67             	add    %dl,0x67(%eax)
    f3eb:	2d 64 69 72 5b       	sub    $0x5b726964,%eax
    f3f0:	25 64 5d 20 75       	and    $0x75205d64,%eax
    f3f5:	73 65                	jae    0xf45c
    f3f7:	73 20                	jae    0xf419
    f3f9:	25 64 20 70 61       	and    $0x61702064,%eax
    f3fe:	67 65 73 0a          	addr16 gs jae 0xf40c
    f402:	00 43 6c             	add    %al,0x6c(%ebx)
    f405:	6f                   	outsl  %ds:(%esi),(%dx)
    f406:	73 65                	jae    0xf46d
    f408:	3a 20                	cmp    (%eax),%ah
    f40a:	66 69 6c 65 20 63 6f 	imul   $0x6f63,0x20(%ebp,%eiz,2),%bp
    f411:	75 6e                	jne    0xf481
    f413:	74 20                	je     0xf435
    f415:	69 73 20 30 00 28 52 	imul   $0x52280030,0x20(%ebx),%esi
    f41c:	65 61                	gs popa 
    f41e:	64 29 69 6e          	sub    %ebp,%fs:0x6e(%ecx)
    f422:	6f                   	outsl  %ds:(%esi),(%dx)
    f423:	64 65 2d 3e 69 5f 6d 	fs gs sub $0x6d5f693e,%eax
    f42a:	6f                   	outsl  %ds:(%esi),(%dx)
    f42b:	64 65 3d 25 30 36 6f 	fs gs cmp $0x6f363025,%eax
    f432:	0a 0d 00 28 57 72    	or     0x72572800,%cl
    f438:	69 74 65 29 69 6e 6f 	imul   $0x646f6e69,0x29(%ebp,%eiz,2),%esi
    f43f:	64 
    f440:	65 2d 3e 69 5f 6d    	gs sub $0x6d5f693e,%eax
    f446:	6f                   	outsl  %ds:(%esi),(%dx)
    f447:	64 65 3d 25 30 36 6f 	fs gs cmp $0x6f363025,%eax
    f44e:	0a 0d 00 75 6e 61    	or     0x616e7500,%cl
    f454:	62 6c 65 20          	bound  %ebp,0x20(%ebp,%eiz,2)
    f458:	74 6f                	je     0xf4c9
    f45a:	20 72 65             	and    %dh,0x65(%edx)
    f45d:	61                   	popa   
    f45e:	64 20 69 2d          	and    %ch,%fs:0x2d(%ecx)
    f462:	6e                   	outsb  %ds:(%esi),(%dx)
    f463:	6f                   	outsl  %ds:(%esi),(%dx)
    f464:	64 65 20 62 6c       	fs and %ah,%gs:0x6c(%edx)
    f469:	6f                   	outsl  %ds:(%esi),(%dx)
    f46a:	63 6b 00             	arpl   %bp,0x0(%ebx)
    f46d:	5f                   	pop    %edi
    f46e:	62 6d 61             	bound  %ebp,0x61(%ebp)
    f471:	70 3a                	jo     0xf4ad
    f473:	20 62 6c             	and    %ah,0x6c(%edx)
    f476:	6f                   	outsl  %ds:(%esi),(%dx)
    f477:	63 6b 3c             	arpl   %bp,0x3c(%ebx)
    f47a:	30 00                	xor    %al,(%eax)
    f47c:	5f                   	pop    %edi
    f47d:	62 6d 61             	bound  %ebp,0x61(%ebp)
    f480:	70 3a                	jo     0xf4bc
    f482:	20 62 6c             	and    %ah,0x6c(%edx)
    f485:	6f                   	outsl  %ds:(%esi),(%dx)
    f486:	63 6b 3e             	arpl   %bp,0x3e(%ebx)
    f489:	62 69 67             	bound  %ebp,0x67(%ecx)
    f48c:	00 25 30 34 78 3a    	add    %ah,0x3a783430
    f492:	20 25 36 64 09 00    	and    %ah,0x96436
    f498:	4e                   	dec    %esi
    f499:	6f                   	outsl  %ds:(%esi),(%dx)
    f49a:	20 66 72             	and    %ah,0x72(%esi)
    f49d:	65 65 20 69 6e       	gs and %ch,%gs:0x6e(%ecx)
    f4a2:	6f                   	outsl  %ds:(%esi),(%dx)
    f4a3:	64 65 73 20          	fs gs jae 0xf4c7
    f4a7:	69 6e 20 6d 65 6d 00 	imul   $0x6d656d,0x20(%esi),%ebp
    f4ae:	69 67 65 74 20 77 69 	imul   $0x69772074,0x65(%edi),%esp
    f4b5:	74 68                	je     0xf51f
    f4b7:	20 64 65 76          	and    %ah,0x76(%ebp,%eiz,2)
    f4bb:	3d 3d 30 00 54       	cmp    $0x5400303d,%eax
    f4c0:	72 79                	jb     0xf53b
    f4c2:	69 6e 67 20 74 6f 20 	imul   $0x206f7420,0x67(%esi),%ebp
    f4c9:	66 72 65             	data16 jb 0xf531
    f4cc:	65 20 66 72          	and    %ah,%gs:0x72(%esi)
    f4d0:	65 65 20 62 75       	gs and %ah,%gs:0x75(%edx)
    f4d5:	66 66 65 72 00       	data16 data16 gs jb 0xf4da
    f4da:	53                   	push   %ebx
    f4db:	6c                   	insb   (%dx),%es:(%edi)
    f4dc:	65 65 70 69          	gs gs jo 0xf549
    f4e0:	6e                   	outsb  %ds:(%esi),(%dx)
    f4e1:	67 20 6f 6e          	and    %ch,0x6e(%bx)
    f4e5:	20 66 72             	and    %ah,0x72(%esi)
    f4e8:	65 65 20 62 75       	gs and %ah,%gs:0x75(%edx)
    f4ed:	66 66 65 72 20       	data16 data16 gs jb 0xf512
    f4f2:	2e 2e 00 6f 6b       	cs add %ch,%cs:0x6b(%edi)
    f4f7:	0a 00                	or     (%eax),%al
    f4f9:	46                   	inc    %esi
    f4fa:	72 65                	jb     0xf561
    f4fc:	65 20 62 6c          	and    %ah,%gs:0x6c(%edx)
    f500:	6f                   	outsl  %ds:(%esi),(%dx)
    f501:	63 6b 20             	arpl   %bp,0x20(%ebx)
    f504:	6c                   	insb   (%dx),%es:(%edi)
    f505:	69 73 74 20 63 6f 72 	imul   $0x726f6320,0x74(%ebx),%esi
    f50c:	72 75                	jb     0xf583
    f50e:	70 74                	jo     0xf584
    f510:	65 64 00 62 72       	gs add %ah,%fs:0x72(%edx)
    f515:	65 61                	gs popa 
    f517:	64 3a 20             	cmp    %fs:(%eax),%ah
    f51a:	67 65 74 62          	addr16 gs je 0xf580
    f51e:	6c                   	insb   (%dx),%es:(%edi)
    f51f:	6b 20 72             	imul   $0x72,(%eax),%esp
    f522:	65 74 75             	gs je  0xf59a
    f525:	72 6e                	jb     0xf595
    f527:	65 64 20 4e 55       	gs and %cl,%fs:0x55(%esi)
    f52c:	4c                   	dec    %esp
    f52d:	4c                   	dec    %esp
    f52e:	0a 00                	or     (%eax),%al
    f530:	55                   	push   %ebp
    f531:	6e                   	outsb  %ds:(%esi),(%dx)
    f532:	61                   	popa   
    f533:	62 6c 65 20          	bound  %ebp,0x20(%ebp,%eiz,2)
    f537:	74 6f                	je     0xf5a8
    f539:	20 6d 6f             	and    %ch,0x6f(%ebp)
    f53c:	75 6e                	jne    0xf5ac
    f53e:	74 20                	je     0xf560
    f540:	72 6f                	jb     0xf5b1
    f542:	6f                   	outsl  %ds:(%esi),(%dx)
    f543:	74 00                	je     0xf545
    f545:	55                   	push   %ebp
    f546:	6e                   	outsb  %ds:(%esi),(%dx)
    f547:	61                   	popa   
    f548:	62 6c 65 20          	bound  %ebp,0x20(%ebp,%eiz,2)
    f54c:	74 6f                	je     0xf5bd
    f54e:	20 72 65             	and    %dh,0x65(%edx)
    f551:	61                   	popa   
    f552:	64 20 72 6f          	and    %dh,%fs:0x6f(%edx)
    f556:	6f                   	outsl  %ds:(%esi),(%dx)
    f557:	74 20                	je     0xf579
    f559:	69 2d 6e 6f 64 65 00 	imul   $0x2f642500,0x65646f6e,%ebp
    f560:	25 64 2f 
    f563:	25 64 20 66 72       	and    $0x72662064,%eax
    f568:	65 65 20 62 6c       	gs and %ah,%gs:0x6c(%edx)
    f56d:	6f                   	outsl  %ds:(%esi),(%dx)
    f56e:	63 6b 73             	arpl   %bp,0x73(%ebx)
    f571:	0a 0d 00 25 64 2f    	or     0x2f642500,%cl
    f577:	25 64 20 66 72       	and    $0x72662064,%eax
    f57c:	65 65 20 69 6e       	gs and %ch,%gs:0x6e(%ecx)
    f581:	6f                   	outsl  %ds:(%esi),(%dx)
    f582:	64 65 73 0a          	fs gs jae 0xf590
    f586:	0d 00 72 77 5f       	or     $0x5f777200,%eax
    f58b:	63 68 61             	arpl   %bp,0x61(%eax)
    f58e:	72 3a                	jb     0xf5ca
    f590:	20 64 65 76          	and    %ah,0x76(%ebp,%eiz,2)
    f594:	3e 4e                	ds dec %esi
    f596:	52                   	push   %edx
    f597:	44                   	inc    %esp
    f598:	45                   	inc    %ebp
    f599:	56                   	push   %esi
    f59a:	00 64 65 76          	add    %ah,0x76(%ebp,%eiz,2)
    f59e:	3a 20                	cmp    (%eax),%ah
    f5a0:	25 30 34 78 0a       	and    $0xa783430,%eax
    f5a5:	00 61 72             	add    %ah,0x72(%ecx)
    f5a8:	67 63 20             	arpl   %sp,(%bx,%si)
    f5ab:	69 73 20 77 72 6f 6e 	imul   $0x6e6f7277,0x20(%ebx),%esi
    f5b2:	67 00 6e 6f          	add    %ch,0x6f(%bp)
    f5b6:	6e                   	outsb  %ds:(%esi),(%dx)
    f5b7:	65 78 69             	gs js  0xf623
    f5ba:	73 74                	jae    0xf630
    f5bc:	65 6e                	outsb  %gs:(%esi),(%dx)
    f5be:	74 20                	je     0xf5e0
    f5c0:	70 61                	jo     0xf623
    f5c2:	67 65 20 69 6e       	and    %ch,%gs:0x6e(%bx,%di)
    f5c7:	20 65 78             	and    %ah,0x78(%ebp)
    f5ca:	65 63 2e             	arpl   %bp,%gs:(%esi)
    f5cd:	63 00                	arpl   %ax,(%eax)
    f5cf:	73 69                	jae    0xf63a
    f5d1:	7a 65                	jp     0xf638
    f5d3:	3c 3d                	cmp    $0x3d,%al
    f5d5:	30 20                	xor    %ah,(%eax)
    f5d7:	69 6e 20 72 65 61 64 	imul   $0x64616572,0x20(%esi),%ebp
    f5de:	5f                   	pop    %edi
    f5df:	69 6e 64 00 49 6d 70 	imul   $0x706d4900,0x64(%esi),%ebp
    f5e6:	6f                   	outsl  %ds:(%esi),(%dx)
    f5e7:	73 73                	jae    0xf65c
    f5e9:	69 62 6c 79 20 6c 6f 	imul   $0x6f6c2079,0x6c(%edx),%esp
    f5f0:	6e                   	outsb  %ds:(%esi),(%dx)
    f5f1:	67 20 65 78          	and    %ah,0x78(%di)
    f5f5:	65 63 75 74          	arpl   %si,%gs:0x74(%ebp)
    f5f9:	61                   	popa   
    f5fa:	62 6c 65 00          	bound  %ebp,0x0(%ebp,%eiz,2)
    f5fe:	4e                   	dec    %esi
    f5ff:	6f                   	outsl  %ds:(%esi),(%dx)
    f600:	20 72 6f             	and    %dh,0x6f(%edx)
    f603:	6f                   	outsl  %ds:(%esi),(%dx)
    f604:	74 20                	je     0xf626
    f606:	69 6e 6f 64 65 00 4e 	imul   $0x4e006564,0x6f(%esi),%ebp
    f60d:	6f                   	outsl  %ds:(%esi),(%dx)
    f60e:	20 63 77             	and    %ah,0x77(%ebx)
    f611:	64 20 69 6e          	and    %ch,%fs:0x6e(%ecx)
    f615:	6f                   	outsl  %ds:(%esi),(%dx)
    f616:	64 65 00 04 02       	fs add %al,%gs:(%edx,%eax,1)
    f61b:	06                   	push   %es
    f61c:	ff 00                	incl   (%eax)
    f61e:	2e 00 2e             	add    %ch,%cs:(%esi)
    f621:	2e 00 62 6c          	add    %ah,%cs:0x6c(%edx)
    f625:	6f                   	outsl  %ds:(%esi),(%dx)
    f626:	63 6b 20             	arpl   %bp,0x20(%ebx)
    f629:	28 25 30 34 78 3a    	sub    %ah,0x3a783430
    f62f:	25 64 29 20 00       	and    $0x202964,%eax
    f634:	6e                   	outsb  %ds:(%esi),(%dx)
    f635:	65 77 5f             	gs ja  0xf697
    f638:	62 6c 6f 63          	bound  %ebp,0x63(%edi,%ebp,2)
    f63c:	6b 3a 20             	imul   $0x20,(%edx),%edi
    f63f:	62 69 74             	bound  %ebp,0x74(%ecx)
    f642:	20 61 6c             	and    %ah,0x6c(%ecx)
    f645:	72 65                	jb     0xf6ac
    f647:	61                   	popa   
    f648:	64 79 20             	fs jns 0xf66b
    f64b:	73 65                	jae    0xf6b2
    f64d:	74 00                	je     0xf64f
    f64f:	6e                   	outsb  %ds:(%esi),(%dx)
    f650:	65 77 5f             	gs ja  0xf6b2
    f653:	62 6c 6f 63          	bound  %ebp,0x63(%edi,%ebp,2)
    f657:	6b 3a 20             	imul   $0x20,(%edx),%edi
    f65a:	63 61 6e             	arpl   %sp,0x6e(%ecx)
    f65d:	6e                   	outsb  %ds:(%esi),(%dx)
    f65e:	6f                   	outsl  %ds:(%esi),(%dx)
    f65f:	74 20                	je     0xf681
    f661:	67 65 74 20          	addr16 gs je 0xf685
    f665:	62 6c 6f 63          	bound  %ebp,0x63(%edi,%ebp,2)
    f669:	6b 00 6e             	imul   $0x6e,(%eax),%eax
    f66c:	65 77 20             	gs ja  0xf68f
    f66f:	62 6c 6f 63          	bound  %ebp,0x63(%edi,%ebp,2)
    f673:	6b 3a 20             	imul   $0x20,(%edx),%edi
    f676:	63 6f 75             	arpl   %bp,0x75(%edi)
    f679:	6e                   	outsb  %ds:(%esi),(%dx)
    f67a:	74 20                	je     0xf69c
    f67c:	69 73 20 21 3d 20 31 	imul   $0x31203d21,0x20(%ebx),%esi
    f683:	00 66 72             	add    %ah,0x72(%esi)
    f686:	65 65 5f             	gs gs pop %edi
    f689:	69 6e 6f 64 65 00 6e 	imul   $0x6e006564,0x6f(%esi),%ebp
    f690:	65 77 5f             	gs ja  0xf6f2
    f693:	69 6e 6f 64 65 20 77 	imul   $0x77206564,0x6f(%esi),%ebp
    f69a:	69 74 68 20 75 6e 6b 	imul   $0x6e6b6e75,0x20(%eax,%ebp,2),%esi
    f6a1:	6e 
    f6a2:	6f                   	outsl  %ds:(%esi),(%dx)
    f6a3:	77 6e                	ja     0xf713
    f6a5:	20 64 65 76          	and    %ah,0x76(%ebp,%eiz,2)
    f6a9:	69 63 65 00 6e 65 77 	imul   $0x77656e00,0x65(%ebx),%esp
    f6b0:	5f                   	pop    %edi
    f6b1:	69 6e 6f 64 65 3a 20 	imul   $0x203a6564,0x6f(%esi),%ebp
    f6b8:	62 69 74             	bound  %ebp,0x74(%ecx)
    f6bb:	20 61 6c             	and    %ah,0x6c(%ecx)
    f6be:	72 65                	jb     0xf725
    f6c0:	61                   	popa   
    f6c1:	64 79 20             	fs jns 0xf6e4
    f6c4:	73 65                	jae    0xf72b
    f6c6:	74 00                	je     0xf6c8
    f6c8:	75 6e                	jne    0xf738
    f6ca:	6b 6e 6f 77          	imul   $0x77,0x6f(%esi),%ebp
    f6ce:	6e                   	outsb  %ds:(%esi),(%dx)
    f6cf:	20 64 65 76          	and    %ah,0x76(%ebp,%eiz,2)
    f6d3:	69 63 65 20 66 6f 72 	imul   $0x726f6620,0x65(%ebx),%esp
    f6da:	20 69 6f             	and    %ch,0x6f(%ecx)
    f6dd:	63 74 6c 00          	arpl   %si,0x0(%esp,%ebp,2)
    f6e1:	74 74                	je     0xf757
    f6e3:	79 5f                	jns    0xf744
    f6e5:	69 6f 63 74 6c 3a 20 	imul   $0x203a6c74,0x63(%edi),%ebp
    f6ec:	64 65 76 3c          	fs gs jbe 0xf72c
    f6f0:	30 00                	xor    %al,(%eax)
    f6f2:	00 00                	add    %al,(%eax)
    f6f4:	25 64 20 62 75       	and    $0x75622064,%eax
    f6f9:	66 66 65 72 73       	data16 data16 gs jb 0xf771
    f6fe:	20 3d 20 25 64 20    	and    %bh,0x20642520
    f704:	62 79 74             	bound  %edi,0x74(%ecx)
    f707:	65 73 20             	gs jae 0xf72a
    f70a:	62 75 66             	bound  %esi,0x66(%ebp)
    f70d:	66 65 72 20          	data16 gs jb 0xf731
    f711:	73 70                	jae    0xf783
    f713:	61                   	popa   
    f714:	63 65 0a             	arpl   %sp,0xa(%ebp)
    f717:	0d 00 00 00 00       	or     $0x0,%eax
    f71c:	45                   	inc    %ebp
    f71d:	49                   	dec    %ecx
    f71e:	50                   	push   %eax
    f71f:	3a 09                	cmp    (%ecx),%cl
    f721:	25 30 34 78 3a       	and    $0x3a783430,%eax
    f726:	25 70 0a 45 46       	and    $0x46450a70,%eax
    f72b:	4c                   	dec    %esp
    f72c:	41                   	inc    %ecx
    f72d:	47                   	inc    %edi
    f72e:	53                   	push   %ebx
    f72f:	3a 09                	cmp    (%ecx),%cl
    f731:	25 70 0a 45 53       	and    $0x53450a70,%eax
    f736:	50                   	push   %eax
    f737:	3a 09                	cmp    (%ecx),%cl
    f739:	25 30 34 78 3a       	and    $0x3a783430,%eax
    f73e:	25 70 0a 00 00       	and    $0xa70,%eax
    f743:	00 65 61             	add    %ah,0x61(%ebp)
    f746:	78 09                	js     0xf751
    f748:	09 65 62             	or     %esp,0x62(%ebp)
    f74b:	78 09                	js     0xf756
    f74d:	09 65 63             	or     %esp,0x63(%ebp)
    f750:	78 09                	js     0xf75b
    f752:	09 65 64             	or     %esp,0x64(%ebp)
    f755:	78 0a                	js     0xf761
    f757:	0d 25 38 78 09       	or     $0x9783825,%eax
    f75c:	25 38 78 09 25       	and    $0x25097838,%eax
    f761:	38 78 09             	cmp    %bh,0x9(%eax)
    f764:	25 38 78 0a 0d       	and    $0xd0a7838,%eax
    f769:	00 00                	add    %al,(%eax)
    f76b:	00 65 73             	add    %ah,0x73(%ebp)
    f76e:	69 09 09 65 64 69    	imul   $0x69646509,(%ecx),%ecx
    f774:	09 09                	or     %ecx,(%ecx)
    f776:	65 62 70 09          	bound  %esi,%gs:0x9(%eax)
    f77a:	09 65 73             	or     %esp,0x73(%ebp)
    f77d:	70 0a                	jo     0xf789
    f77f:	0d 25 38 78 09       	or     $0x9783825,%eax
    f784:	25 38 78 09 25       	and    $0x25097838,%eax
    f789:	38 78 09             	cmp    %bh,0x9(%eax)
    f78c:	25 38 78 0a 0d       	and    $0xd0a7838,%eax
    f791:	00 00                	add    %al,(%eax)
    f793:	00 0a                	add    %cl,(%edx)
    f795:	0d 64 73 09 65       	or     $0x65097364,%eax
    f79a:	73 09                	jae    0xf7a5
    f79c:	66 73 09             	data16 jae 0xf7a8
    f79f:	74 72                	je     0xf813
    f7a1:	0a 0d 25 34 78 09    	or     0x9783425,%cl
    f7a7:	25 34 78 09 25       	and    $0x25097834,%eax
    f7ac:	34 78                	xor    $0x78,%al
    f7ae:	09 25 34 78 0a 0d    	or     %esp,0xd0a7834
    f7b4:	00 00                	add    %al,(%eax)
    f7b6:	00 00                	add    %al,(%eax)
    f7b8:	45                   	inc    %ebp
    f7b9:	49                   	dec    %ecx
    f7ba:	50                   	push   %eax
    f7bb:	3a 20                	cmp    (%eax),%ah
    f7bd:	25 38 78 20 20       	and    $0x20207838,%eax
    f7c2:	20 43 53             	and    %al,0x53(%ebx)
    f7c5:	3a 20                	cmp    (%eax),%ah
    f7c7:	25 34 78 20 20       	and    $0x20207834,%eax
    f7cc:	45                   	inc    %ebp
    f7cd:	46                   	inc    %esi
    f7ce:	4c                   	dec    %esp
    f7cf:	41                   	inc    %ecx
    f7d0:	47                   	inc    %edi
    f7d1:	53                   	push   %ebx
    f7d2:	3a 20                	cmp    (%eax),%ah
    f7d4:	25 38 78 0a 0d       	and    $0xd0a7838,%eax
    f7d9:	00 00                	add    %al,(%eax)
    f7db:	00 73 74             	add    %dh,0x74(%ebx)
    f7de:	61                   	popa   
    f7df:	63 6b 2d             	arpl   %bp,0x2d(%ebx)
    f7e2:	70 72                	jo     0xf856
    f7e4:	6f                   	outsl  %ds:(%esi),(%dx)
    f7e5:	74 65                	je     0xf84c
    f7e7:	63 74 6f 72          	arpl   %si,0x72(%edi,%ebp,2)
    f7eb:	3a 20                	cmp    (%eax),%ah
    f7ed:	4b                   	dec    %ebx
    f7ee:	65 72 6e             	gs jb  0xf85f
    f7f1:	65 6c                	gs insb (%dx),%es:(%edi)
    f7f3:	20 73 74             	and    %dh,0x74(%ebx)
    f7f6:	61                   	popa   
    f7f7:	63 6b 20             	arpl   %bp,0x20(%ebx)
    f7fa:	69 73 20 63 6f 72 72 	imul   $0x72726f63,0x20(%ebx),%esi
    f801:	75 70                	jne    0xf873
    f803:	74 65                	je     0xf86a
    f805:	64 00 00             	add    %al,%fs:(%eax)
    f808:	30 31                	xor    %dh,(%ecx)
    f80a:	32 33                	xor    (%ebx),%dh
    f80c:	34 35                	xor    $0x35,%al
    f80e:	36 37                	ss aaa 
    f810:	38 39                	cmp    %bh,(%ecx)
    f812:	41                   	inc    %ecx
    f813:	42                   	inc    %edx
    f814:	43                   	inc    %ebx
    f815:	44                   	inc    %esp
    f816:	45                   	inc    %ebp
    f817:	46                   	inc    %esi
    f818:	47                   	inc    %edi
    f819:	48                   	dec    %eax
    f81a:	49                   	dec    %ecx
    f81b:	4a                   	dec    %edx
    f81c:	4b                   	dec    %ebx
    f81d:	4c                   	dec    %esp
    f81e:	4d                   	dec    %ebp
    f81f:	4e                   	dec    %esi
    f820:	4f                   	dec    %edi
    f821:	50                   	push   %eax
    f822:	51                   	push   %ecx
    f823:	52                   	push   %edx
    f824:	53                   	push   %ebx
    f825:	54                   	push   %esp
    f826:	55                   	push   %ebp
    f827:	56                   	push   %esi
    f828:	57                   	push   %edi
    f829:	58                   	pop    %eax
    f82a:	59                   	pop    %ecx
    f82b:	5a                   	pop    %edx
    f82c:	00 00                	add    %al,(%eax)
    f82e:	00 00                	add    %al,(%eax)
    f830:	30 31                	xor    %dh,(%ecx)
    f832:	32 33                	xor    (%ebx),%dh
    f834:	34 35                	xor    $0x35,%al
    f836:	36 37                	ss aaa 
    f838:	38 39                	cmp    %bh,(%ecx)
    f83a:	61                   	popa   
    f83b:	62 63 64             	bound  %esp,0x64(%ebx)
    f83e:	65 66 67 68 69 6a    	gs addr16 pushw $0x6a69
    f844:	6b 6c 6d 6e 6f       	imul   $0x6f,0x6e(%ebp,%ebp,2),%ebp
    f849:	70 71                	jo     0xf8bc
    f84b:	72 73                	jb     0xf8c0
    f84d:	74 75                	je     0xf8c4
    f84f:	76 77                	jbe    0xf8c8
    f851:	78 79                	js     0xf8cc
    f853:	7a 00                	jp     0xf855
    f855:	00 00                	add    %al,(%eax)
    f857:	00 48 44             	add    %cl,0x44(%eax)
    f85a:	2d 63 6f 6e 74       	sub    $0x746e6f63,%eax
    f85f:	72 6f                	jb     0xf8d0
    f861:	6c                   	insb   (%dx),%es:(%edi)
    f862:	6c                   	insb   (%dx),%es:(%edi)
    f863:	65 72 20             	gs jb  0xf886
    f866:	72 65                	jb     0xf8cd
    f868:	73 65                	jae    0xf8cf
    f86a:	74 20                	je     0xf88c
    f86c:	66 61                	popaw  
    f86e:	69 6c 65 64 3a 20 25 	imul   $0x3025203a,0x64(%ebp,%eiz,2),%ebp
    f875:	30 
    f876:	32 78 0a             	xor    0xa(%eax),%bh
    f879:	0d 00 00 68 64       	or     $0x64680000,%eax
    f87e:	2e 63 3a             	arpl   %di,%cs:(%edx)
    f881:	20 66 72             	and    %ah,0x72(%esi)
    f884:	65 65 20 62 75       	gs and %ah,%gs:0x75(%edx)
    f889:	66 66 65 72 20       	data16 data16 gs jb 0xf8ae
    f88e:	62 65 69             	bound  %esp,0x69(%ebp)
    f891:	6e                   	outsb  %ds:(%esi),(%dx)
    f892:	67 20 75 6e          	and    %dh,0x6e(%di)
    f896:	6c                   	insb   (%dx),%es:(%edi)
    f897:	6f                   	outsl  %ds:(%esi),(%dx)
    f898:	63 6b 65             	arpl   %bp,0x65(%ebx)
    f89b:	64 0a 00             	or     %fs:(%eax),%al
    f89e:	00 00                	add    %al,(%eax)
    f8a0:	55                   	push   %ebp
    f8a1:	6e                   	outsb  %ds:(%esi),(%dx)
    f8a2:	61                   	popa   
    f8a3:	62 6c 65 20          	bound  %ebp,0x20(%ebp,%eiz,2)
    f8a7:	74 6f                	je     0xf918
    f8a9:	20 72 65             	and    %dh,0x65(%edx)
    f8ac:	61                   	popa   
    f8ad:	64 20 70 61          	and    %dh,%fs:0x61(%eax)
    f8b1:	72 74                	jb     0xf927
    f8b3:	69 74 69 6f 6e 20 74 	imul   $0x6174206e,0x6f(%ecx,%ebp,2),%esi
    f8ba:	61 
    f8bb:	62 6c 65 20          	bound  %ebp,0x20(%ebp,%eiz,2)
    f8bf:	6f                   	outsl  %ds:(%esi),(%dx)
    f8c0:	66 20 64 72 69       	data16 and %ah,0x69(%edx,%esi,2)
    f8c5:	76 65                	jbe    0xf92c
    f8c7:	20 25 64 0a 0d 00    	and    %ah,0xd0a64
    f8cd:	00 00                	add    %al,(%eax)
    f8cf:	00 42 61             	add    %al,0x61(%edx)
    f8d2:	64 20 70 61          	and    %dh,%fs:0x61(%eax)
    f8d6:	72 74                	jb     0xf94c
    f8d8:	69 74 69 6f 6e 20 74 	imul   $0x6174206e,0x6f(%ecx,%ebp,2),%esi
    f8df:	61 
    f8e0:	62 6c 65 20          	bound  %ebp,0x20(%ebp,%eiz,2)
    f8e4:	6f                   	outsl  %ds:(%esi),(%dx)
    f8e5:	6e                   	outsb  %ds:(%esi),(%dx)
    f8e6:	20 64 72 69          	and    %ah,0x69(%edx,%esi,2)
    f8ea:	76 65                	jbe    0xf951
    f8ec:	20 25 64 0a 0d 00    	and    %ah,0xd0a64
    f8f2:	00 00                	add    %al,(%eax)
    f8f4:	74 72                	je     0xf968
    f8f6:	79 69                	jns    0xf961
    f8f8:	6e                   	outsb  %ds:(%esi),(%dx)
    f8f9:	67 20 74 6f          	and    %dh,0x6f(%si)
    f8fd:	20 72 65             	and    %dh,0x65(%edx)
    f900:	6c                   	insb   (%dx),%es:(%edi)
    f901:	65 61                	gs popa 
    f903:	73 65                	jae    0xf96a
    f905:	20 6e 6f             	and    %ch,0x6f(%esi)
    f908:	6e                   	outsb  %ds:(%esi),(%dx)
    f909:	2d 65 78 69 73       	sub    $0x73697865,%eax
    f90e:	74 65                	je     0xf975
    f910:	6e                   	outsb  %ds:(%esi),(%dx)
    f911:	74 20                	je     0xf933
    f913:	74 61                	je     0xf976
    f915:	73 6b                	jae    0xf982
    f917:	00 74 72 79          	add    %dh,0x79(%edx,%esi,2)
    f91b:	69 6e 67 20 74 6f 20 	imul   $0x206f7420,0x67(%esi),%ebp
    f922:	66 72 65             	data16 jb 0xf98a
    f925:	65 20 6e 6f          	and    %ch,%gs:0x6f(%esi)
    f929:	6e                   	outsb  %ds:(%esi),(%dx)
    f92a:	65 78 69             	gs js  0xf996
    f92d:	73 74                	jae    0xf9a3
    f92f:	65 6e                	outsb  %gs:(%esi),(%dx)
    f931:	74 20                	je     0xf953
    f933:	70 61                	jo     0xf996
    f935:	67 65 00 66 72       	add    %ah,%gs:0x72(%bp)
    f93a:	65 65 5f             	gs gs pop %edi
    f93d:	70 61                	jo     0xf9a0
    f93f:	67 65 5f             	addr16 gs pop %edi
    f942:	74 61                	je     0xf9a5
    f944:	62 6c 65 73          	bound  %ebp,0x73(%ebp,%eiz,2)
    f948:	20 63 61             	and    %ah,0x61(%ebx)
    f94b:	6c                   	insb   (%dx),%es:(%edi)
    f94c:	6c                   	insb   (%dx),%es:(%edi)
    f94d:	65 64 20 77 69       	gs and %dh,%fs:0x69(%edi)
    f952:	74 68                	je     0xf9bc
    f954:	20 77 72             	and    %dh,0x72(%edi)
    f957:	6f                   	outsl  %ds:(%esi),(%dx)
    f958:	6e                   	outsb  %ds:(%esi),(%dx)
    f959:	67 20 61 6c          	and    %ah,0x6c(%bx,%di)
    f95d:	69 67 6e 6d 65 6e 74 	imul   $0x746e656d,0x6e(%edi),%esp
    f964:	00 00                	add    %al,(%eax)
    f966:	00 00                	add    %al,(%eax)
    f968:	54                   	push   %esp
    f969:	72 79                	jb     0xf9e4
    f96b:	69 6e 67 20 74 6f 20 	imul   $0x206f7420,0x67(%esi),%ebp
    f972:	66 72 65             	data16 jb 0xf9da
    f975:	65 20 75 70          	and    %dh,%gs:0x70(%ebp)
    f979:	20 73 77             	and    %dh,0x77(%ebx)
    f97c:	61                   	popa   
    f97d:	70 70                	jo     0xf9ef
    f97f:	65 72 20             	gs jb  0xf9a2
    f982:	6d                   	insl   (%dx),%es:(%edi)
    f983:	65 6d                	gs insl (%dx),%es:(%edi)
    f985:	6f                   	outsl  %ds:(%esi),(%dx)
    f986:	72 79                	jb     0xfa01
    f988:	20 73 70             	and    %dh,0x70(%ebx)
    f98b:	61                   	popa   
    f98c:	63 65 00             	arpl   %sp,0x0(%ebp)
    f98f:	00 63 6f             	add    %ah,0x6f(%ebx)
    f992:	70 79                	jo     0xfa0d
    f994:	5f                   	pop    %edi
    f995:	70 61                	jo     0xf9f8
    f997:	67 65 5f             	addr16 gs pop %edi
    f99a:	74 61                	je     0xf9fd
    f99c:	62 6c 65 73          	bound  %ebp,0x73(%ebp,%eiz,2)
    f9a0:	20 63 61             	and    %ah,0x61(%ebx)
    f9a3:	6c                   	insb   (%dx),%es:(%edi)
    f9a4:	6c                   	insb   (%dx),%es:(%edi)
    f9a5:	65 64 20 77 69       	gs and %dh,%fs:0x69(%edi)
    f9aa:	74 68                	je     0xfa14
    f9ac:	20 77 72             	and    %dh,0x72(%edi)
    f9af:	6f                   	outsl  %ds:(%esi),(%dx)
    f9b0:	6e                   	outsb  %ds:(%esi),(%dx)
    f9b1:	67 20 61 6c          	and    %ah,0x6c(%bx,%di)
    f9b5:	69 67 6e 6d 65 6e 74 	imul   $0x746e656d,0x6e(%edi),%esp
    f9bc:	00 00                	add    %al,(%eax)
    f9be:	00 00                	add    %al,(%eax)
    f9c0:	63 6f 70             	arpl   %bp,0x70(%edi)
    f9c3:	79 5f                	jns    0xfa24
    f9c5:	70 61                	jo     0xfa28
    f9c7:	67 65 5f             	addr16 gs pop %edi
    f9ca:	74 61                	je     0xfa2d
    f9cc:	62 6c 65 73          	bound  %ebp,0x73(%ebp,%eiz,2)
    f9d0:	3a 20                	cmp    (%eax),%ah
    f9d2:	61                   	popa   
    f9d3:	6c                   	insb   (%dx),%es:(%edi)
    f9d4:	72 65                	jb     0xfa3b
    f9d6:	61                   	popa   
    f9d7:	64 79 20             	fs jns 0xf9fa
    f9da:	65 78 69             	gs js  0xfa46
    f9dd:	73 74                	jae    0xfa53
    f9df:	00 6d 65             	add    %ch,0x65(%ebp)
    f9e2:	6d                   	insl   (%dx),%es:(%edi)
    f9e3:	5f                   	pop    %edi
    f9e4:	6d                   	insl   (%dx),%es:(%edi)
    f9e5:	61                   	popa   
    f9e6:	70 20                	jo     0xfa08
    f9e8:	64 69 73 61 67 72 65 	imul   $0x65657267,%fs:0x61(%ebx),%esi
    f9ef:	65 
    f9f0:	73 20                	jae    0xfa12
    f9f2:	77 69                	ja     0xfa5d
    f9f4:	74 68                	je     0xfa5e
    f9f6:	20 25 70 20 61 74    	and    %ah,0x74612070
    f9fc:	20 25 70 0a 00 00    	and    %ah,0xa70
    fa02:	00 00                	add    %al,(%eax)
    fa04:	69 70 75 74 3a 20 74 	imul   $0x74203a74,0x75(%eax),%esi
    fa0b:	72 79                	jb     0xfa86
    fa0d:	69 6e 67 20 74 6f 20 	imul   $0x206f7420,0x67(%esi),%ebp
    fa14:	66 72 65             	data16 jb 0xfa7c
    fa17:	65 20 66 72          	and    %ah,%gs:0x72(%esi)
    fa1b:	65 65 20 69 6e       	gs and %ch,%gs:0x6e(%ecx)
    fa20:	6f                   	outsl  %ds:(%esi),(%dx)
    fa21:	64 65 00 54 72 79    	fs add %dl,%gs:0x79(%edx,%esi,2)
    fa27:	69 6e 67 20 74 6f 20 	imul   $0x206f7420,0x67(%esi),%ebp
    fa2e:	72 65                	jb     0xfa95
    fa30:	61                   	popa   
    fa31:	64 20 6e 6f          	and    %ch,%fs:0x6f(%esi)
    fa35:	6e                   	outsb  %ds:(%esi),(%dx)
    fa36:	65 78 69             	gs js  0xfaa2
    fa39:	73 74                	jae    0xfaaf
    fa3b:	65 6e                	outsb  %gs:(%esi),(%dx)
    fa3d:	74 20                	je     0xfa5f
    fa3f:	62 6c 6f 63          	bound  %ebp,0x63(%edi,%ebp,2)
    fa43:	6b 2d 64 65 76 69 63 	imul   $0x63,0x69766564,%ebp
    fa4a:	65 00 54 72 79       	add    %dl,%gs:0x79(%edx,%esi,2)
    fa4f:	69 6e 67 20 74 6f 20 	imul   $0x206f7420,0x67(%esi),%ebp
    fa56:	72 2f                	jb     0xfa87
    fa58:	77 20                	ja     0xfa7a
    fa5a:	66 72 6f             	data16 jb 0xfacc
    fa5d:	6d                   	insl   (%dx),%es:(%edi)
    fa5e:	2f                   	das    
    fa5f:	74 6f                	je     0xfad0
    fa61:	20 6e 6f             	and    %ch,0x6f(%esi)
    fa64:	6e                   	outsb  %ds:(%esi),(%dx)
    fa65:	65 78 69             	gs js  0xfad1
    fa68:	73 74                	jae    0xfade
    fa6a:	65 6e                	outsb  %gs:(%esi),(%dx)
    fa6c:	74 20                	je     0xfa8e
    fa6e:	63 68 61             	arpl   %bp,0x61(%eax)
    fa71:	72 61                	jb     0xfad4
    fa73:	63 74 65 72          	arpl   %si,0x72(%ebp,%eiz,2)
    fa77:	20 64 65 76          	and    %ah,0x76(%ebp,%eiz,2)
    fa7b:	69 63 65 00 00 65 78 	imul   $0x78650000,0x65(%ebx),%esp
    fa82:	65 63 76 65          	arpl   %si,%gs:0x65(%esi)
    fa86:	20 63 61             	and    %ah,0x61(%ebx)
    fa89:	6c                   	insb   (%dx),%es:(%edi)
    fa8a:	6c                   	insb   (%dx),%es:(%edi)
    fa8b:	65 64 20 66 72       	gs and %ah,%fs:0x72(%esi)
    fa90:	6f                   	outsl  %ds:(%esi),(%dx)
    fa91:	6d                   	insl   (%dx),%es:(%edi)
    fa92:	20 73 75             	and    %dh,0x75(%ebx)
    fa95:	70 65                	jo     0xfafc
    fa97:	72 76                	jb     0xfb0f
    fa99:	69 73 6f 72 20 6d 6f 	imul   $0x6f6d2072,0x6f(%ebx),%esi
    faa0:	64 65 00 00          	fs add %al,%gs:(%eax)
    faa4:	77 61                	ja     0xfb07
    faa6:	72 6e                	jb     0xfb16
    faa8:	69 6e 67 20 2d 20 62 	imul   $0x62202d20,0x67(%esi),%ebp
    faaf:	61                   	popa   
    fab0:	64 20 64 69 72       	and    %ah,%fs:0x72(%ecx,%ebp,2)
    fab5:	65 63 74 6f 72       	arpl   %si,%gs:0x72(%edi,%ebp,2)
    faba:	79 20                	jns    0xfadc
    fabc:	6f                   	outsl  %ds:(%esi),(%dx)
    fabd:	6e                   	outsb  %ds:(%esi),(%dx)
    fabe:	20 64 65 76          	and    %ah,0x76(%ebp,%eiz,2)
    fac2:	20 25 30 34 78 0a    	and    %ah,0xa783430
    fac8:	00 00                	add    %al,(%eax)
    faca:	00 00                	add    %al,(%eax)
    facc:	65 6d                	gs insl (%dx),%es:(%edi)
    face:	70 74                	jo     0xfb44
    fad0:	79 20                	jns    0xfaf2
    fad2:	64 69 72 65 63 74 6f 	imul   $0x726f7463,%fs:0x65(%edx),%esi
    fad9:	72 
    fada:	79 20                	jns    0xfafc
    fadc:	68 61 73 20 6e       	push   $0x6e207361
    fae1:	6c                   	insb   (%dx),%es:(%edi)
    fae2:	69 6e 6b 21 3d 32 20 	imul   $0x20323d21,0x6b(%esi),%ebp
    fae9:	28 25 64 29 00 00    	sub    %ah,0x2964
    faef:	00 69 67             	add    %ch,0x67(%ecx)
    faf2:	65 74 20             	gs je  0xfb15
    faf5:	66 61                	popaw  
    faf7:	69 6c 65 64 20 69 6e 	imul   $0x206e6920,0x64(%ebp,%eiz,2),%ebp
    fafe:	20 
    faff:	64 65 6c             	fs gs insb (%dx),%es:(%edi)
    fb02:	65 74 65             	gs je  0xfb6a
    fb05:	20 28                	and    %ch,(%eax)
    fb07:	25 30 34 78 3a       	and    $0x3a783430,%eax
    fb0c:	25 64 29 00 44       	and    $0x44002964,%eax
    fb11:	65 6c                	gs insb (%dx),%es:(%edi)
    fb13:	65 74 69             	gs je  0xfb7f
    fb16:	6e                   	outsb  %ds:(%esi),(%dx)
    fb17:	67 20 6e 6f          	and    %ch,0x6f(%bp)
    fb1b:	6e                   	outsb  %ds:(%esi),(%dx)
    fb1c:	65 78 69             	gs js  0xfb88
    fb1f:	73 74                	jae    0xfb95
    fb21:	65 6e                	outsb  %gs:(%esi),(%dx)
    fb23:	74 20                	je     0xfb45
    fb25:	66 69 6c 65 20 28 25 	imul   $0x2528,0x20(%ebp,%eiz,2),%bp
    fb2c:	30 34 78             	xor    %dh,(%eax,%edi,2)
    fb2f:	3a 25 64 29 2c 20    	cmp    0x202c2964,%ah
    fb35:	25 64 0a 00 00       	and    $0xa64,%eax
    fb3a:	00 00                	add    %al,(%eax)
    fb3c:	74 72                	je     0xfbb0
    fb3e:	79 69                	jns    0xfba9
    fb40:	6e                   	outsb  %ds:(%esi),(%dx)
    fb41:	67 20 74 6f          	and    %dh,0x6f(%si)
    fb45:	20 66 72             	and    %ah,0x72(%esi)
    fb48:	65 65 20 62 6c       	gs and %ah,%gs:0x6c(%edx)
    fb4d:	6f                   	outsl  %ds:(%esi),(%dx)
    fb4e:	63 6b 20             	arpl   %bp,0x20(%ebx)
    fb51:	6f                   	outsl  %ds:(%esi),(%dx)
    fb52:	6e                   	outsb  %ds:(%esi),(%dx)
    fb53:	20 6e 6f             	and    %ch,0x6f(%esi)
    fb56:	6e                   	outsb  %ds:(%esi),(%dx)
    fb57:	65 78 69             	gs js  0xfbc3
    fb5a:	73 74                	jae    0xfbd0
    fb5c:	65 6e                	outsb  %gs:(%esi),(%dx)
    fb5e:	74 20                	je     0xfb80
    fb60:	64 65 76 69          	fs gs jbe 0xfbcd
    fb64:	63 65 00             	arpl   %sp,0x0(%ebp)
    fb67:	00 74 72 79          	add    %dh,0x79(%edx,%esi,2)
    fb6b:	69 6e 67 20 74 6f 20 	imul   $0x206f7420,0x67(%esi),%ebp
    fb72:	66 72 65             	data16 jb 0xfbda
    fb75:	65 20 62 6c          	and    %ah,%gs:0x6c(%edx)
    fb79:	6f                   	outsl  %ds:(%esi),(%dx)
    fb7a:	63 6b 20             	arpl   %bp,0x20(%ebx)
    fb7d:	6e                   	outsb  %ds:(%esi),(%dx)
    fb7e:	6f                   	outsl  %ds:(%esi),(%dx)
    fb7f:	74 20                	je     0xfba1
    fb81:	69 6e 20 64 61 74 61 	imul   $0x61746164,0x20(%esi),%ebp
    fb88:	7a 6f                	jp     0xfbf9
    fb8a:	6e                   	outsb  %ds:(%esi),(%dx)
    fb8b:	65 00 00             	add    %al,%gs:(%eax)
    fb8e:	00 00                	add    %al,(%eax)
    fb90:	74 72                	je     0xfc04
    fb92:	79 69                	jns    0xfbfd
    fb94:	6e                   	outsb  %ds:(%esi),(%dx)
    fb95:	67 20 74 6f          	and    %dh,0x6f(%si)
    fb99:	20 66 72             	and    %ah,0x72(%esi)
    fb9c:	65 65 20 62 6c       	gs and %ah,%gs:0x6c(%edx)
    fba1:	6f                   	outsl  %ds:(%esi),(%dx)
    fba2:	63 6b 20             	arpl   %bp,0x20(%ebx)
    fba5:	28 25 30 34 78 3a    	sub    %ah,0x3a783430
    fbab:	25 64 29 2c 20       	and    $0x202c2964,%eax
    fbb0:	63 6f 75             	arpl   %bp,0x75(%edi)
    fbb3:	6e                   	outsb  %ds:(%esi),(%dx)
    fbb4:	74 3d                	je     0xfbf3
    fbb6:	25 64 0a 00 00       	and    $0xa64,%eax
    fbbb:	00 66 72             	add    %ah,0x72(%esi)
    fbbe:	65 65 5f             	gs gs pop %edi
    fbc1:	62 6c 6f 63          	bound  %ebp,0x63(%edi,%ebp,2)
    fbc5:	6b 3a 20             	imul   $0x20,(%edx),%edi
    fbc8:	62 69 74             	bound  %ebp,0x74(%ecx)
    fbcb:	20 61 6c             	and    %ah,0x6c(%ecx)
    fbce:	72 65                	jb     0xfc35
    fbd0:	61                   	popa   
    fbd1:	64 79 20             	fs jns 0xfbf4
    fbd4:	63 6c 65 61          	arpl   %bp,0x61(%ebp,%eiz,2)
    fbd8:	72 65                	jb     0xfc3f
    fbda:	64 00 74 72 79       	add    %dh,%fs:0x79(%edx,%esi,2)
    fbdf:	69 6e 67 20 74 6f 20 	imul   $0x206f7420,0x67(%esi),%ebp
    fbe6:	67 65 74 20          	addr16 gs je 0xfc0a
    fbea:	6e                   	outsb  %ds:(%esi),(%dx)
    fbeb:	65 77 20             	gs ja  0xfc0e
    fbee:	62 6c 6f 63          	bound  %ebp,0x63(%edi,%ebp,2)
    fbf2:	6b 20 66             	imul   $0x66,(%eax),%esp
    fbf5:	72 6f                	jb     0xfc66
    fbf7:	6d                   	insl   (%dx),%es:(%edi)
    fbf8:	20 6e 6f             	and    %ch,0x6f(%esi)
    fbfb:	6e                   	outsb  %ds:(%esi),(%dx)
    fbfc:	65 78 69             	gs js  0xfc68
    fbff:	73 74                	jae    0xfc75
    fc01:	61                   	popa   
    fc02:	6e                   	outsb  %ds:(%esi),(%dx)
    fc03:	74 20                	je     0xfc25
    fc05:	64 65 76 69          	fs gs jbe 0xfc72
    fc09:	63 65 00             	arpl   %sp,0x0(%ebp)
    fc0c:	74 72                	je     0xfc80
    fc0e:	79 69                	jns    0xfc79
    fc10:	6e                   	outsb  %ds:(%esi),(%dx)
    fc11:	67 20 74 6f          	and    %dh,0x6f(%si)
    fc15:	20 66 72             	and    %ah,0x72(%esi)
    fc18:	65 65 20 69 6e       	gs and %ch,%gs:0x6e(%ecx)
    fc1d:	6f                   	outsl  %ds:(%esi),(%dx)
    fc1e:	64 65 20 77 69       	fs and %dh,%gs:0x69(%edi)
    fc23:	74 68                	je     0xfc8d
    fc25:	20 63 6f             	and    %ah,0x6f(%ebx)
    fc28:	75 6e                	jne    0xfc98
    fc2a:	74 3d                	je     0xfc69
    fc2c:	25 64 0a 00 74       	and    $0x74000a64,%eax
    fc31:	72 79                	jb     0xfcac
    fc33:	69 6e 67 20 74 6f 20 	imul   $0x206f7420,0x67(%esi),%ebp
    fc3a:	66 72 65             	data16 jb 0xfca2
    fc3d:	65 20 69 6e          	and    %ch,%gs:0x6e(%ecx)
    fc41:	6f                   	outsl  %ds:(%esi),(%dx)
    fc42:	64 65 20 77 69       	fs and %dh,%gs:0x69(%edi)
    fc47:	74 68                	je     0xfcb1
    fc49:	20 6c 69 6e          	and    %ch,0x6e(%ecx,%ebp,2)
    fc4d:	6b 73 00 74          	imul   $0x74,0x0(%ebx),%esi
    fc51:	72 79                	jb     0xfccc
    fc53:	69 6e 67 20 74 6f 20 	imul   $0x206f7420,0x67(%esi),%ebp
    fc5a:	66 72 65             	data16 jb 0xfcc2
    fc5d:	65 20 69 6e          	and    %ch,%gs:0x6e(%ecx)
    fc61:	6f                   	outsl  %ds:(%esi),(%dx)
    fc62:	64 65 20 6f 6e       	fs and %ch,%gs:0x6e(%edi)
    fc67:	20 6e 6f             	and    %ch,0x6f(%esi)
    fc6a:	6e                   	outsb  %ds:(%esi),(%dx)
    fc6b:	65 78 69             	gs js  0xfcd7
    fc6e:	73 74                	jae    0xfce4
    fc70:	65 6e                	outsb  %gs:(%esi),(%dx)
    fc72:	74 20                	je     0xfc94
    fc74:	64 65 76 69          	fs gs jbe 0xfce1
    fc78:	63 65 00             	arpl   %sp,0x0(%ebp)
    fc7b:	00 74 72 79          	add    %dh,0x79(%edx,%esi,2)
    fc7f:	69 6e 67 20 74 6f 20 	imul   $0x206f7420,0x67(%esi),%ebp
    fc86:	66 72 65             	data16 jb 0xfcee
    fc89:	65 20 69 6e          	and    %ch,%gs:0x6e(%ecx)
    fc8d:	6f                   	outsl  %ds:(%esi),(%dx)
    fc8e:	64 65 20 30          	fs and %dh,%gs:(%eax)
    fc92:	20 6f 72             	and    %ch,0x72(%edi)
    fc95:	20 6e 6f             	and    %ch,0x6f(%esi)
    fc98:	6e                   	outsb  %ds:(%esi),(%dx)
    fc99:	65 78 69             	gs js  0xfd05
    fc9c:	73 74                	jae    0xfd12
    fc9e:	61                   	popa   
    fc9f:	6e                   	outsb  %ds:(%esi),(%dx)
    fca0:	74 20                	je     0xfcc2
    fca2:	69 6e 6f 64 65 00 6e 	imul   $0x6e006564,0x6f(%esi),%ebp
    fca9:	6f                   	outsl  %ds:(%esi),(%dx)
    fcaa:	6e                   	outsb  %ds:(%esi),(%dx)
    fcab:	65 78 69             	gs js  0xfd17
    fcae:	73 74                	jae    0xfd24
    fcb0:	65 6e                	outsb  %gs:(%esi),(%dx)
    fcb2:	74 20                	je     0xfcd4
    fcb4:	69 6d 61 70 20 69 6e 	imul   $0x6e692070,0x61(%ebp),%ebp
    fcbb:	20 73 75             	and    %dh,0x75(%ebx)
    fcbe:	70 65                	jo     0xfd25
    fcc0:	72 62                	jb     0xfd24
    fcc2:	6c                   	insb   (%dx),%es:(%edi)
    fcc3:	6f                   	outsl  %ds:(%esi),(%dx)
    fcc4:	63 6b 00             	arpl   %bp,0x0(%ebx)
    fcc7:	00 66 72             	add    %ah,0x72(%esi)
    fcca:	65 65 5f             	gs gs pop %edi
    fccd:	69 6e 6f 64 65 3a 20 	imul   $0x203a6564,0x6f(%esi),%ebp
    fcd4:	62 69 74             	bound  %ebp,0x74(%ecx)
    fcd7:	20 61 6c             	and    %ah,0x6c(%ecx)
    fcda:	72 65                	jb     0xfd41
    fcdc:	61                   	popa   
    fcdd:	64 79 20             	fs jns 0xfd00
    fce0:	63 6c 65 61          	arpl   %bp,0x61(%ebp,%eiz,2)
    fce4:	72 65                	jb     0xfd4b
    fce6:	64 00 14 00          	add    %dl,%fs:(%eax,%eax,1)
    fcea:	00 00                	add    %al,(%eax)
    fcec:	00 00                	add    %al,(%eax)
    fcee:	00 00                	add    %al,(%eax)
    fcf0:	01 7a 52             	add    %edi,0x52(%edx)
    fcf3:	00 01                	add    %al,(%ecx)
    fcf5:	7c 08                	jl     0xfcff
    fcf7:	01 1b                	add    %ebx,(%ebx)
    fcf9:	0c 04                	or     $0x4,%al
    fcfb:	04 88                	add    $0x88,%al
    fcfd:	01 00                	add    %eax,(%eax)
    fcff:	00 34 00             	add    %dh,(%eax,%eax,1)
    fd02:	00 00                	add    %al,(%eax)
    fd04:	1c 00                	sbb    $0x0,%al
    fd06:	00 00                	add    %al,(%eax)
    fd08:	70 53                	jo     0xfd5d
    fd0a:	ff                   	(bad)  
    fd0b:	ff 30                	pushl  (%eax)
    fd0d:	00 00                	add    %al,(%eax)
    fd0f:	00 00                	add    %al,(%eax)
    fd11:	41                   	inc    %ecx
    fd12:	0e                   	push   %cs
    fd13:	08 83 02 43 0e 14    	or     %al,0x140e4302(%ebx)
    fd19:	45                   	inc    %ebp
    fd1a:	0e                   	push   %cs
    fd1b:	18 44 0e 1c          	sbb    %al,0x1c(%esi,%ecx,1)
    fd1f:	45                   	inc    %ebp
    fd20:	0e                   	push   %cs
    fd21:	20 4a 0e             	and    %cl,0xe(%edx)
    fd24:	14 41                	adc    $0x41,%al
    fd26:	0e                   	push   %cs
    fd27:	18 45 0e             	sbb    %al,0xe(%ebp)
    fd2a:	1c 42                	sbb    $0x42,%al
    fd2c:	0e                   	push   %cs
    fd2d:	20 4a 0e             	and    %cl,0xe(%edx)
    fd30:	08 41 c3             	or     %al,-0x3d(%ecx)
    fd33:	0e                   	push   %cs
    fd34:	04 00                	add    $0x0,%al
    fd36:	00 00                	add    %al,(%eax)
    fd38:	10 00                	adc    %al,(%eax)
    fd3a:	00 00                	add    %al,(%eax)
    fd3c:	54                   	push   %esp
    fd3d:	00 00                	add    %al,(%eax)
    fd3f:	00 68 53             	add    %ch,0x53(%eax)
    fd42:	ff                   	(bad)  
    fd43:	ff 1f                	lcall  *(%edi)
    fd45:	00 00                	add    %al,(%eax)
    fd47:	00 00                	add    %al,(%eax)
    fd49:	00 00                	add    %al,(%eax)
    fd4b:	00 10                	add    %dl,(%eax)
    fd4d:	00 00                	add    %al,(%eax)
    fd4f:	00 68 00             	add    %ch,0x0(%eax)
    fd52:	00 00                	add    %al,(%eax)
    fd54:	73 53                	jae    0xfda9
    fd56:	ff                   	(bad)  
    fd57:	ff 1f                	lcall  *(%edi)
    fd59:	00 00                	add    %al,(%eax)
    fd5b:	00 00                	add    %al,(%eax)
    fd5d:	00 00                	add    %al,(%eax)
    fd5f:	00 10                	add    %dl,(%eax)
    fd61:	00 00                	add    %al,(%eax)
    fd63:	00 7c 00 00          	add    %bh,0x0(%eax,%eax,1)
    fd67:	00 7e 53             	add    %bh,0x53(%esi)
    fd6a:	ff                   	(bad)  
    fd6b:	ff 1f                	lcall  *(%edi)
    fd6d:	00 00                	add    %al,(%eax)
    fd6f:	00 00                	add    %al,(%eax)
    fd71:	00 00                	add    %al,(%eax)
    fd73:	00 10                	add    %dl,(%eax)
    fd75:	00 00                	add    %al,(%eax)
    fd77:	00 90 00 00 00 89    	add    %dl,-0x77000000(%eax)
    fd7d:	53                   	push   %ebx
    fd7e:	ff                   	(bad)  
    fd7f:	ff 1f                	lcall  *(%edi)
    fd81:	00 00                	add    %al,(%eax)
    fd83:	00 00                	add    %al,(%eax)
    fd85:	00 00                	add    %al,(%eax)
    fd87:	00 78 00             	add    %bh,0x0(%eax)
    fd8a:	00 00                	add    %al,(%eax)
    fd8c:	a4                   	movsb  %ds:(%esi),%es:(%edi)
    fd8d:	00 00                	add    %al,(%eax)
    fd8f:	00 94 53 ff ff 49 01 	add    %dl,0x149ffff(%ebx,%edx,2)
    fd96:	00 00                	add    %al,(%eax)
    fd98:	00 43 0e             	add    %al,0xe(%ebx)
    fd9b:	20 5d 0a             	and    %bl,0xa(%ebp)
    fd9e:	0e                   	push   %cs
    fd9f:	24 42                	and    $0x42,%al
    fda1:	0e                   	push   %cs
    fda2:	28 42 0e             	sub    %al,0xe(%edx)
    fda5:	2c 45                	sub    $0x45,%al
    fda7:	0e                   	push   %cs
    fda8:	30 4d 0b             	xor    %cl,0xb(%ebp)
    fdab:	43                   	inc    %ebx
    fdac:	0e                   	push   %cs
    fdad:	24 42                	and    $0x42,%al
    fdaf:	0e                   	push   %cs
    fdb0:	28 42 0e             	sub    %al,0xe(%edx)
    fdb3:	2c 45                	sub    $0x45,%al
    fdb5:	0e                   	push   %cs
    fdb6:	30 65 0e             	xor    %ah,0xe(%ebp)
    fdb9:	24 46                	and    $0x46,%al
    fdbb:	0e                   	push   %cs
    fdbc:	28 41 0e             	sub    %al,0xe(%ecx)
    fdbf:	2c 45                	sub    $0x45,%al
    fdc1:	0e                   	push   %cs
    fdc2:	30 5d 0e             	xor    %bl,0xe(%ebp)
    fdc5:	20 4b 0a             	and    %cl,0xa(%ebx)
    fdc8:	0e                   	push   %cs
    fdc9:	2c 45                	sub    $0x45,%al
    fdcb:	0e                   	push   %cs
    fdcc:	30 48 0e             	xor    %cl,0xe(%eax)
    fdcf:	24 44                	and    $0x44,%al
    fdd1:	0e                   	push   %cs
    fdd2:	28 41 0e             	sub    %al,0xe(%ecx)
    fdd5:	2c 45                	sub    $0x45,%al
    fdd7:	0e                   	push   %cs
    fdd8:	30 56 0b             	xor    %dl,0xb(%esi)
    fddb:	43                   	inc    %ebx
    fddc:	0e                   	push   %cs
    fddd:	2c 45                	sub    $0x45,%al
    fddf:	0e                   	push   %cs
    fde0:	30 48 0e             	xor    %cl,0xe(%eax)
    fde3:	20 45 0e             	and    %al,0xe(%ebp)
    fde6:	2c 42                	sub    $0x42,%al
    fde8:	0e                   	push   %cs
    fde9:	30 65 0e             	xor    %ah,0xe(%ebp)
    fdec:	24 42                	and    $0x42,%al
    fdee:	0e                   	push   %cs
    fdef:	28 42 0e             	sub    %al,0xe(%edx)
    fdf2:	2c 45                	sub    $0x45,%al
    fdf4:	0e                   	push   %cs
    fdf5:	30 60 0e             	xor    %ah,0xe(%eax)
    fdf8:	24 45                	and    $0x45,%al
    fdfa:	0e                   	push   %cs
    fdfb:	28 45 0e             	sub    %al,0xe(%ebp)
    fdfe:	2c 45                	sub    $0x45,%al
    fe00:	0e                   	push   %cs
    fe01:	30 00                	xor    %al,(%eax)
    fe03:	00 2c 00             	add    %ch,(%eax,%eax,1)
    fe06:	00 00                	add    %al,(%eax)
    fe08:	20 01                	and    %al,(%ecx)
    fe0a:	00 00                	add    %al,(%eax)
    fe0c:	61                   	popa   
    fe0d:	54                   	push   %esp
    fe0e:	ff                   	(bad)  
    fe0f:	ff cc                	dec    %esp
    fe11:	01 00                	add    %eax,(%eax)
    fe13:	00 00                	add    %al,(%eax)
    fe15:	44                   	inc    %esp
    fe16:	0c 01                	or     $0x1,%al
    fe18:	00 47 10             	add    %al,0x10(%edi)
    fe1b:	05 02 75 00 46       	add    $0x46007502,%eax
    fe20:	0f 03 75 70          	lsl    0x70(%ebp),%esi
    fe24:	06                   	push   %es
    fe25:	10 07                	adc    %al,(%edi)
    fe27:	02 75 7c             	add    0x7c(%ebp),%dh
    fe2a:	10 06                	adc    %al,(%esi)
    fe2c:	02 75 78             	add    0x78(%ebp),%dh
    fe2f:	10 03                	adc    %al,(%ebx)
    fe31:	02 75 74             	add    0x74(%ebp),%dh
    fe34:	14 00                	adc    $0x0,%al
    fe36:	00 00                	add    %al,(%eax)
    fe38:	00 00                	add    %al,(%eax)
    fe3a:	00 00                	add    %al,(%eax)
    fe3c:	01 7a 52             	add    %edi,0x52(%edx)
    fe3f:	00 01                	add    %al,(%ecx)
    fe41:	7c 08                	jl     0xfe4b
    fe43:	01 1b                	add    %ebx,(%ebx)
    fe45:	0c 04                	or     $0x4,%al
    fe47:	04 88                	add    $0x88,%al
    fe49:	01 00                	add    %eax,(%eax)
    fe4b:	00 10                	add    %dl,(%eax)
    fe4d:	00 00                	add    %al,(%eax)
    fe4f:	00 1c 00             	add    %bl,(%eax,%eax,1)
    fe52:	00 00                	add    %al,(%eax)
    fe54:	e6 55                	out    %al,$0x55
    fe56:	ff                   	(bad)  
    fe57:	ff 2b                	ljmp   *(%ebx)
    fe59:	00 00                	add    %al,(%eax)
    fe5b:	00 00                	add    %al,(%eax)
    fe5d:	00 00                	add    %al,(%eax)
    fe5f:	00 10                	add    %dl,(%eax)
    fe61:	00 00                	add    %al,(%eax)
    fe63:	00 30                	add    %dh,(%eax)
    fe65:	00 00                	add    %al,(%eax)
    fe67:	00 fd                	add    %bh,%ch
    fe69:	55                   	push   %ebp
    fe6a:	ff                   	(bad)  
    fe6b:	ff 0c 00             	decl   (%eax,%eax,1)
    fe6e:	00 00                	add    %al,(%eax)
    fe70:	00 00                	add    %al,(%eax)
    fe72:	00 00                	add    %al,(%eax)
    fe74:	10 00                	adc    %al,(%eax)
    fe76:	00 00                	add    %al,(%eax)
    fe78:	44                   	inc    %esp
    fe79:	00 00                	add    %al,(%eax)
    fe7b:	00 f5                	add    %dh,%ch
    fe7d:	55                   	push   %ebp
    fe7e:	ff                   	(bad)  
    fe7f:	ff 0c 00             	decl   (%eax,%eax,1)
    fe82:	00 00                	add    %al,(%eax)
    fe84:	00 00                	add    %al,(%eax)
    fe86:	00 00                	add    %al,(%eax)
    fe88:	10 00                	adc    %al,(%eax)
    fe8a:	00 00                	add    %al,(%eax)
    fe8c:	58                   	pop    %eax
    fe8d:	00 00                	add    %al,(%eax)
    fe8f:	00 ed                	add    %ch,%ch
    fe91:	55                   	push   %ebp
    fe92:	ff                   	(bad)  
    fe93:	ff 0d 00 00 00 00    	decl   0x0
    fe99:	00 00                	add    %al,(%eax)
    fe9b:	00 10                	add    %dl,(%eax)
    fe9d:	00 00                	add    %al,(%eax)
    fe9f:	00 6c 00 00          	add    %ch,0x0(%eax,%eax,1)
    fea3:	00 e6                	add    %ah,%dh
    fea5:	55                   	push   %ebp
    fea6:	ff                   	(bad)  
    fea7:	ff 0d 00 00 00 00    	decl   0x0
    fead:	00 00                	add    %al,(%eax)
    feaf:	00 10                	add    %dl,(%eax)
    feb1:	00 00                	add    %al,(%eax)
    feb3:	00 80 00 00 00 df    	add    %al,-0x21000000(%eax)
    feb9:	55                   	push   %ebp
    feba:	ff                   	(bad)  
    febb:	ff 0d 00 00 00 00    	decl   0x0
    fec1:	00 00                	add    %al,(%eax)
    fec3:	00 10                	add    %dl,(%eax)
    fec5:	00 00                	add    %al,(%eax)
    fec7:	00 94 00 00 00 d8 55 	add    %dl,0x55d80000(%eax,%eax,1)
    fece:	ff                   	(bad)  
    fecf:	ff 0d 00 00 00 00    	decl   0x0
    fed5:	00 00                	add    %al,(%eax)
    fed7:	00 10                	add    %dl,(%eax)
    fed9:	00 00                	add    %al,(%eax)
    fedb:	00 a8 00 00 00 d1    	add    %ch,-0x2f000000(%eax)
    fee1:	55                   	push   %ebp
    fee2:	ff                   	(bad)  
    fee3:	ff 1a                	lcall  *(%edx)
    fee5:	00 00                	add    %al,(%eax)
    fee7:	00 00                	add    %al,(%eax)
    fee9:	00 00                	add    %al,(%eax)
    feeb:	00 1c 00             	add    %bl,(%eax,%eax,1)
    feee:	00 00                	add    %al,(%eax)
    fef0:	bc 00 00 00 d7       	mov    $0xd7000000,%esp
    fef5:	55                   	push   %ebp
    fef6:	ff                   	(bad)  
    fef7:	ff 34 00             	pushl  (%eax,%eax,1)
    fefa:	00 00                	add    %al,(%eax)
    fefc:	00 41 0e             	add    %al,0xe(%ecx)
    feff:	08 83 02 6b 0a c3    	or     %al,-0x3cf594fe(%ebx)
    ff05:	0e                   	push   %cs
    ff06:	04 41                	add    $0x41,%al
    ff08:	0b 00                	or     (%eax),%eax
    ff0a:	00 00                	add    %al,(%eax)
    ff0c:	10 00                	adc    %al,(%eax)
    ff0e:	00 00                	add    %al,(%eax)
    ff10:	dc 00                	faddl  (%eax)
    ff12:	00 00                	add    %al,(%eax)
    ff14:	eb 55                	jmp    0xff6b
    ff16:	ff                   	(bad)  
    ff17:	ff 37                	pushl  (%edi)
    ff19:	00 00                	add    %al,(%eax)
    ff1b:	00 00                	add    %al,(%eax)
    ff1d:	00 00                	add    %al,(%eax)
    ff1f:	00 34 00             	add    %dh,(%eax,%eax,1)
    ff22:	00 00                	add    %al,(%eax)
    ff24:	f0 00 00             	lock add %al,(%eax)
    ff27:	00 0e                	add    %cl,(%esi)
    ff29:	56                   	push   %esi
    ff2a:	ff                   	(bad)  
    ff2b:	ff 0e                	decl   (%esi)
    ff2d:	01 00                	add    %eax,(%eax)
    ff2f:	00 00                	add    %al,(%eax)
    ff31:	41                   	inc    %ecx
    ff32:	0e                   	push   %cs
    ff33:	08 87 02 41 0e 0c    	or     %al,0xc0e4102(%edi)
    ff39:	86 03                	xchg   %al,(%ebx)
    ff3b:	41                   	inc    %ecx
    ff3c:	0e                   	push   %cs
    ff3d:	10 83 04 43 0e 20    	adc    %al,0x200e4304(%ebx)
    ff43:	02 ff                	add    %bh,%bh
    ff45:	0a 0e                	or     (%esi),%cl
    ff47:	10 41 c3             	adc    %al,-0x3d(%ecx)
    ff4a:	0e                   	push   %cs
    ff4b:	0c 41                	or     $0x41,%al
    ff4d:	c6                   	(bad)  
    ff4e:	0e                   	push   %cs
    ff4f:	08 41 c7             	or     %al,-0x39(%ecx)
    ff52:	0e                   	push   %cs
    ff53:	04 41                	add    $0x41,%al
    ff55:	0b 00                	or     (%eax),%eax
    ff57:	00 14 00             	add    %dl,(%eax,%eax,1)
    ff5a:	00 00                	add    %al,(%eax)
    ff5c:	28 01                	sub    %al,(%ecx)
    ff5e:	00 00                	add    %al,(%eax)
    ff60:	e4 56                	in     $0x56,%al
    ff62:	ff                   	(bad)  
    ff63:	ff 1c 00             	lcall  *(%eax,%eax,1)
    ff66:	00 00                	add    %al,(%eax)
    ff68:	00 43 0e             	add    %al,0xe(%ebx)
    ff6b:	10 58 0e             	adc    %bl,0xe(%eax)
    ff6e:	04 00                	add    $0x0,%al
    ff70:	34 00                	xor    $0x0,%al
    ff72:	00 00                	add    %al,(%eax)
    ff74:	40                   	inc    %eax
    ff75:	01 00                	add    %eax,(%eax)
    ff77:	00 e8                	add    %ch,%al
    ff79:	56                   	push   %esi
    ff7a:	ff                   	(bad)  
    ff7b:	ff 54 00 00          	call   *0x0(%eax,%eax,1)
    ff7f:	00 00                	add    %al,(%eax)
    ff81:	41                   	inc    %ecx
    ff82:	0e                   	push   %cs
    ff83:	08 86 02 41 0e 0c    	or     %al,0xc0e4102(%esi)
    ff89:	83 03 43             	addl   $0x43,(%ebx)
    ff8c:	0e                   	push   %cs
    ff8d:	10 7a 0a             	adc    %bh,0xa(%edx)
    ff90:	0e                   	push   %cs
    ff91:	0c 41                	or     $0x41,%al
    ff93:	c3                   	ret    
    ff94:	0e                   	push   %cs
    ff95:	08 41 c6             	or     %al,-0x3a(%ecx)
    ff98:	0e                   	push   %cs
    ff99:	04 41                	add    $0x41,%al
    ff9b:	0b 43 0e             	or     0xe(%ebx),%eax
    ff9e:	1c 45                	sbb    $0x45,%al
    ffa0:	0e                   	push   %cs
    ffa1:	20 48 0e             	and    %cl,0xe(%eax)
    ffa4:	10 00                	adc    %al,(%eax)
    ffa6:	00 00                	add    %al,(%eax)
    ffa8:	30 00                	xor    %al,(%eax)
    ffaa:	00 00                	add    %al,(%eax)
    ffac:	78 01                	js     0xffaf
    ffae:	00 00                	add    %al,(%eax)
    ffb0:	04 57                	add    $0x57,%al
    ffb2:	ff                   	(bad)  
    ffb3:	ff 70 00             	pushl  0x0(%eax)
    ffb6:	00 00                	add    %al,(%eax)
    ffb8:	00 41 0e             	add    %al,0xe(%ecx)
    ffbb:	08 86 02 41 0e 0c    	or     %al,0xc0e4102(%esi)
    ffc1:	83 03 43             	addl   $0x43,(%ebx)
    ffc4:	0e                   	push   %cs
    ffc5:	10 02                	adc    %al,(%edx)
    ffc7:	46                   	inc    %esi
    ffc8:	0e                   	push   %cs
    ffc9:	1c 45                	sbb    $0x45,%al
    ffcb:	0e                   	push   %cs
    ffcc:	20 48 0e             	and    %cl,0xe(%eax)
    ffcf:	10 55 0e             	adc    %dl,0xe(%ebp)
    ffd2:	0c 41                	or     $0x41,%al
    ffd4:	c3                   	ret    
    ffd5:	0e                   	push   %cs
    ffd6:	08 41 c6             	or     %al,-0x3a(%ecx)
    ffd9:	0e                   	push   %cs
    ffda:	04 00                	add    $0x0,%al
    ffdc:	10 00                	adc    %al,(%eax)
    ffde:	00 00                	add    %al,(%eax)
    ffe0:	ac                   	lods   %ds:(%esi),%al
    ffe1:	01 00                	add    %eax,(%eax)
    ffe3:	00 40 57             	add    %al,0x57(%eax)
    ffe6:	ff                   	(bad)  
    ffe7:	ff 1b                	lcall  *(%ebx)
    ffe9:	00 00                	add    %al,(%eax)
    ffeb:	00 00                	add    %al,(%eax)
    ffed:	00 00                	add    %al,(%eax)
    ffef:	00 18                	add    %bl,(%eax)
    fff1:	00 00                	add    %al,(%eax)
    fff3:	00 c0                	add    %al,%al
    fff5:	01 00                	add    %eax,(%eax)
    fff7:	00 47 57             	add    %al,0x57(%edi)
    fffa:	ff                   	(bad)  
    fffb:	ff 57 00             	call   *0x0(%edi)
    fffe:	00 00                	add    %al,(%eax)
   10000:	00 43 0e             	add    %al,0xe(%ebx)
   10003:	10 62 0a             	adc    %ah,0xa(%edx)
   10006:	0e                   	push   %cs
   10007:	04 41                	add    $0x41,%al
   10009:	0b 00                	or     (%eax),%eax
   1000b:	00 10                	add    %dl,(%eax)
   1000d:	00 00                	add    %al,(%eax)
   1000f:	00 dc                	add    %bl,%ah
   10011:	01 00                	add    %eax,(%eax)
   10013:	00 82 57 ff ff 27    	add    %al,0x27ffff57(%edx)
   10019:	01 00                	add    %eax,(%eax)
   1001b:	00 00                	add    %al,(%eax)
   1001d:	00 00                	add    %al,(%eax)
   1001f:	00 14 00             	add    %dl,(%eax,%eax,1)
   10022:	00 00                	add    %al,(%eax)
   10024:	00 00                	add    %al,(%eax)
   10026:	00 00                	add    %al,(%eax)
   10028:	01 7a 52             	add    %edi,0x52(%edx)
   1002b:	00 01                	add    %al,(%ecx)
   1002d:	7c 08                	jl     0x10037
   1002f:	01 1b                	add    %ebx,(%ebx)
   10031:	0c 04                	or     $0x4,%al
   10033:	04 88                	add    $0x88,%al
   10035:	01 00                	add    %eax,(%eax)
   10037:	00 a8 00 00 00 1c    	add    %ch,0x1c000000(%eax)
   1003d:	00 00                	add    %al,(%eax)
   1003f:	00 05 5a ff ff 58    	add    %al,0x58ffff5a
   10045:	01 00                	add    %eax,(%eax)
   10047:	00 00                	add    %al,(%eax)
   10049:	41                   	inc    %ecx
   1004a:	0e                   	push   %cs
   1004b:	08 87 02 41 0e 0c    	or     %al,0xc0e4102(%edi)
   10051:	86 03                	xchg   %al,(%ebx)
   10053:	41                   	inc    %ecx
   10054:	0e                   	push   %cs
   10055:	10 83 04 47 0e 14    	adc    %al,0x140e4704(%ebx)
   1005b:	44                   	inc    %esp
   1005c:	0e                   	push   %cs
   1005d:	18 41 0e             	sbb    %al,0xe(%ecx)
   10060:	1c 45                	sbb    $0x45,%al
   10062:	0e                   	push   %cs
   10063:	20 48 0e             	and    %cl,0xe(%eax)
   10066:	18 43 0e             	sbb    %al,0xe(%ebx)
   10069:	1c 43                	sbb    $0x43,%al
   1006b:	0e                   	push   %cs
   1006c:	20 43 0e             	and    %al,0xe(%ebx)
   1006f:	24 42                	and    $0x42,%al
   10071:	0e                   	push   %cs
   10072:	28 43 0e             	sub    %al,0xe(%ebx)
   10075:	2c 45                	sub    $0x45,%al
   10077:	0e                   	push   %cs
   10078:	30 4b 0e             	xor    %cl,0xe(%ebx)
   1007b:	18 44 0e 1c          	sbb    %al,0x1c(%esi,%ecx,1)
   1007f:	45                   	inc    %ebp
   10080:	0e                   	push   %cs
   10081:	20 6d 0e             	and    %ch,0xe(%ebp)
   10084:	14 41                	adc    $0x41,%al
   10086:	0e                   	push   %cs
   10087:	18 41 0e             	sbb    %al,0xe(%ecx)
   1008a:	1c 45                	sbb    $0x45,%al
   1008c:	0e                   	push   %cs
   1008d:	20 48 0e             	and    %cl,0xe(%eax)
   10090:	10 58 0e             	adc    %bl,0xe(%eax)
   10093:	14 44                	adc    $0x44,%al
   10095:	0e                   	push   %cs
   10096:	18 4b 0e             	sbb    %cl,0xe(%ebx)
   10099:	1c 45                	sbb    $0x45,%al
   1009b:	0e                   	push   %cs
   1009c:	20 48 0e             	and    %cl,0xe(%eax)
   1009f:	10 57 0e             	adc    %dl,0xe(%edi)
   100a2:	18 44 0e 1c          	sbb    %al,0x1c(%esi,%ecx,1)
   100a6:	45                   	inc    %ebp
   100a7:	0e                   	push   %cs
   100a8:	20 49 0e             	and    %cl,0xe(%ecx)
   100ab:	10 48 0e             	adc    %cl,0xe(%eax)
   100ae:	1c 45                	sbb    $0x45,%al
   100b0:	0e                   	push   %cs
   100b1:	20 54 0e 10          	and    %dl,0x10(%esi,%ecx,1)
   100b5:	41                   	inc    %ecx
   100b6:	0a c3                	or     %bl,%al
   100b8:	0e                   	push   %cs
   100b9:	0c 41                	or     $0x41,%al
   100bb:	c6                   	(bad)  
   100bc:	0e                   	push   %cs
   100bd:	08 41 c7             	or     %al,-0x39(%ecx)
   100c0:	0e                   	push   %cs
   100c1:	04 41                	add    $0x41,%al
   100c3:	0b 43 0e             	or     0xe(%ebx),%eax
   100c6:	1c 45                	sbb    $0x45,%al
   100c8:	0e                   	push   %cs
   100c9:	20 48 0e             	and    %cl,0xe(%eax)
   100cc:	10 5c 0e 18          	adc    %bl,0x18(%esi,%ecx,1)
   100d0:	41                   	inc    %ecx
   100d1:	0e                   	push   %cs
   100d2:	1c 45                	sbb    $0x45,%al
   100d4:	0e                   	push   %cs
   100d5:	20 4b 0e             	and    %cl,0xe(%ebx)
   100d8:	10 48 0e             	adc    %cl,0xe(%eax)
   100db:	1c 45                	sbb    $0x45,%al
   100dd:	0e                   	push   %cs
   100de:	20 48 0e             	and    %cl,0xe(%eax)
   100e1:	10 00                	adc    %al,(%eax)
   100e3:	00 14 00             	add    %dl,(%eax,%eax,1)
   100e6:	00 00                	add    %al,(%eax)
   100e8:	c8 00 00 00          	enter  $0x0,$0x0
   100ec:	b1 5a                	mov    $0x5a,%cl
   100ee:	ff                   	(bad)  
   100ef:	ff 19                	lcall  *(%ecx)
   100f1:	00 00                	add    %al,(%eax)
   100f3:	00 00                	add    %al,(%eax)
   100f5:	43                   	inc    %ebx
   100f6:	0e                   	push   %cs
   100f7:	10 55 0e             	adc    %dl,0xe(%ebp)
   100fa:	04 00                	add    $0x0,%al
   100fc:	14 00                	adc    $0x0,%al
   100fe:	00 00                	add    %al,(%eax)
   10100:	e0 00                	loopne 0x10102
   10102:	00 00                	add    %al,(%eax)
   10104:	b2 5a                	mov    $0x5a,%dl
   10106:	ff                   	(bad)  
   10107:	ff 19                	lcall  *(%ecx)
   10109:	00 00                	add    %al,(%eax)
   1010b:	00 00                	add    %al,(%eax)
   1010d:	43                   	inc    %ebx
   1010e:	0e                   	push   %cs
   1010f:	10 55 0e             	adc    %dl,0xe(%ebp)
   10112:	04 00                	add    $0x0,%al
   10114:	14 00                	adc    $0x0,%al
   10116:	00 00                	add    %al,(%eax)
   10118:	f8                   	clc    
   10119:	00 00                	add    %al,(%eax)
   1011b:	00 b3 5a ff ff 19    	add    %dh,0x19ffff5a(%ebx)
   10121:	00 00                	add    %al,(%eax)
   10123:	00 00                	add    %al,(%eax)
   10125:	43                   	inc    %ebx
   10126:	0e                   	push   %cs
   10127:	10 55 0e             	adc    %dl,0xe(%ebp)
   1012a:	04 00                	add    $0x0,%al
   1012c:	68 00 00 00 10       	push   $0x10000000
   10131:	01 00                	add    %eax,(%eax)
   10133:	00 b4 5a ff ff 7f 00 	add    %dh,0x7fffff(%edx,%ebx,2)
   1013a:	00 00                	add    %al,(%eax)
   1013c:	00 41 0e             	add    %al,0xe(%ecx)
   1013f:	08 86 02 41 0e 0c    	or     %al,0xc0e4102(%esi)
   10145:	83 03 43             	addl   $0x43,(%ebx)
   10148:	0e                   	push   %cs
   10149:	1c 55                	sbb    $0x55,%al
   1014b:	0e                   	push   %cs
   1014c:	20 44 0e 24          	and    %al,0x24(%esi,%ecx,1)
   10150:	44                   	inc    %esp
   10151:	0e                   	push   %cs
   10152:	28 44 0e 2c          	sub    %al,0x2c(%esi,%ecx,1)
   10156:	45                   	inc    %ebp
   10157:	0e                   	push   %cs
   10158:	30 48 0e             	xor    %cl,0xe(%eax)
   1015b:	1c 41                	sbb    $0x41,%al
   1015d:	0e                   	push   %cs
   1015e:	20 44 0e 24          	and    %al,0x24(%esi,%ecx,1)
   10162:	44                   	inc    %esp
   10163:	0e                   	push   %cs
   10164:	28 44 0e 2c          	sub    %al,0x2c(%esi,%ecx,1)
   10168:	45                   	inc    %ebp
   10169:	0e                   	push   %cs
   1016a:	30 48 0e             	xor    %cl,0xe(%eax)
   1016d:	1c 41                	sbb    $0x41,%al
   1016f:	0e                   	push   %cs
   10170:	20 44 0e 24          	and    %al,0x24(%esi,%ecx,1)
   10174:	44                   	inc    %esp
   10175:	0e                   	push   %cs
   10176:	28 44 0e 2c          	sub    %al,0x2c(%esi,%ecx,1)
   1017a:	45                   	inc    %ebp
   1017b:	0e                   	push   %cs
   1017c:	30 48 0e             	xor    %cl,0xe(%eax)
   1017f:	10 43 0e             	adc    %al,0xe(%ebx)
   10182:	14 43                	adc    $0x43,%al
   10184:	0e                   	push   %cs
   10185:	18 42 0e             	sbb    %al,0xe(%edx)
   10188:	1c 45                	sbb    $0x45,%al
   1018a:	0e                   	push   %cs
   1018b:	20 48 0e             	and    %cl,0xe(%eax)
   1018e:	0c 41                	or     $0x41,%al
   10190:	c3                   	ret    
   10191:	0e                   	push   %cs
   10192:	08 41 c6             	or     %al,-0x3a(%ecx)
   10195:	0e                   	push   %cs
   10196:	04 00                	add    $0x0,%al
   10198:	14 00                	adc    $0x0,%al
   1019a:	00 00                	add    %al,(%eax)
   1019c:	7c 01                	jl     0x1019f
   1019e:	00 00                	add    %al,(%eax)
   101a0:	c7                   	(bad)  
   101a1:	5a                   	pop    %edx
   101a2:	ff                   	(bad)  
   101a3:	ff 19                	lcall  *(%ecx)
   101a5:	00 00                	add    %al,(%eax)
   101a7:	00 00                	add    %al,(%eax)
   101a9:	43                   	inc    %ebx
   101aa:	0e                   	push   %cs
   101ab:	10 55 0e             	adc    %dl,0xe(%ebp)
   101ae:	04 00                	add    $0x0,%al
   101b0:	14 00                	adc    $0x0,%al
   101b2:	00 00                	add    %al,(%eax)
   101b4:	94                   	xchg   %eax,%esp
   101b5:	01 00                	add    %eax,(%eax)
   101b7:	00 c8                	add    %cl,%al
   101b9:	5a                   	pop    %edx
   101ba:	ff                   	(bad)  
   101bb:	ff 19                	lcall  *(%ecx)
   101bd:	00 00                	add    %al,(%eax)
   101bf:	00 00                	add    %al,(%eax)
   101c1:	43                   	inc    %ebx
   101c2:	0e                   	push   %cs
   101c3:	10 55 0e             	adc    %dl,0xe(%ebp)
   101c6:	04 00                	add    $0x0,%al
   101c8:	14 00                	adc    $0x0,%al
   101ca:	00 00                	add    %al,(%eax)
   101cc:	ac                   	lods   %ds:(%esi),%al
   101cd:	01 00                	add    %eax,(%eax)
   101cf:	00 c9                	add    %cl,%cl
   101d1:	5a                   	pop    %edx
   101d2:	ff                   	(bad)  
   101d3:	ff 19                	lcall  *(%ecx)
   101d5:	00 00                	add    %al,(%eax)
   101d7:	00 00                	add    %al,(%eax)
   101d9:	43                   	inc    %ebx
   101da:	0e                   	push   %cs
   101db:	10 55 0e             	adc    %dl,0xe(%ebp)
   101de:	04 00                	add    $0x0,%al
   101e0:	14 00                	adc    $0x0,%al
   101e2:	00 00                	add    %al,(%eax)
   101e4:	c4 01                	les    (%ecx),%eax
   101e6:	00 00                	add    %al,(%eax)
   101e8:	ca 5a ff             	lret   $0xff5a
   101eb:	ff 19                	lcall  *(%ecx)
   101ed:	00 00                	add    %al,(%eax)
   101ef:	00 00                	add    %al,(%eax)
   101f1:	43                   	inc    %ebx
   101f2:	0e                   	push   %cs
   101f3:	10 55 0e             	adc    %dl,0xe(%ebp)
   101f6:	04 00                	add    $0x0,%al
   101f8:	14 00                	adc    $0x0,%al
   101fa:	00 00                	add    %al,(%eax)
   101fc:	dc 01                	faddl  (%ecx)
   101fe:	00 00                	add    %al,(%eax)
   10200:	cb                   	lret   
   10201:	5a                   	pop    %edx
   10202:	ff                   	(bad)  
   10203:	ff 19                	lcall  *(%ecx)
   10205:	00 00                	add    %al,(%eax)
   10207:	00 00                	add    %al,(%eax)
   10209:	43                   	inc    %ebx
   1020a:	0e                   	push   %cs
   1020b:	10 55 0e             	adc    %dl,0xe(%ebp)
   1020e:	04 00                	add    $0x0,%al
   10210:	14 00                	adc    $0x0,%al
   10212:	00 00                	add    %al,(%eax)
   10214:	f4                   	hlt    
   10215:	01 00                	add    %eax,(%eax)
   10217:	00 cc                	add    %cl,%ah
   10219:	5a                   	pop    %edx
   1021a:	ff                   	(bad)  
   1021b:	ff 19                	lcall  *(%ecx)
   1021d:	00 00                	add    %al,(%eax)
   1021f:	00 00                	add    %al,(%eax)
   10221:	43                   	inc    %ebx
   10222:	0e                   	push   %cs
   10223:	10 55 0e             	adc    %dl,0xe(%ebp)
   10226:	04 00                	add    $0x0,%al
   10228:	14 00                	adc    $0x0,%al
   1022a:	00 00                	add    %al,(%eax)
   1022c:	0c 02                	or     $0x2,%al
   1022e:	00 00                	add    %al,(%eax)
   10230:	cd 5a                	int    $0x5a
   10232:	ff                   	(bad)  
   10233:	ff 19                	lcall  *(%ecx)
   10235:	00 00                	add    %al,(%eax)
   10237:	00 00                	add    %al,(%eax)
   10239:	43                   	inc    %ebx
   1023a:	0e                   	push   %cs
   1023b:	10 55 0e             	adc    %dl,0xe(%ebp)
   1023e:	04 00                	add    $0x0,%al
   10240:	14 00                	adc    $0x0,%al
   10242:	00 00                	add    %al,(%eax)
   10244:	24 02                	and    $0x2,%al
   10246:	00 00                	add    %al,(%eax)
   10248:	ce                   	into   
   10249:	5a                   	pop    %edx
   1024a:	ff                   	(bad)  
   1024b:	ff 19                	lcall  *(%ecx)
   1024d:	00 00                	add    %al,(%eax)
   1024f:	00 00                	add    %al,(%eax)
   10251:	43                   	inc    %ebx
   10252:	0e                   	push   %cs
   10253:	10 55 0e             	adc    %dl,0xe(%ebp)
   10256:	04 00                	add    $0x0,%al
   10258:	14 00                	adc    $0x0,%al
   1025a:	00 00                	add    %al,(%eax)
   1025c:	3c 02                	cmp    $0x2,%al
   1025e:	00 00                	add    %al,(%eax)
   10260:	cf                   	iret   
   10261:	5a                   	pop    %edx
   10262:	ff                   	(bad)  
   10263:	ff 19                	lcall  *(%ecx)
   10265:	00 00                	add    %al,(%eax)
   10267:	00 00                	add    %al,(%eax)
   10269:	43                   	inc    %ebx
   1026a:	0e                   	push   %cs
   1026b:	10 55 0e             	adc    %dl,0xe(%ebp)
   1026e:	04 00                	add    $0x0,%al
   10270:	14 00                	adc    $0x0,%al
   10272:	00 00                	add    %al,(%eax)
   10274:	54                   	push   %esp
   10275:	02 00                	add    (%eax),%al
   10277:	00 d0                	add    %dl,%al
   10279:	5a                   	pop    %edx
   1027a:	ff                   	(bad)  
   1027b:	ff 19                	lcall  *(%ecx)
   1027d:	00 00                	add    %al,(%eax)
   1027f:	00 00                	add    %al,(%eax)
   10281:	43                   	inc    %ebx
   10282:	0e                   	push   %cs
   10283:	10 55 0e             	adc    %dl,0xe(%ebp)
   10286:	04 00                	add    $0x0,%al
   10288:	14 00                	adc    $0x0,%al
   1028a:	00 00                	add    %al,(%eax)
   1028c:	6c                   	insb   (%dx),%es:(%edi)
   1028d:	02 00                	add    (%eax),%al
   1028f:	00 d1                	add    %dl,%cl
   10291:	5a                   	pop    %edx
   10292:	ff                   	(bad)  
   10293:	ff 19                	lcall  *(%ecx)
   10295:	00 00                	add    %al,(%eax)
   10297:	00 00                	add    %al,(%eax)
   10299:	43                   	inc    %ebx
   1029a:	0e                   	push   %cs
   1029b:	10 55 0e             	adc    %dl,0xe(%ebp)
   1029e:	04 00                	add    $0x0,%al
   102a0:	14 00                	adc    $0x0,%al
   102a2:	00 00                	add    %al,(%eax)
   102a4:	84 02                	test   %al,(%edx)
   102a6:	00 00                	add    %al,(%eax)
   102a8:	d2 5a ff             	rcrb   %cl,-0x1(%edx)
   102ab:	ff 19                	lcall  *(%ecx)
   102ad:	00 00                	add    %al,(%eax)
   102af:	00 00                	add    %al,(%eax)
   102b1:	43                   	inc    %ebx
   102b2:	0e                   	push   %cs
   102b3:	10 55 0e             	adc    %dl,0xe(%ebp)
   102b6:	04 00                	add    $0x0,%al
   102b8:	18 00                	sbb    %al,(%eax)
   102ba:	00 00                	add    %al,(%eax)
   102bc:	9c                   	pushf  
   102bd:	02 00                	add    (%eax),%al
   102bf:	00 d3                	add    %dl,%bl
   102c1:	5a                   	pop    %edx
   102c2:	ff                   	(bad)  
   102c3:	ff b1 01 00 00 00    	pushl  0x1(%ecx)
   102c9:	41                   	inc    %ecx
   102ca:	0e                   	push   %cs
   102cb:	08 83 02 03 af 01    	or     %al,0x1af0302(%ebx)
   102d1:	c3                   	ret    
   102d2:	0e                   	push   %cs
   102d3:	04 14                	add    $0x14,%al
   102d5:	00 00                	add    %al,(%eax)
   102d7:	00 00                	add    %al,(%eax)
   102d9:	00 00                	add    %al,(%eax)
   102db:	00 01                	add    %al,(%ecx)
   102dd:	7a 52                	jp     0x10331
   102df:	00 01                	add    %al,(%ecx)
   102e1:	7c 08                	jl     0x102eb
   102e3:	01 1b                	add    %ebx,(%ebx)
   102e5:	0c 04                	or     $0x4,%al
   102e7:	04 88                	add    $0x88,%al
   102e9:	01 00                	add    %eax,(%eax)
   102eb:	00 30                	add    %dh,(%eax)
   102ed:	00 00                	add    %al,(%eax)
   102ef:	00 1c 00             	add    %bl,(%eax,%eax,1)
   102f2:	00 00                	add    %al,(%eax)
   102f4:	55                   	push   %ebp
   102f5:	5d                   	pop    %ebp
   102f6:	ff                   	(bad)  
   102f7:	ff 65 00             	jmp    *0x0(%ebp)
   102fa:	00 00                	add    %al,(%eax)
   102fc:	00 41 0e             	add    %al,0xe(%ecx)
   102ff:	08 86 02 41 0e 0c    	or     %al,0xc0e4102(%esi)
   10305:	83 03 43             	addl   $0x43,(%ebx)
   10308:	0e                   	push   %cs
   10309:	10 02                	adc    %al,(%edx)
   1030b:	47                   	inc    %edi
   1030c:	0e                   	push   %cs
   1030d:	1c 41                	sbb    $0x41,%al
   1030f:	0e                   	push   %cs
   10310:	20 4e 0e             	and    %cl,0xe(%esi)
   10313:	10 47 0e             	adc    %al,0xe(%edi)
   10316:	0c 41                	or     $0x41,%al
   10318:	c3                   	ret    
   10319:	0e                   	push   %cs
   1031a:	08 41 c6             	or     %al,-0x3a(%ecx)
   1031d:	0e                   	push   %cs
   1031e:	04 00                	add    $0x0,%al
   10320:	68 00 00 00 50       	push   $0x50000000
   10325:	00 00                	add    %al,(%eax)
   10327:	00 86 5d ff ff e1    	add    %al,-0x1e0000a3(%esi)
   1032d:	00 00                	add    %al,(%eax)
   1032f:	00 00                	add    %al,(%eax)
   10331:	41                   	inc    %ecx
   10332:	0e                   	push   %cs
   10333:	08 85 02 41 0e 0c    	or     %al,0xc0e4102(%ebp)
   10339:	87 03                	xchg   %eax,(%ebx)
   1033b:	41                   	inc    %ecx
   1033c:	0e                   	push   %cs
   1033d:	10 86 04 41 0e 14    	adc    %al,0x140e4104(%esi)
   10343:	83 05 43 0e 20 02 8b 	addl   $0xffffff8b,0x2200e43
   1034a:	0e                   	push   %cs
   1034b:	24 41                	and    $0x41,%al
   1034d:	0e                   	push   %cs
   1034e:	28 41 0e             	sub    %al,0xe(%ecx)
   10351:	2c 41                	sub    $0x41,%al
   10353:	0e                   	push   %cs
   10354:	30 48 0e             	xor    %cl,0xe(%eax)
   10357:	20 47 0a             	and    %al,0xa(%edi)
   1035a:	0e                   	push   %cs
   1035b:	14 41                	adc    $0x41,%al
   1035d:	c3                   	ret    
   1035e:	0e                   	push   %cs
   1035f:	10 41 c6             	adc    %al,-0x3a(%ecx)
   10362:	0e                   	push   %cs
   10363:	0c 41                	or     $0x41,%al
   10365:	c7                   	(bad)  
   10366:	0e                   	push   %cs
   10367:	08 41 c5             	or     %al,-0x3b(%ecx)
   1036a:	0e                   	push   %cs
   1036b:	04 41                	add    $0x41,%al
   1036d:	0b 43 0e             	or     0xe(%ebx),%eax
   10370:	2c 45                	sub    $0x45,%al
   10372:	0e                   	push   %cs
   10373:	30 48 0e             	xor    %cl,0xe(%eax)
   10376:	20 45 0e             	and    %al,0xe(%ebp)
   10379:	2c 45                	sub    $0x45,%al
   1037b:	0e                   	push   %cs
   1037c:	30 48 0e             	xor    %cl,0xe(%eax)
   1037f:	20 45 0e             	and    %al,0xe(%ebp)
   10382:	28 41 0e             	sub    %al,0xe(%ecx)
   10385:	2c 41                	sub    $0x41,%al
   10387:	0e                   	push   %cs
   10388:	30 48 0e             	xor    %cl,0xe(%eax)
   1038b:	20 54 00 00          	and    %dl,0x0(%eax,%eax,1)
   1038f:	00 bc 00 00 00 fb 5d 	add    %bh,0x5dfb0000(%eax,%eax,1)
   10396:	ff                   	(bad)  
   10397:	ff 86 02 00 00 00    	incl   0x2(%esi)
   1039d:	41                   	inc    %ecx
   1039e:	0e                   	push   %cs
   1039f:	08 85 02 41 0e 0c    	or     %al,0xc0e4102(%ebp)
   103a5:	87 03                	xchg   %eax,(%ebx)
   103a7:	41                   	inc    %ecx
   103a8:	0e                   	push   %cs
   103a9:	10 86 04 41 0e 14    	adc    %al,0x140e4104(%esi)
   103af:	83 05 43 0e 20 03 82 	addl   $0xffffff82,0x3200e43
   103b6:	01 0e                	add    %ecx,(%esi)
   103b8:	28 41 0e             	sub    %al,0xe(%ecx)
   103bb:	2c 41                	sub    $0x41,%al
   103bd:	0e                   	push   %cs
   103be:	30 48 0e             	xor    %cl,0xe(%eax)
   103c1:	20 5d 0e             	and    %bl,0xe(%ebp)
   103c4:	2c 41                	sub    $0x41,%al
   103c6:	0e                   	push   %cs
   103c7:	30 48 0e             	xor    %cl,0xe(%eax)
   103ca:	20 02                	and    %al,(%edx)
   103cc:	c1 0a 0e             	rorl   $0xe,(%edx)
   103cf:	14 41                	adc    $0x41,%al
   103d1:	c3                   	ret    
   103d2:	0e                   	push   %cs
   103d3:	10 41 c6             	adc    %al,-0x3a(%ecx)
   103d6:	0e                   	push   %cs
   103d7:	0c 41                	or     $0x41,%al
   103d9:	c7                   	(bad)  
   103da:	0e                   	push   %cs
   103db:	08 41 c5             	or     %al,-0x3b(%ecx)
   103de:	0e                   	push   %cs
   103df:	04 41                	add    $0x41,%al
   103e1:	0b 00                	or     (%eax),%eax
   103e3:	00 24 00             	add    %ah,(%eax,%eax,1)
   103e6:	00 00                	add    %al,(%eax)
   103e8:	14 01                	adc    $0x1,%al
   103ea:	00 00                	add    %al,(%eax)
   103ec:	29 60 ff             	sub    %esp,-0x1(%eax)
   103ef:	ff 6e 00             	ljmp   *0x0(%esi)
   103f2:	00 00                	add    %al,(%eax)
   103f4:	00 41 0e             	add    %al,0xe(%ecx)
   103f7:	08 86 02 41 0e 0c    	or     %al,0xc0e4102(%esi)
   103fd:	83 03 02             	addl   $0x2,(%ebx)
   10400:	63 0a                	arpl   %cx,(%edx)
   10402:	c3                   	ret    
   10403:	0e                   	push   %cs
   10404:	08 41 c6             	or     %al,-0x3a(%ecx)
   10407:	0e                   	push   %cs
   10408:	04 41                	add    $0x41,%al
   1040a:	0b 00                	or     (%eax),%eax
   1040c:	14 00                	adc    $0x0,%al
   1040e:	00 00                	add    %al,(%eax)
   10410:	00 00                	add    %al,(%eax)
   10412:	00 00                	add    %al,(%eax)
   10414:	01 7a 52             	add    %edi,0x52(%edx)
   10417:	00 01                	add    %al,(%ecx)
   10419:	7c 08                	jl     0x10423
   1041b:	01 1b                	add    %ebx,(%ebx)
   1041d:	0c 04                	or     $0x4,%al
   1041f:	04 88                	add    $0x88,%al
   10421:	01 00                	add    %eax,(%eax)
   10423:	00 1c 00             	add    %bl,(%eax,%eax,1)
   10426:	00 00                	add    %al,(%eax)
   10428:	1c 00                	sbb    $0x0,%al
   1042a:	00 00                	add    %al,(%eax)
   1042c:	57                   	push   %edi
   1042d:	60                   	pusha  
   1042e:	ff                   	(bad)  
   1042f:	ff 16                	call   *(%esi)
   10431:	00 00                	add    %al,(%eax)
   10433:	00 00                	add    %al,(%eax)
   10435:	43                   	inc    %ebx
   10436:	0e                   	push   %cs
   10437:	18 44 0e 1c          	sbb    %al,0x1c(%esi,%ecx,1)
   1043b:	45                   	inc    %ebp
   1043c:	0e                   	push   %cs
   1043d:	20 48 0e             	and    %cl,0xe(%eax)
   10440:	10 00                	adc    %al,(%eax)
   10442:	00 00                	add    %al,(%eax)
   10444:	14 00                	adc    $0x0,%al
   10446:	00 00                	add    %al,(%eax)
   10448:	3c 00                	cmp    $0x0,%al
   1044a:	00 00                	add    %al,(%eax)
   1044c:	4d                   	dec    %ebp
   1044d:	60                   	pusha  
   1044e:	ff                   	(bad)  
   1044f:	ff 0d 00 00 00 00    	decl   0x0
   10455:	43                   	inc    %ebx
   10456:	0e                   	push   %cs
   10457:	1c 45                	sbb    $0x45,%al
   10459:	0e                   	push   %cs
   1045a:	20 00                	and    %al,(%eax)
   1045c:	10 00                	adc    %al,(%eax)
   1045e:	00 00                	add    %al,(%eax)
   10460:	54                   	push   %esp
   10461:	00 00                	add    %al,(%eax)
   10463:	00 42 60             	add    %al,0x60(%edx)
   10466:	ff                   	(bad)  
   10467:	ff 08                	decl   (%eax)
   10469:	00 00                	add    %al,(%eax)
   1046b:	00 00                	add    %al,(%eax)
   1046d:	43                   	inc    %ebx
   1046e:	0e                   	push   %cs
   1046f:	10 14 00             	adc    %dl,(%eax,%eax,1)
   10472:	00 00                	add    %al,(%eax)
   10474:	00 00                	add    %al,(%eax)
   10476:	00 00                	add    %al,(%eax)
   10478:	01 7a 52             	add    %edi,0x52(%edx)
   1047b:	00 01                	add    %al,(%ecx)
   1047d:	7c 08                	jl     0x10487
   1047f:	01 1b                	add    %ebx,(%ebx)
   10481:	0c 04                	or     $0x4,%al
   10483:	04 88                	add    $0x88,%al
   10485:	01 00                	add    %eax,(%eax)
   10487:	00 28                	add    %ch,(%eax)
   10489:	00 00                	add    %al,(%eax)
   1048b:	00 1c 00             	add    %bl,(%eax,%eax,1)
   1048e:	00 00                	add    %al,(%eax)
   10490:	1e                   	push   %ds
   10491:	60                   	pusha  
   10492:	ff                   	(bad)  
   10493:	ff                   	(bad)  
   10494:	38 00                	cmp    %al,(%eax)
   10496:	00 00                	add    %al,(%eax)
   10498:	00 41 0e             	add    %al,0xe(%ecx)
   1049b:	08 83 02 43 0e 14    	or     %al,0x140e4302(%ebx)
   104a1:	45                   	inc    %ebp
   104a2:	0e                   	push   %cs
   104a3:	18 44 0e 1c          	sbb    %al,0x1c(%esi,%ecx,1)
   104a7:	45                   	inc    %ebp
   104a8:	0e                   	push   %cs
   104a9:	20 64 0e 08          	and    %ah,0x8(%esi,%ecx,1)
   104ad:	41                   	inc    %ecx
   104ae:	c3                   	ret    
   104af:	0e                   	push   %cs
   104b0:	04 00                	add    $0x0,%al
   104b2:	00 00                	add    %al,(%eax)
   104b4:	14 00                	adc    $0x0,%al
   104b6:	00 00                	add    %al,(%eax)
   104b8:	00 00                	add    %al,(%eax)
   104ba:	00 00                	add    %al,(%eax)
   104bc:	01 7a 52             	add    %edi,0x52(%edx)
   104bf:	00 01                	add    %al,(%ecx)
   104c1:	7c 08                	jl     0x104cb
   104c3:	01 1b                	add    %ebx,(%ebx)
   104c5:	0c 04                	or     $0x4,%al
   104c7:	04 88                	add    $0x88,%al
   104c9:	01 00                	add    %eax,(%eax)
   104cb:	00 3c 00             	add    %bh,(%eax,%eax,1)
   104ce:	00 00                	add    %al,(%eax)
   104d0:	1c 00                	sbb    $0x0,%al
   104d2:	00 00                	add    %al,(%eax)
   104d4:	12 60 ff             	adc    -0x1(%eax),%ah
   104d7:	ff 0d 02 00 00 00    	decl   0x2
   104dd:	41                   	inc    %ecx
   104de:	0e                   	push   %cs
   104df:	08 85 02 41 0e 0c    	or     %al,0xc0e4102(%ebp)
   104e5:	87 03                	xchg   %eax,(%ebx)
   104e7:	41                   	inc    %ecx
   104e8:	0e                   	push   %cs
   104e9:	10 86 04 41 0e 14    	adc    %al,0x140e4104(%esi)
   104ef:	83 05 43 0e 60 03 8c 	addl   $0xffffff8c,0x3600e43
   104f6:	01 0a                	add    %ecx,(%edx)
   104f8:	0e                   	push   %cs
   104f9:	14 41                	adc    $0x41,%al
   104fb:	c3                   	ret    
   104fc:	0e                   	push   %cs
   104fd:	10 41 c6             	adc    %al,-0x3a(%ecx)
   10500:	0e                   	push   %cs
   10501:	0c 41                	or     $0x41,%al
   10503:	c7                   	(bad)  
   10504:	0e                   	push   %cs
   10505:	08 41 c5             	or     %al,-0x3b(%ecx)
   10508:	0e                   	push   %cs
   10509:	04 41                	add    $0x41,%al
   1050b:	0b 78 00             	or     0x0(%eax),%edi
   1050e:	00 00                	add    %al,(%eax)
   10510:	5c                   	pop    %esp
   10511:	00 00                	add    %al,(%eax)
   10513:	00 df                	add    %bl,%bh
   10515:	61                   	popa   
   10516:	ff                   	(bad)  
   10517:	ff 5a 03             	lcall  *0x3(%edx)
   1051a:	00 00                	add    %al,(%eax)
   1051c:	00 41 0e             	add    %al,0xe(%ecx)
   1051f:	08 85 02 41 0e 0c    	or     %al,0xc0e4102(%ebp)
   10525:	87 03                	xchg   %eax,(%ebx)
   10527:	41                   	inc    %ecx
   10528:	0e                   	push   %cs
   10529:	10 86 04 41 0e 14    	adc    %al,0x140e4104(%esi)
   1052f:	83 05 43 0e 30 03 2d 	addl   $0x2d,0x3300e43
   10536:	02 0e                	add    (%esi),%cl
   10538:	34 41                	xor    $0x41,%al
   1053a:	0e                   	push   %cs
   1053b:	38 44 0e 3c          	cmp    %al,0x3c(%esi,%ecx,1)
   1053f:	41                   	inc    %ecx
   10540:	0e                   	push   %cs
   10541:	40                   	inc    %eax
   10542:	53                   	push   %ebx
   10543:	0e                   	push   %cs
   10544:	30 55 0e             	xor    %dl,0xe(%ebp)
   10547:	34 41                	xor    $0x41,%al
   10549:	0e                   	push   %cs
   1054a:	38 44 0e 3c          	cmp    %al,0x3c(%esi,%ecx,1)
   1054e:	41                   	inc    %ecx
   1054f:	0e                   	push   %cs
   10550:	40                   	inc    %eax
   10551:	53                   	push   %ebx
   10552:	0e                   	push   %cs
   10553:	30 5d 0e             	xor    %bl,0xe(%ebp)
   10556:	34 41                	xor    $0x41,%al
   10558:	0e                   	push   %cs
   10559:	38 44 0e 3c          	cmp    %al,0x3c(%esi,%ecx,1)
   1055d:	41                   	inc    %ecx
   1055e:	0e                   	push   %cs
   1055f:	40                   	inc    %eax
   10560:	53                   	push   %ebx
   10561:	0e                   	push   %cs
   10562:	30 72 0e             	xor    %dh,0xe(%edx)
   10565:	34 41                	xor    $0x41,%al
   10567:	0e                   	push   %cs
   10568:	38 44 0e 3c          	cmp    %al,0x3c(%esi,%ecx,1)
   1056c:	41                   	inc    %ecx
   1056d:	0e                   	push   %cs
   1056e:	40                   	inc    %eax
   1056f:	53                   	push   %ebx
   10570:	0e                   	push   %cs
   10571:	30 02                	xor    %al,(%edx)
   10573:	59                   	pop    %ecx
   10574:	0e                   	push   %cs
   10575:	14 41                	adc    $0x41,%al
   10577:	c3                   	ret    
   10578:	0e                   	push   %cs
   10579:	10 41 c6             	adc    %al,-0x3a(%ecx)
   1057c:	0e                   	push   %cs
   1057d:	0c 41                	or     $0x41,%al
   1057f:	c7                   	(bad)  
   10580:	0e                   	push   %cs
   10581:	08 41 c5             	or     %al,-0x3b(%ecx)
   10584:	0e                   	push   %cs
   10585:	04 00                	add    $0x0,%al
   10587:	00 14 00             	add    %dl,(%eax,%eax,1)
   1058a:	00 00                	add    %al,(%eax)
   1058c:	00 00                	add    %al,(%eax)
   1058e:	00 00                	add    %al,(%eax)
   10590:	01 7a 52             	add    %edi,0x52(%edx)
   10593:	00 01                	add    %al,(%ecx)
   10595:	7c 08                	jl     0x1059f
   10597:	01 1b                	add    %ebx,(%ebx)
   10599:	0c 04                	or     $0x4,%al
   1059b:	04 88                	add    $0x88,%al
   1059d:	01 00                	add    %eax,(%eax)
   1059f:	00 14 00             	add    %dl,(%eax,%eax,1)
   105a2:	00 00                	add    %al,(%eax)
   105a4:	1c 00                	sbb    $0x0,%al
   105a6:	00 00                	add    %al,(%eax)
   105a8:	a5                   	movsl  %ds:(%esi),%es:(%edi)
   105a9:	64 ff                	fs (bad) 
   105ab:	ff 11                	call   *(%ecx)
   105ad:	00 00                	add    %al,(%eax)
   105af:	00 00                	add    %al,(%eax)
   105b1:	43                   	inc    %ebx
   105b2:	0e                   	push   %cs
   105b3:	10 4d 0e             	adc    %cl,0xe(%ebp)
   105b6:	04 00                	add    $0x0,%al
   105b8:	2c 00                	sub    $0x0,%al
   105ba:	00 00                	add    %al,(%eax)
   105bc:	34 00                	xor    $0x0,%al
   105be:	00 00                	add    %al,(%eax)
   105c0:	9e                   	sahf   
   105c1:	64 ff                	fs (bad) 
   105c3:	ff 48 00             	decl   0x0(%eax)
   105c6:	00 00                	add    %al,(%eax)
   105c8:	00 41 0e             	add    %al,0xe(%ecx)
   105cb:	08 87 02 41 0e 0c    	or     %al,0xc0e4102(%edi)
   105d1:	86 03                	xchg   %al,(%ebx)
   105d3:	41                   	inc    %ecx
   105d4:	0e                   	push   %cs
   105d5:	10 83 04 02 42 c3    	adc    %al,-0x3cbdfdfc(%ebx)
   105db:	0e                   	push   %cs
   105dc:	0c 41                	or     $0x41,%al
   105de:	c6                   	(bad)  
   105df:	0e                   	push   %cs
   105e0:	08 41 c7             	or     %al,-0x39(%ecx)
   105e3:	0e                   	push   %cs
   105e4:	04 00                	add    $0x0,%al
   105e6:	00 00                	add    %al,(%eax)
   105e8:	68 00 00 00 64       	push   $0x64000000
   105ed:	00 00                	add    %al,(%eax)
   105ef:	00 b6 64 ff ff 81    	add    %dh,-0x7e00009c(%esi)
   105f5:	02 00                	add    (%eax),%al
   105f7:	00 00                	add    %al,(%eax)
   105f9:	41                   	inc    %ecx
   105fa:	0e                   	push   %cs
   105fb:	08 85 02 41 0e 0c    	or     %al,0xc0e4102(%ebp)
   10601:	87 03                	xchg   %eax,(%ebx)
   10603:	41                   	inc    %ecx
   10604:	0e                   	push   %cs
   10605:	10 86 04 41 0e 14    	adc    %al,0x140e4104(%esi)
   1060b:	83 05 43 0e 20 02 a2 	addl   $0xffffffa2,0x2200e43
   10612:	0e                   	push   %cs
   10613:	2c 41                	sub    $0x41,%al
   10615:	0e                   	push   %cs
   10616:	30 46 0e             	xor    %al,0xe(%esi)
   10619:	20 72 0e             	and    %dh,0xe(%edx)
   1061c:	28 42 0e             	sub    %al,0xe(%edx)
   1061f:	2c 41                	sub    $0x41,%al
   10621:	0e                   	push   %cs
   10622:	30 48 0e             	xor    %cl,0xe(%eax)
   10625:	20 63 0e             	and    %ah,0xe(%ebx)
   10628:	2c 47                	sub    $0x47,%al
   1062a:	0e                   	push   %cs
   1062b:	30 48 0e             	xor    %cl,0xe(%eax)
   1062e:	14 41                	adc    $0x41,%al
   10630:	c3                   	ret    
   10631:	0e                   	push   %cs
   10632:	10 41 c6             	adc    %al,-0x3a(%ecx)
   10635:	0e                   	push   %cs
   10636:	0c 41                	or     $0x41,%al
   10638:	c7                   	(bad)  
   10639:	0e                   	push   %cs
   1063a:	08 41 c5             	or     %al,-0x3b(%ecx)
   1063d:	0e                   	push   %cs
   1063e:	04 41                	add    $0x41,%al
   10640:	0e                   	push   %cs
   10641:	20 83 05 85 02 86    	and    %al,-0x79fd7afb(%ebx)
   10647:	04 87                	add    $0x87,%al
   10649:	03 75 0e             	add    0xe(%ebp),%esi
   1064c:	2c 41                	sub    $0x41,%al
   1064e:	0e                   	push   %cs
   1064f:	30 46 0e             	xor    %al,0xe(%esi)
   10652:	20 00                	and    %al,(%eax)
   10654:	48                   	dec    %eax
   10655:	00 00                	add    %al,(%eax)
   10657:	00 d0                	add    %dl,%al
   10659:	00 00                	add    %al,(%eax)
   1065b:	00 cb                	add    %cl,%bl
   1065d:	66 ff                	data16 (bad) 
   1065f:	ff 01                	incl   (%ecx)
   10661:	03 00                	add    (%eax),%eax
   10663:	00 00                	add    %al,(%eax)
   10665:	41                   	inc    %ecx
   10666:	0e                   	push   %cs
   10667:	08 85 02 41 0e 0c    	or     %al,0xc0e4102(%ebp)
   1066d:	87 03                	xchg   %eax,(%ebx)
   1066f:	41                   	inc    %ecx
   10670:	0e                   	push   %cs
   10671:	10 86 04 41 0e 14    	adc    %al,0x140e4104(%esi)
   10677:	83 05 43 0e 50 03 12 	addl   $0x12,0x3500e43
   1067e:	01 0a                	add    %ecx,(%edx)
   10680:	0e                   	push   %cs
   10681:	14 41                	adc    $0x41,%al
   10683:	c3                   	ret    
   10684:	0e                   	push   %cs
   10685:	10 41 c6             	adc    %al,-0x3a(%ecx)
   10688:	0e                   	push   %cs
   10689:	0c 41                	or     $0x41,%al
   1068b:	c7                   	(bad)  
   1068c:	0e                   	push   %cs
   1068d:	08 41 c5             	or     %al,-0x3b(%ecx)
   10690:	0e                   	push   %cs
   10691:	04 41                	add    $0x41,%al
   10693:	0b 56 0e             	or     0xe(%esi),%edx
   10696:	5c                   	pop    %esp
   10697:	41                   	inc    %ecx
   10698:	0e                   	push   %cs
   10699:	60                   	pusha  
   1069a:	48                   	dec    %eax
   1069b:	0e                   	push   %cs
   1069c:	50                   	push   %eax
   1069d:	00 00                	add    %al,(%eax)
   1069f:	00 58 00             	add    %bl,0x0(%eax)
   106a2:	00 00                	add    %al,(%eax)
   106a4:	1c 01                	sbb    $0x1,%al
   106a6:	00 00                	add    %al,(%eax)
   106a8:	80 69 ff ff          	subb   $0xff,-0x1(%ecx)
   106ac:	04 02                	add    $0x2,%al
   106ae:	00 00                	add    %al,(%eax)
   106b0:	00 41 0e             	add    %al,0xe(%ecx)
   106b3:	08 85 02 41 0e 0c    	or     %al,0xc0e4102(%ebp)
   106b9:	87 03                	xchg   %eax,(%ebx)
   106bb:	41                   	inc    %ecx
   106bc:	0e                   	push   %cs
   106bd:	10 86 04 41 0e 14    	adc    %al,0x140e4104(%esi)
   106c3:	83 05 43 0e 40 03 2c 	addl   $0x2c,0x3400e43
   106ca:	01 0e                	add    %ecx,(%esi)
   106cc:	4c                   	dec    %esp
   106cd:	41                   	inc    %ecx
   106ce:	0e                   	push   %cs
   106cf:	50                   	push   %eax
   106d0:	4b                   	dec    %ebx
   106d1:	0e                   	push   %cs
   106d2:	40                   	inc    %eax
   106d3:	67 0e                	addr16 push %cs
   106d5:	4c                   	dec    %esp
   106d6:	41                   	inc    %ecx
   106d7:	0e                   	push   %cs
   106d8:	50                   	push   %eax
   106d9:	48                   	dec    %eax
   106da:	0e                   	push   %cs
   106db:	40                   	inc    %eax
   106dc:	02 80 0e 4c 41 0e    	add    0xe414c0e(%eax),%al
   106e2:	50                   	push   %eax
   106e3:	46                   	inc    %esi
   106e4:	0e                   	push   %cs
   106e5:	40                   	inc    %eax
   106e6:	49                   	dec    %ecx
   106e7:	0e                   	push   %cs
   106e8:	14 41                	adc    $0x41,%al
   106ea:	c3                   	ret    
   106eb:	0e                   	push   %cs
   106ec:	10 41 c6             	adc    %al,-0x3a(%ecx)
   106ef:	0e                   	push   %cs
   106f0:	0c 41                	or     $0x41,%al
   106f2:	c7                   	(bad)  
   106f3:	0e                   	push   %cs
   106f4:	08 41 c5             	or     %al,-0x3b(%ecx)
   106f7:	0e                   	push   %cs
   106f8:	04 00                	add    $0x0,%al
   106fa:	00 00                	add    %al,(%eax)
   106fc:	18 00                	sbb    %al,(%eax)
   106fe:	00 00                	add    %al,(%eax)
   10700:	78 01                	js     0x10703
   10702:	00 00                	add    %al,(%eax)
   10704:	28 6b ff             	sub    %ch,-0x1(%ebx)
   10707:	ff 25 00 00 00 00    	jmp    *0x0
   1070d:	43                   	inc    %ebx
   1070e:	0e                   	push   %cs
   1070f:	1c 59                	sbb    $0x59,%al
   10711:	0e                   	push   %cs
   10712:	20 48 0e             	and    %cl,0xe(%eax)
   10715:	04 00                	add    $0x0,%al
   10717:	00 14 00             	add    %dl,(%eax,%eax,1)
   1071a:	00 00                	add    %al,(%eax)
   1071c:	00 00                	add    %al,(%eax)
   1071e:	00 00                	add    %al,(%eax)
   10720:	01 7a 52             	add    %edi,0x52(%edx)
   10723:	00 01                	add    %al,(%ecx)
   10725:	7c 08                	jl     0x1072f
   10727:	01 1b                	add    %ebx,(%ebx)
   10729:	0c 04                	or     $0x4,%al
   1072b:	04 88                	add    $0x88,%al
   1072d:	01 00                	add    %eax,(%eax)
   1072f:	00 38                	add    %bh,(%eax)
   10731:	00 00                	add    %al,(%eax)
   10733:	00 1c 00             	add    %bl,(%eax,%eax,1)
   10736:	00 00                	add    %al,(%eax)
   10738:	19 6b ff             	sbb    %ebp,-0x1(%ebx)
   1073b:	ff 33                	pushl  (%ebx)
   1073d:	01 00                	add    %eax,(%eax)
   1073f:	00 00                	add    %al,(%eax)
   10741:	41                   	inc    %ecx
   10742:	0e                   	push   %cs
   10743:	08 85 02 41 0e 0c    	or     %al,0xc0e4102(%ebp)
   10749:	87 03                	xchg   %eax,(%ebx)
   1074b:	41                   	inc    %ecx
   1074c:	0e                   	push   %cs
   1074d:	10 86 04 41 0e 14    	adc    %al,0x140e4104(%esi)
   10753:	83 05 02 4b 0a c3 0e 	addl   $0xe,0xc30a4b02
   1075a:	10 41 c6             	adc    %al,-0x3a(%ecx)
   1075d:	0e                   	push   %cs
   1075e:	0c 41                	or     $0x41,%al
   10760:	c7                   	(bad)  
   10761:	0e                   	push   %cs
   10762:	08 41 c5             	or     %al,-0x3b(%ecx)
   10765:	0e                   	push   %cs
   10766:	04 41                	add    $0x41,%al
   10768:	0b 00                	or     (%eax),%eax
   1076a:	00 00                	add    %al,(%eax)
   1076c:	20 00                	and    %al,(%eax)
   1076e:	00 00                	add    %al,(%eax)
   10770:	58                   	pop    %eax
   10771:	00 00                	add    %al,(%eax)
   10773:	00 10                	add    %dl,(%eax)
   10775:	6c                   	insb   (%dx),%es:(%edi)
   10776:	ff                   	(bad)  
   10777:	ff 4b 00             	decl   0x0(%ebx)
   1077a:	00 00                	add    %al,(%eax)
   1077c:	00 41 0e             	add    %al,0xe(%ecx)
   1077f:	08 87 02 41 0e 0c    	or     %al,0xc0e4102(%edi)
   10785:	86 03                	xchg   %al,(%ebx)
   10787:	02 47 c6             	add    -0x3a(%edi),%al
   1078a:	0e                   	push   %cs
   1078b:	08 41 c7             	or     %al,-0x39(%ecx)
   1078e:	0e                   	push   %cs
   1078f:	04 10                	add    $0x10,%al
   10791:	00 00                	add    %al,(%eax)
   10793:	00 7c 00 00          	add    %bh,0x0(%eax,%eax,1)
   10797:	00 37                	add    %dh,(%edi)
   10799:	6c                   	insb   (%dx),%es:(%edi)
   1079a:	ff                   	(bad)  
   1079b:	ff 24 00             	jmp    *(%eax,%eax,1)
   1079e:	00 00                	add    %al,(%eax)
   107a0:	00 00                	add    %al,(%eax)
   107a2:	00 00                	add    %al,(%eax)
   107a4:	10 00                	adc    %al,(%eax)
   107a6:	00 00                	add    %al,(%eax)
   107a8:	90                   	nop
   107a9:	00 00                	add    %al,(%eax)
   107ab:	00 47 6c             	add    %al,0x6c(%edi)
   107ae:	ff                   	(bad)  
   107af:	ff 2e                	ljmp   *(%esi)
   107b1:	00 00                	add    %al,(%eax)
   107b3:	00 00                	add    %al,(%eax)
   107b5:	00 00                	add    %al,(%eax)
   107b7:	00 38                	add    %bh,(%eax)
   107b9:	00 00                	add    %al,(%eax)
   107bb:	00 a4 00 00 00 61 6c 	add    %ah,0x6c610000(%eax,%eax,1)
   107c2:	ff                   	(bad)  
   107c3:	ff 66 00             	jmp    *0x0(%esi)
   107c6:	00 00                	add    %al,(%eax)
   107c8:	00 41 0e             	add    %al,0xe(%ecx)
   107cb:	08 85 02 41 0e 0c    	or     %al,0xc0e4102(%ebp)
   107d1:	87 03                	xchg   %eax,(%ebx)
   107d3:	41                   	inc    %ecx
   107d4:	0e                   	push   %cs
   107d5:	10 86 04 41 0e 14    	adc    %al,0x140e4104(%esi)
   107db:	83 05 02 56 0a c3 0e 	addl   $0xe,0xc30a5602
   107e2:	10 41 c6             	adc    %al,-0x3a(%ecx)
   107e5:	0e                   	push   %cs
   107e6:	0c 41                	or     $0x41,%al
   107e8:	c7                   	(bad)  
   107e9:	0e                   	push   %cs
   107ea:	08 41 c5             	or     %al,-0x3b(%ecx)
   107ed:	0e                   	push   %cs
   107ee:	04 41                	add    $0x41,%al
   107f0:	0b 00                	or     (%eax),%eax
   107f2:	00 00                	add    %al,(%eax)
   107f4:	48                   	dec    %eax
   107f5:	00 00                	add    %al,(%eax)
   107f7:	00 e0                	add    %ah,%al
   107f9:	00 00                	add    %al,(%eax)
   107fb:	00 8b 6c ff ff d7    	add    %cl,-0x28000094(%ebx)
   10801:	09 00                	or     %eax,(%eax)
   10803:	00 00                	add    %al,(%eax)
   10805:	41                   	inc    %ecx
   10806:	0e                   	push   %cs
   10807:	08 85 02 41 0e 0c    	or     %al,0xc0e4102(%ebp)
   1080d:	87 03                	xchg   %eax,(%ebx)
   1080f:	41                   	inc    %ecx
   10810:	0e                   	push   %cs
   10811:	10 86 04 41 0e 14    	adc    %al,0x140e4104(%esi)
   10817:	83 05 43 0e 30 03 91 	addl   $0xffffff91,0x3300e43
   1081e:	02 0e                	add    (%esi),%cl
   10820:	3c 41                	cmp    $0x41,%al
   10822:	0e                   	push   %cs
   10823:	40                   	inc    %eax
   10824:	48                   	dec    %eax
   10825:	0e                   	push   %cs
   10826:	30 03                	xor    %al,(%ebx)
   10828:	0b 06                	or     (%esi),%eax
   1082a:	0a 0e                	or     (%esi),%cl
   1082c:	14 41                	adc    $0x41,%al
   1082e:	c3                   	ret    
   1082f:	0e                   	push   %cs
   10830:	10 41 c6             	adc    %al,-0x3a(%ecx)
   10833:	0e                   	push   %cs
   10834:	0c 41                	or     $0x41,%al
   10836:	c7                   	(bad)  
   10837:	0e                   	push   %cs
   10838:	08 41 c5             	or     %al,-0x3b(%ecx)
   1083b:	0e                   	push   %cs
   1083c:	04 41                	add    $0x41,%al
   1083e:	0b 00                	or     (%eax),%eax
   10840:	10 00                	adc    %al,(%eax)
   10842:	00 00                	add    %al,(%eax)
   10844:	2c 01                	sub    $0x1,%al
   10846:	00 00                	add    %al,(%eax)
   10848:	16                   	push   %ss
   10849:	76 ff                	jbe    0x1084a
   1084b:	ff 83 00 00 00 00    	incl   0x0(%ebx)
   10851:	00 00                	add    %al,(%eax)
   10853:	00 14 00             	add    %dl,(%eax,%eax,1)
   10856:	00 00                	add    %al,(%eax)
   10858:	00 00                	add    %al,(%eax)
   1085a:	00 00                	add    %al,(%eax)
   1085c:	01 7a 52             	add    %edi,0x52(%edx)
   1085f:	00 01                	add    %al,(%ecx)
   10861:	7c 08                	jl     0x1086b
   10863:	01 1b                	add    %ebx,(%ebx)
   10865:	0c 04                	or     $0x4,%al
   10867:	04 88                	add    $0x88,%al
   10869:	01 00                	add    %eax,(%eax)
   1086b:	00 10                	add    %dl,(%eax)
   1086d:	00 00                	add    %al,(%eax)
   1086f:	00 1c 00             	add    %bl,(%eax,%eax,1)
   10872:	00 00                	add    %al,(%eax)
   10874:	33 7f ff             	xor    -0x1(%edi),%edi
   10877:	ff 2c 00             	ljmp   *(%eax,%eax,1)
   1087a:	00 00                	add    %al,(%eax)
   1087c:	00 00                	add    %al,(%eax)
   1087e:	00 00                	add    %al,(%eax)
   10880:	10 00                	adc    %al,(%eax)
   10882:	00 00                	add    %al,(%eax)
   10884:	30 00                	xor    %al,(%eax)
   10886:	00 00                	add    %al,(%eax)
   10888:	4b                   	dec    %ebx
   10889:	7f ff                	jg     0x1088a
   1088b:	ff 29                	ljmp   *(%ecx)
   1088d:	00 00                	add    %al,(%eax)
   1088f:	00 00                	add    %al,(%eax)
   10891:	00 00                	add    %al,(%eax)
   10893:	00 3c 00             	add    %bh,(%eax,%eax,1)
   10896:	00 00                	add    %al,(%eax)
   10898:	44                   	inc    %esp
   10899:	00 00                	add    %al,(%eax)
   1089b:	00 60 7f             	add    %ah,0x7f(%eax)
   1089e:	ff                   	(bad)  
   1089f:	ff c3                	inc    %ebx
   108a1:	00 00                	add    %al,(%eax)
   108a3:	00 00                	add    %al,(%eax)
   108a5:	41                   	inc    %ecx
   108a6:	0e                   	push   %cs
   108a7:	08 87 02 41 0e 0c    	or     %al,0xc0e4102(%edi)
   108ad:	86 03                	xchg   %al,(%ebx)
   108af:	41                   	inc    %ecx
   108b0:	0e                   	push   %cs
   108b1:	10 83 04 55 0e 1c    	adc    %al,0x1c0e5504(%ebx)
   108b7:	45                   	inc    %ebp
   108b8:	0e                   	push   %cs
   108b9:	20 48 0e             	and    %cl,0xe(%eax)
   108bc:	10 58 0e             	adc    %bl,0xe(%eax)
   108bf:	1c 45                	sbb    $0x45,%al
   108c1:	0e                   	push   %cs
   108c2:	20 48 0e             	and    %cl,0xe(%eax)
   108c5:	10 02                	adc    %al,(%edx)
   108c7:	76 c3                	jbe    0x1088c
   108c9:	0e                   	push   %cs
   108ca:	0c 41                	or     $0x41,%al
   108cc:	c6                   	(bad)  
   108cd:	0e                   	push   %cs
   108ce:	08 41 c7             	or     %al,-0x39(%ecx)
   108d1:	0e                   	push   %cs
   108d2:	04 00                	add    $0x0,%al
   108d4:	50                   	push   %eax
   108d5:	00 00                	add    %al,(%eax)
   108d7:	00 84 00 00 00 e3 7f 	add    %al,0x7fe30000(%eax,%eax,1)
   108de:	ff                   	(bad)  
   108df:	ff 99 00 00 00 00    	lcall  *0x0(%ecx)
   108e5:	41                   	inc    %ecx
   108e6:	0e                   	push   %cs
   108e7:	08 86 02 41 0e 0c    	or     %al,0xc0e4102(%esi)
   108ed:	83 03 43             	addl   $0x43,(%ebx)
   108f0:	0e                   	push   %cs
   108f1:	10 02                	adc    %al,(%edx)
   108f3:	4c                   	dec    %esp
   108f4:	0e                   	push   %cs
   108f5:	18 41 0e             	sbb    %al,0xe(%ecx)
   108f8:	1c 45                	sbb    $0x45,%al
   108fa:	0e                   	push   %cs
   108fb:	20 48 0e             	and    %cl,0xe(%eax)
   108fe:	10 45 0e             	adc    %al,0xe(%ebp)
   10901:	14 45                	adc    $0x45,%al
   10903:	0e                   	push   %cs
   10904:	18 45 0e             	sbb    %al,0xe(%ebp)
   10907:	1c 42                	sbb    $0x42,%al
   10909:	0e                   	push   %cs
   1090a:	20 54 0e 0c          	and    %dl,0xc(%esi,%ecx,1)
   1090e:	41                   	inc    %ecx
   1090f:	c3                   	ret    
   10910:	0e                   	push   %cs
   10911:	08 41 c6             	or     %al,-0x3a(%ecx)
   10914:	0e                   	push   %cs
   10915:	04 41                	add    $0x41,%al
   10917:	0e                   	push   %cs
   10918:	10 83 03 86 02 43    	adc    %al,0x43028603(%ebx)
   1091e:	0e                   	push   %cs
   1091f:	1c 45                	sbb    $0x45,%al
   10921:	0e                   	push   %cs
   10922:	20 48 0e             	and    %cl,0xe(%eax)
   10925:	10 00                	adc    %al,(%eax)
   10927:	00 50 00             	add    %dl,0x0(%eax)
   1092a:	00 00                	add    %al,(%eax)
   1092c:	d8 00                	fadds  (%eax)
   1092e:	00 00                	add    %al,(%eax)
   10930:	28 80 ff ff db 00    	sub    %al,0xdbffff(%eax)
   10936:	00 00                	add    %al,(%eax)
   10938:	00 57 0e             	add    %dl,0xe(%edi)
   1093b:	08 86 02 43 0e 10    	or     %al,0x100e4302(%esi)
   10941:	54                   	push   %esp
   10942:	0e                   	push   %cs
   10943:	1c 45                	sbb    $0x45,%al
   10945:	0e                   	push   %cs
   10946:	20 48 0e             	and    %cl,0xe(%eax)
   10949:	10 43 0e             	adc    %al,0xe(%ebx)
   1094c:	08 41 c6             	or     %al,-0x3a(%ecx)
   1094f:	0e                   	push   %cs
   10950:	04 4c                	add    $0x4c,%al
   10952:	0e                   	push   %cs
   10953:	10 86 02 4b 0e 14    	adc    %al,0x140e4b02(%esi)
   10959:	42                   	inc    %edx
   1095a:	0e                   	push   %cs
   1095b:	18 43 0e             	sbb    %al,0xe(%ebx)
   1095e:	1c 43                	sbb    $0x43,%al
   10960:	0e                   	push   %cs
   10961:	20 54 0e 10          	and    %dl,0x10(%esi,%ecx,1)
   10965:	02 51 0e             	add    0xe(%ecx),%dl
   10968:	14 42                	adc    $0x42,%al
   1096a:	0e                   	push   %cs
   1096b:	18 43 0e             	sbb    %al,0xe(%ebx)
   1096e:	1c 43                	sbb    $0x43,%al
   10970:	0e                   	push   %cs
   10971:	20 4a 0e             	and    %cl,0xe(%edx)
   10974:	10 45 0e             	adc    %al,0xe(%ebp)
   10977:	04 c6                	add    $0xc6,%al
   10979:	00 00                	add    %al,(%eax)
   1097b:	00 60 00             	add    %ah,0x0(%eax)
   1097e:	00 00                	add    %al,(%eax)
   10980:	2c 01                	sub    $0x1,%al
   10982:	00 00                	add    %al,(%eax)
   10984:	af                   	scas   %es:(%edi),%eax
   10985:	80 ff ff             	cmp    $0xff,%bh
   10988:	0a 02                	or     (%edx),%al
   1098a:	00 00                	add    %al,(%eax)
   1098c:	00 41 0e             	add    %al,0xe(%ecx)
   1098f:	08 85 02 41 0e 0c    	or     %al,0xc0e4102(%ebp)
   10995:	87 03                	xchg   %eax,(%ebx)
   10997:	41                   	inc    %ecx
   10998:	0e                   	push   %cs
   10999:	10 86 04 41 0e 14    	adc    %al,0x140e4104(%esi)
   1099f:	83 05 43 0e 30 5e 0e 	addl   $0xe,0x5e300e43
   109a6:	3c 45                	cmp    $0x45,%al
   109a8:	0e                   	push   %cs
   109a9:	40                   	inc    %eax
   109aa:	48                   	dec    %eax
   109ab:	0e                   	push   %cs
   109ac:	30 45 0e             	xor    %al,0xe(%ebp)
   109af:	3c 45                	cmp    $0x45,%al
   109b1:	0e                   	push   %cs
   109b2:	40                   	inc    %eax
   109b3:	48                   	dec    %eax
   109b4:	0e                   	push   %cs
   109b5:	30 50 0e             	xor    %dl,0xe(%eax)
   109b8:	3c 45                	cmp    $0x45,%al
   109ba:	0e                   	push   %cs
   109bb:	40                   	inc    %eax
   109bc:	48                   	dec    %eax
   109bd:	0e                   	push   %cs
   109be:	30 03                	xor    %al,(%ebx)
   109c0:	13 01                	adc    (%ecx),%eax
   109c2:	0e                   	push   %cs
   109c3:	3c 41                	cmp    $0x41,%al
   109c5:	0e                   	push   %cs
   109c6:	40                   	inc    %eax
   109c7:	48                   	dec    %eax
   109c8:	0e                   	push   %cs
   109c9:	30 4a 0a             	xor    %cl,0xa(%edx)
   109cc:	0e                   	push   %cs
   109cd:	14 41                	adc    $0x41,%al
   109cf:	c3                   	ret    
   109d0:	0e                   	push   %cs
   109d1:	10 41 c6             	adc    %al,-0x3a(%ecx)
   109d4:	0e                   	push   %cs
   109d5:	0c 41                	or     $0x41,%al
   109d7:	c7                   	(bad)  
   109d8:	0e                   	push   %cs
   109d9:	08 41 c5             	or     %al,-0x3b(%ecx)
   109dc:	0e                   	push   %cs
   109dd:	04 41                	add    $0x41,%al
   109df:	0b 3c 00             	or     (%eax,%eax,1),%edi
   109e2:	00 00                	add    %al,(%eax)
   109e4:	90                   	nop
   109e5:	01 00                	add    %eax,(%eax)
   109e7:	00 55 82             	add    %dl,-0x7e(%ebp)
   109ea:	ff                   	(bad)  
   109eb:	ff                   	(bad)  
   109ec:	7d 00                	jge    0x109ee
   109ee:	00 00                	add    %al,(%eax)
   109f0:	00 41 0e             	add    %al,0xe(%ecx)
   109f3:	08 86 02 41 0e 0c    	or     %al,0xc0e4102(%esi)
   109f9:	83 03 43             	addl   $0x43,(%ebx)
   109fc:	0e                   	push   %cs
   109fd:	10 5f 0a             	adc    %bl,0xa(%edi)
   10a00:	0e                   	push   %cs
   10a01:	0c 41                	or     $0x41,%al
   10a03:	c3                   	ret    
   10a04:	0e                   	push   %cs
   10a05:	08 41 c6             	or     %al,-0x3a(%ecx)
   10a08:	0e                   	push   %cs
   10a09:	04 41                	add    $0x41,%al
   10a0b:	0b 57 0e             	or     0xe(%edi),%edx
   10a0e:	1c 44                	sbb    $0x44,%al
   10a10:	0e                   	push   %cs
   10a11:	20 67 0e             	and    %ah,0xe(%edi)
   10a14:	10 45 0e             	adc    %al,0xe(%ebp)
   10a17:	1c 45                	sbb    $0x45,%al
   10a19:	0e                   	push   %cs
   10a1a:	20 48 0e             	and    %cl,0xe(%eax)
   10a1d:	10 00                	adc    %al,(%eax)
   10a1f:	00 44 00 00          	add    %al,0x0(%eax,%eax,1)
   10a23:	00 d0                	add    %dl,%al
   10a25:	01 00                	add    %eax,(%eax)
   10a27:	00 92 82 ff ff b8    	add    %dl,-0x4700007e(%edx)
   10a2d:	00 00                	add    %al,(%eax)
   10a2f:	00 00                	add    %al,(%eax)
   10a31:	41                   	inc    %ecx
   10a32:	0e                   	push   %cs
   10a33:	08 87 02 41 0e 0c    	or     %al,0xc0e4102(%edi)
   10a39:	83 03 43             	addl   $0x43,(%ebx)
   10a3c:	0e                   	push   %cs
   10a3d:	10 02                	adc    %al,(%edx)
   10a3f:	41                   	inc    %ecx
   10a40:	0a 0e                	or     (%esi),%cl
   10a42:	0c 41                	or     $0x41,%al
   10a44:	c3                   	ret    
   10a45:	0e                   	push   %cs
   10a46:	08 41 c7             	or     %al,-0x39(%ecx)
   10a49:	0e                   	push   %cs
   10a4a:	04 41                	add    $0x41,%al
   10a4c:	0b 55 0e             	or     0xe(%ebp),%edx
   10a4f:	1c 45                	sbb    $0x45,%al
   10a51:	0e                   	push   %cs
   10a52:	20 50 0e             	and    %dl,0xe(%eax)
   10a55:	10 4d 0e             	adc    %cl,0xe(%ebp)
   10a58:	1c 44                	sbb    $0x44,%al
   10a5a:	0e                   	push   %cs
   10a5b:	20 60 0e             	and    %ah,0xe(%eax)
   10a5e:	10 45 0e             	adc    %al,0xe(%ebp)
   10a61:	1c 45                	sbb    $0x45,%al
   10a63:	0e                   	push   %cs
   10a64:	20 48 0e             	and    %cl,0xe(%eax)
   10a67:	10 3c 00             	adc    %bh,(%eax,%eax,1)
   10a6a:	00 00                	add    %al,(%eax)
   10a6c:	18 02                	sbb    %al,(%edx)
   10a6e:	00 00                	add    %al,(%eax)
   10a70:	02 83 ff ff ae 00    	add    0xaeffff(%ebx),%al
   10a76:	00 00                	add    %al,(%eax)
   10a78:	00 41 0e             	add    %al,0xe(%ecx)
   10a7b:	08 86 02 43 0e 10    	or     %al,0x100e4302(%esi)
   10a81:	76 0a                	jbe    0x10a8d
   10a83:	0e                   	push   %cs
   10a84:	08 41 c6             	or     %al,-0x3a(%ecx)
   10a87:	0e                   	push   %cs
   10a88:	04 41                	add    $0x41,%al
   10a8a:	0b 58 0e             	or     0xe(%eax),%ebx
   10a8d:	1c 45                	sbb    $0x45,%al
   10a8f:	0e                   	push   %cs
   10a90:	20 50 0e             	and    %dl,0xe(%eax)
   10a93:	10 4d 0e             	adc    %cl,0xe(%ebp)
   10a96:	1c 44                	sbb    $0x44,%al
   10a98:	0e                   	push   %cs
   10a99:	20 60 0e             	and    %ah,0xe(%eax)
   10a9c:	10 45 0e             	adc    %al,0xe(%ebp)
   10a9f:	1c 45                	sbb    $0x45,%al
   10aa1:	0e                   	push   %cs
   10aa2:	20 48 0e             	and    %cl,0xe(%eax)
   10aa5:	10 00                	adc    %al,(%eax)
   10aa7:	00 4c 00 00          	add    %cl,0x0(%eax,%eax,1)
   10aab:	00 58 02             	add    %bl,0x2(%eax)
   10aae:	00 00                	add    %al,(%eax)
   10ab0:	70 83                	jo     0x10a35
   10ab2:	ff                   	(bad)  
   10ab3:	ff                   	(bad)  
   10ab4:	7d 00                	jge    0x10ab6
   10ab6:	00 00                	add    %al,(%eax)
   10ab8:	00 41 0e             	add    %al,0xe(%ecx)
   10abb:	08 85 02 41 0e 0c    	or     %al,0xc0e4102(%ebp)
   10ac1:	87 03                	xchg   %eax,(%ebx)
   10ac3:	41                   	inc    %ecx
   10ac4:	0e                   	push   %cs
   10ac5:	10 86 04 41 0e 14    	adc    %al,0x140e4104(%esi)
   10acb:	83 05 43 0e 20 62 0a 	addl   $0xa,0x62200e43
   10ad2:	0e                   	push   %cs
   10ad3:	14 41                	adc    $0x41,%al
   10ad5:	c3                   	ret    
   10ad6:	0e                   	push   %cs
   10ad7:	10 41 c6             	adc    %al,-0x3a(%ecx)
   10ada:	0e                   	push   %cs
   10adb:	0c 41                	or     $0x41,%al
   10add:	c7                   	(bad)  
   10ade:	0e                   	push   %cs
   10adf:	08 41 c5             	or     %al,-0x3b(%ecx)
   10ae2:	0e                   	push   %cs
   10ae3:	04 41                	add    $0x41,%al
   10ae5:	0b 7c 0e 24          	or     0x24(%esi,%ecx,1),%edi
   10ae9:	41                   	inc    %ecx
   10aea:	0e                   	push   %cs
   10aeb:	28 41 0e             	sub    %al,0xe(%ecx)
   10aee:	2c 41                	sub    $0x41,%al
   10af0:	0e                   	push   %cs
   10af1:	30 4e 0e             	xor    %cl,0xe(%esi)
   10af4:	20 00                	and    %al,(%eax)
   10af6:	00 00                	add    %al,(%eax)
   10af8:	5c                   	pop    %esp
   10af9:	00 00                	add    %al,(%eax)
   10afb:	00 a8 02 00 00 9d    	add    %ch,-0x62fffffe(%eax)
   10b01:	83 ff ff             	cmp    $0xffffffff,%edi
   10b04:	18 01                	sbb    %al,(%ecx)
   10b06:	00 00                	add    %al,(%eax)
   10b08:	00 4e 0e             	add    %cl,0xe(%esi)
   10b0b:	08 87 02 41 0e 0c    	or     %al,0xc0e4102(%edi)
   10b11:	86 03                	xchg   %al,(%ebx)
   10b13:	41                   	inc    %ecx
   10b14:	0e                   	push   %cs
   10b15:	10 83 04 59 0e 18    	adc    %al,0x180e5904(%ebx)
   10b1b:	41                   	inc    %ecx
   10b1c:	0e                   	push   %cs
   10b1d:	1c 45                	sbb    $0x45,%al
   10b1f:	0e                   	push   %cs
   10b20:	20 54 0e 10          	and    %dl,0x10(%esi,%ecx,1)
   10b24:	48                   	dec    %eax
   10b25:	0e                   	push   %cs
   10b26:	18 41 0e             	sbb    %al,0xe(%ecx)
   10b29:	1c 45                	sbb    $0x45,%al
   10b2b:	0e                   	push   %cs
   10b2c:	20 54 0e 10          	and    %dl,0x10(%esi,%ecx,1)
   10b30:	77 0e                	ja     0x10b40
   10b32:	14 46                	adc    $0x46,%al
   10b34:	0e                   	push   %cs
   10b35:	18 42 0e             	sbb    %al,0xe(%edx)
   10b38:	1c 42                	sbb    $0x42,%al
   10b3a:	0e                   	push   %cs
   10b3b:	20 54 0e 10          	and    %dl,0x10(%esi,%ecx,1)
   10b3f:	78 0e                	js     0x10b4f
   10b41:	18 45 0e             	sbb    %al,0xe(%ebp)
   10b44:	1c 45                	sbb    $0x45,%al
   10b46:	0e                   	push   %cs
   10b47:	20 4d 0e             	and    %cl,0xe(%ebp)
   10b4a:	10 46 c3             	adc    %al,-0x3d(%esi)
   10b4d:	0e                   	push   %cs
   10b4e:	0c 41                	or     $0x41,%al
   10b50:	c6                   	(bad)  
   10b51:	0e                   	push   %cs
   10b52:	08 41 c7             	or     %al,-0x39(%ecx)
   10b55:	0e                   	push   %cs
   10b56:	04 00                	add    $0x0,%al
   10b58:	18 00                	sbb    %al,(%eax)
   10b5a:	00 00                	add    %al,(%eax)
   10b5c:	08 03                	or     %al,(%ebx)
   10b5e:	00 00                	add    %al,(%eax)
   10b60:	55                   	push   %ebp
   10b61:	84 ff                	test   %bh,%bh
   10b63:	ff 11                	call   *(%ecx)
   10b65:	00 00                	add    %al,(%eax)
   10b67:	00 00                	add    %al,(%eax)
   10b69:	43                   	inc    %ebx
   10b6a:	0e                   	push   %cs
   10b6b:	1c 45                	sbb    $0x45,%al
   10b6d:	0e                   	push   %cs
   10b6e:	20 48 0e             	and    %cl,0xe(%eax)
   10b71:	04 00                	add    $0x0,%al
   10b73:	00 10                	add    %dl,(%eax)
   10b75:	00 00                	add    %al,(%eax)
   10b77:	00 24 03             	add    %ah,(%ebx,%eax,1)
   10b7a:	00 00                	add    %al,(%eax)
   10b7c:	4a                   	dec    %edx
   10b7d:	84 ff                	test   %bh,%bh
   10b7f:	ff 87 00 00 00 00    	incl   0x0(%edi)
   10b85:	00 00                	add    %al,(%eax)
   10b87:	00 14 00             	add    %dl,(%eax,%eax,1)
   10b8a:	00 00                	add    %al,(%eax)
   10b8c:	00 00                	add    %al,(%eax)
   10b8e:	00 00                	add    %al,(%eax)
   10b90:	01 7a 52             	add    %edi,0x52(%edx)
   10b93:	00 01                	add    %al,(%ecx)
   10b95:	7c 08                	jl     0x10b9f
   10b97:	01 1b                	add    %ebx,(%ebx)
   10b99:	0c 04                	or     $0x4,%al
   10b9b:	04 88                	add    $0x88,%al
   10b9d:	01 00                	add    %eax,(%eax)
   10b9f:	00 10                	add    %dl,(%eax)
   10ba1:	00 00                	add    %al,(%eax)
   10ba3:	00 1c 00             	add    %bl,(%eax,%eax,1)
   10ba6:	00 00                	add    %al,(%eax)
   10ba8:	a5                   	movsl  %ds:(%esi),%es:(%edi)
   10ba9:	84 ff                	test   %bh,%bh
   10bab:	ff 06                	incl   (%esi)
   10bad:	00 00                	add    %al,(%eax)
   10baf:	00 00                	add    %al,(%eax)
   10bb1:	00 00                	add    %al,(%eax)
   10bb3:	00 10                	add    %dl,(%eax)
   10bb5:	00 00                	add    %al,(%eax)
   10bb7:	00 30                	add    %dh,(%eax)
   10bb9:	00 00                	add    %al,(%eax)
   10bbb:	00 97 84 ff ff 06    	add    %dl,0x6ffff84(%edi)
   10bc1:	00 00                	add    %al,(%eax)
   10bc3:	00 00                	add    %al,(%eax)
   10bc5:	00 00                	add    %al,(%eax)
   10bc7:	00 10                	add    %dl,(%eax)
   10bc9:	00 00                	add    %al,(%eax)
   10bcb:	00 44 00 00          	add    %al,0x0(%eax,%eax,1)
   10bcf:	00 89 84 ff ff 06    	add    %cl,0x6ffff84(%ecx)
   10bd5:	00 00                	add    %al,(%eax)
   10bd7:	00 00                	add    %al,(%eax)
   10bd9:	00 00                	add    %al,(%eax)
   10bdb:	00 10                	add    %dl,(%eax)
   10bdd:	00 00                	add    %al,(%eax)
   10bdf:	00 58 00             	add    %bl,0x0(%eax)
   10be2:	00 00                	add    %al,(%eax)
   10be4:	7b 84                	jnp    0x10b6a
   10be6:	ff                   	(bad)  
   10be7:	ff 06                	incl   (%esi)
   10be9:	00 00                	add    %al,(%eax)
   10beb:	00 00                	add    %al,(%eax)
   10bed:	00 00                	add    %al,(%eax)
   10bef:	00 10                	add    %dl,(%eax)
   10bf1:	00 00                	add    %al,(%eax)
   10bf3:	00 6c 00 00          	add    %ch,0x0(%eax,%eax,1)
   10bf7:	00 6d 84             	add    %ch,-0x7c(%ebp)
   10bfa:	ff                   	(bad)  
   10bfb:	ff 06                	incl   (%esi)
   10bfd:	00 00                	add    %al,(%eax)
   10bff:	00 00                	add    %al,(%eax)
   10c01:	00 00                	add    %al,(%eax)
   10c03:	00 10                	add    %dl,(%eax)
   10c05:	00 00                	add    %al,(%eax)
   10c07:	00 80 00 00 00 5f    	add    %al,0x5f000000(%eax)
   10c0d:	84 ff                	test   %bh,%bh
   10c0f:	ff 06                	incl   (%esi)
   10c11:	00 00                	add    %al,(%eax)
   10c13:	00 00                	add    %al,(%eax)
   10c15:	00 00                	add    %al,(%eax)
   10c17:	00 10                	add    %dl,(%eax)
   10c19:	00 00                	add    %al,(%eax)
   10c1b:	00 94 00 00 00 51 84 	add    %dl,-0x7baf0000(%eax,%eax,1)
   10c22:	ff                   	(bad)  
   10c23:	ff 06                	incl   (%esi)
   10c25:	00 00                	add    %al,(%eax)
   10c27:	00 00                	add    %al,(%eax)
   10c29:	00 00                	add    %al,(%eax)
   10c2b:	00 10                	add    %dl,(%eax)
   10c2d:	00 00                	add    %al,(%eax)
   10c2f:	00 a8 00 00 00 43    	add    %ch,0x43000000(%eax)
   10c35:	84 ff                	test   %bh,%bh
   10c37:	ff 06                	incl   (%esi)
   10c39:	00 00                	add    %al,(%eax)
   10c3b:	00 00                	add    %al,(%eax)
   10c3d:	00 00                	add    %al,(%eax)
   10c3f:	00 10                	add    %dl,(%eax)
   10c41:	00 00                	add    %al,(%eax)
   10c43:	00 bc 00 00 00 35 84 	add    %bh,-0x7bcb0000(%eax,%eax,1)
   10c4a:	ff                   	(bad)  
   10c4b:	ff 06                	incl   (%esi)
   10c4d:	00 00                	add    %al,(%eax)
   10c4f:	00 00                	add    %al,(%eax)
   10c51:	00 00                	add    %al,(%eax)
   10c53:	00 10                	add    %dl,(%eax)
   10c55:	00 00                	add    %al,(%eax)
   10c57:	00 d0                	add    %dl,%al
   10c59:	00 00                	add    %al,(%eax)
   10c5b:	00 27                	add    %ah,(%edi)
   10c5d:	84 ff                	test   %bh,%bh
   10c5f:	ff 06                	incl   (%esi)
   10c61:	00 00                	add    %al,(%eax)
   10c63:	00 00                	add    %al,(%eax)
   10c65:	00 00                	add    %al,(%eax)
   10c67:	00 10                	add    %dl,(%eax)
   10c69:	00 00                	add    %al,(%eax)
   10c6b:	00 e4                	add    %ah,%ah
   10c6d:	00 00                	add    %al,(%eax)
   10c6f:	00 19                	add    %bl,(%ecx)
   10c71:	84 ff                	test   %bh,%bh
   10c73:	ff 06                	incl   (%esi)
   10c75:	00 00                	add    %al,(%eax)
   10c77:	00 00                	add    %al,(%eax)
   10c79:	00 00                	add    %al,(%eax)
   10c7b:	00 10                	add    %dl,(%eax)
   10c7d:	00 00                	add    %al,(%eax)
   10c7f:	00 f8                	add    %bh,%al
   10c81:	00 00                	add    %al,(%eax)
   10c83:	00 0b                	add    %cl,(%ebx)
   10c85:	84 ff                	test   %bh,%bh
   10c87:	ff 5a 00             	lcall  *0x0(%edx)
   10c8a:	00 00                	add    %al,(%eax)
   10c8c:	00 00                	add    %al,(%eax)
   10c8e:	00 00                	add    %al,(%eax)
   10c90:	10 00                	adc    %al,(%eax)
   10c92:	00 00                	add    %al,(%eax)
   10c94:	0c 01                	or     $0x1,%al
   10c96:	00 00                	add    %al,(%eax)
   10c98:	51                   	push   %ecx
   10c99:	84 ff                	test   %bh,%bh
   10c9b:	ff 06                	incl   (%esi)
   10c9d:	00 00                	add    %al,(%eax)
   10c9f:	00 00                	add    %al,(%eax)
   10ca1:	00 00                	add    %al,(%eax)
   10ca3:	00 10                	add    %dl,(%eax)
   10ca5:	00 00                	add    %al,(%eax)
   10ca7:	00 20                	add    %ah,(%eax)
   10ca9:	01 00                	add    %eax,(%eax)
   10cab:	00 43 84             	add    %al,-0x7c(%ebx)
   10cae:	ff                   	(bad)  
   10caf:	ff 06                	incl   (%esi)
   10cb1:	00 00                	add    %al,(%eax)
   10cb3:	00 00                	add    %al,(%eax)
   10cb5:	00 00                	add    %al,(%eax)
   10cb7:	00 10                	add    %dl,(%eax)
   10cb9:	00 00                	add    %al,(%eax)
   10cbb:	00 34 01             	add    %dh,(%ecx,%eax,1)
   10cbe:	00 00                	add    %al,(%eax)
   10cc0:	35 84 ff ff 06       	xor    $0x6ffff84,%eax
   10cc5:	00 00                	add    %al,(%eax)
   10cc7:	00 00                	add    %al,(%eax)
   10cc9:	00 00                	add    %al,(%eax)
   10ccb:	00 10                	add    %dl,(%eax)
   10ccd:	00 00                	add    %al,(%eax)
   10ccf:	00 48 01             	add    %cl,0x1(%eax)
   10cd2:	00 00                	add    %al,(%eax)
   10cd4:	27                   	daa    
   10cd5:	84 ff                	test   %bh,%bh
   10cd7:	ff 06                	incl   (%esi)
   10cd9:	00 00                	add    %al,(%eax)
   10cdb:	00 00                	add    %al,(%eax)
   10cdd:	00 00                	add    %al,(%eax)
   10cdf:	00 10                	add    %dl,(%eax)
   10ce1:	00 00                	add    %al,(%eax)
   10ce3:	00 5c 01 00          	add    %bl,0x0(%ecx,%eax,1)
   10ce7:	00 19                	add    %bl,(%ecx)
   10ce9:	84 ff                	test   %bh,%bh
   10ceb:	ff 06                	incl   (%esi)
   10ced:	00 00                	add    %al,(%eax)
   10cef:	00 00                	add    %al,(%eax)
   10cf1:	00 00                	add    %al,(%eax)
   10cf3:	00 34 00             	add    %dh,(%eax,%eax,1)
   10cf6:	00 00                	add    %al,(%eax)
   10cf8:	70 01                	jo     0x10cfb
   10cfa:	00 00                	add    %al,(%eax)
   10cfc:	0b 84 ff ff 43 00 00 	or     0x43ff(%edi,%edi,8),%eax
   10d03:	00 00                	add    %al,(%eax)
   10d05:	41                   	inc    %ecx
   10d06:	0e                   	push   %cs
   10d07:	08 86 02 41 0e 0c    	or     %al,0xc0e4102(%esi)
   10d0d:	83 03 43             	addl   $0x43,(%ebx)
   10d10:	0e                   	push   %cs
   10d11:	10 68 0e             	adc    %ch,0xe(%eax)
   10d14:	18 42 0e             	sbb    %al,0xe(%edx)
   10d17:	1c 41                	sbb    $0x41,%al
   10d19:	0e                   	push   %cs
   10d1a:	20 4b 0e             	and    %cl,0xe(%ebx)
   10d1d:	10 45 0e             	adc    %al,0xe(%ebp)
   10d20:	0c 41                	or     $0x41,%al
   10d22:	c3                   	ret    
   10d23:	0e                   	push   %cs
   10d24:	08 41 c6             	or     %al,-0x3a(%ecx)
   10d27:	0e                   	push   %cs
   10d28:	04 00                	add    $0x0,%al
   10d2a:	00 00                	add    %al,(%eax)
   10d2c:	1c 00                	sbb    $0x0,%al
   10d2e:	00 00                	add    %al,(%eax)
   10d30:	a8 01                	test   $0x1,%al
   10d32:	00 00                	add    %al,(%eax)
   10d34:	16                   	push   %ss
   10d35:	84 ff                	test   %bh,%bh
   10d37:	ff 59 00             	lcall  *0x0(%ecx)
   10d3a:	00 00                	add    %al,(%eax)
   10d3c:	00 41 0e             	add    %al,0xe(%ecx)
   10d3f:	08 83 02 02 50 0a    	or     %al,0xa500202(%ebx)
   10d45:	c3                   	ret    
   10d46:	0e                   	push   %cs
   10d47:	04 41                	add    $0x41,%al
   10d49:	0b 00                	or     (%eax),%eax
   10d4b:	00 18                	add    %bl,(%eax)
   10d4d:	00 00                	add    %al,(%eax)
   10d4f:	00 c8                	add    %cl,%al
   10d51:	01 00                	add    %eax,(%eax)
   10d53:	00 4f 84             	add    %cl,-0x7c(%edi)
   10d56:	ff                   	(bad)  
   10d57:	ff 4d 00             	decl   0x0(%ebp)
   10d5a:	00 00                	add    %al,(%eax)
   10d5c:	00 5a 0e             	add    %bl,0xe(%edx)
   10d5f:	08 83 02 6c c3 0e    	or     %al,0xec36c02(%ebx)
   10d65:	04 00                	add    $0x0,%al
   10d67:	00 2c 00             	add    %ch,(%eax,%eax,1)
   10d6a:	00 00                	add    %al,(%eax)
   10d6c:	e4 01                	in     $0x1,%al
   10d6e:	00 00                	add    %al,(%eax)
   10d70:	80 84 ff ff 57 00 00 	addb   $0x0,0x57ff(%edi,%edi,8)
   10d77:	00 
   10d78:	00 41 0e             	add    %al,0xe(%ecx)
   10d7b:	08 83 02 43 0e 10    	or     %al,0x100e4302(%ebx)
   10d81:	4b                   	dec    %ebx
   10d82:	0e                   	push   %cs
   10d83:	18 42 0e             	sbb    %al,0xe(%edx)
   10d86:	1c 41                	sbb    $0x41,%al
   10d88:	0e                   	push   %cs
   10d89:	20 79 0e             	and    %bh,0xe(%ecx)
   10d8c:	10 43 0a             	adc    %al,0xa(%ebx)
   10d8f:	0e                   	push   %cs
   10d90:	08 41 c3             	or     %al,-0x3d(%ecx)
   10d93:	0e                   	push   %cs
   10d94:	04 41                	add    $0x41,%al
   10d96:	0b 00                	or     (%eax),%eax
   10d98:	10 00                	adc    %al,(%eax)
   10d9a:	00 00                	add    %al,(%eax)
   10d9c:	14 02                	adc    $0x2,%al
   10d9e:	00 00                	add    %al,(%eax)
   10da0:	a7                   	cmpsl  %es:(%edi),%ds:(%esi)
   10da1:	84 ff                	test   %bh,%bh
   10da3:	ff 2e                	ljmp   *(%esi)
   10da5:	00 00                	add    %al,(%eax)
   10da7:	00 00                	add    %al,(%eax)
   10da9:	00 00                	add    %al,(%eax)
   10dab:	00 24 00             	add    %ah,(%eax,%eax,1)
   10dae:	00 00                	add    %al,(%eax)
   10db0:	28 02                	sub    %al,(%edx)
   10db2:	00 00                	add    %al,(%eax)
   10db4:	c1 84 ff ff 7f 00 00 	roll   $0x0,0x7fff(%edi,%edi,8)
   10dbb:	00 
   10dbc:	00 41 0e             	add    %al,0xe(%ecx)
   10dbf:	08 86 02 41 0e 0c    	or     %al,0xc0e4102(%esi)
   10dc5:	83 03 02             	addl   $0x2,(%ebx)
   10dc8:	66 0a c3             	data16 or %bl,%al
   10dcb:	0e                   	push   %cs
   10dcc:	08 41 c6             	or     %al,-0x3a(%ecx)
   10dcf:	0e                   	push   %cs
   10dd0:	04 41                	add    $0x41,%al
   10dd2:	0b 00                	or     (%eax),%eax
   10dd4:	10 00                	adc    %al,(%eax)
   10dd6:	00 00                	add    %al,(%eax)
   10dd8:	50                   	push   %eax
   10dd9:	02 00                	add    (%eax),%al
   10ddb:	00 18                	add    %bl,(%eax)
   10ddd:	85 ff                	test   %edi,%edi
   10ddf:	ff 0c 00             	decl   (%eax,%eax,1)
   10de2:	00 00                	add    %al,(%eax)
   10de4:	00 00                	add    %al,(%eax)
   10de6:	00 00                	add    %al,(%eax)
   10de8:	10 00                	adc    %al,(%eax)
   10dea:	00 00                	add    %al,(%eax)
   10dec:	64 02 00             	add    %fs:(%eax),%al
   10def:	00 10                	add    %dl,(%eax)
   10df1:	85 ff                	test   %edi,%edi
   10df3:	ff 56 00             	call   *0x0(%esi)
   10df6:	00 00                	add    %al,(%eax)
   10df8:	00 00                	add    %al,(%eax)
   10dfa:	00 00                	add    %al,(%eax)
   10dfc:	2c 00                	sub    $0x0,%al
   10dfe:	00 00                	add    %al,(%eax)
   10e00:	78 02                	js     0x10e04
   10e02:	00 00                	add    %al,(%eax)
   10e04:	52                   	push   %edx
   10e05:	85 ff                	test   %edi,%edi
   10e07:	ff 40 00             	incl   0x0(%eax)
   10e0a:	00 00                	add    %al,(%eax)
   10e0c:	00 41 0e             	add    %al,0xe(%ecx)
   10e0f:	08 83 02 43 0e 10    	or     %al,0x100e4302(%ebx)
   10e15:	4b                   	dec    %ebx
   10e16:	0e                   	push   %cs
   10e17:	18 42 0e             	sbb    %al,0xe(%edx)
   10e1a:	1c 41                	sbb    $0x41,%al
   10e1c:	0e                   	push   %cs
   10e1d:	20 48 0e             	and    %cl,0xe(%eax)
   10e20:	10 5d 0a             	adc    %bl,0xa(%ebp)
   10e23:	0e                   	push   %cs
   10e24:	08 41 c3             	or     %al,-0x3d(%ecx)
   10e27:	0e                   	push   %cs
   10e28:	04 41                	add    $0x41,%al
   10e2a:	0b 00                	or     (%eax),%eax
   10e2c:	10 00                	adc    %al,(%eax)
   10e2e:	00 00                	add    %al,(%eax)
   10e30:	a8 02                	test   $0x2,%al
   10e32:	00 00                	add    %al,(%eax)
   10e34:	62 85 ff ff 1f 00    	bound  %eax,0x1fffff(%ebp)
   10e3a:	00 00                	add    %al,(%eax)
   10e3c:	00 00                	add    %al,(%eax)
   10e3e:	00 00                	add    %al,(%eax)
   10e40:	14 00                	adc    $0x0,%al
   10e42:	00 00                	add    %al,(%eax)
   10e44:	00 00                	add    %al,(%eax)
   10e46:	00 00                	add    %al,(%eax)
   10e48:	01 7a 52             	add    %edi,0x52(%edx)
   10e4b:	00 01                	add    %al,(%ecx)
   10e4d:	7c 08                	jl     0x10e57
   10e4f:	01 1b                	add    %ebx,(%ebx)
   10e51:	0c 04                	or     $0x4,%al
   10e53:	04 88                	add    $0x88,%al
   10e55:	01 00                	add    %eax,(%eax)
   10e57:	00 28                	add    %ch,(%eax)
   10e59:	00 00                	add    %al,(%eax)
   10e5b:	00 1c 00             	add    %bl,(%eax,%eax,1)
   10e5e:	00 00                	add    %al,(%eax)
   10e60:	55                   	push   %ebp
   10e61:	85 ff                	test   %edi,%edi
   10e63:	ff 5e 00             	lcall  *0x0(%esi)
   10e66:	00 00                	add    %al,(%eax)
   10e68:	00 43 0e             	add    %al,0xe(%ebx)
   10e6b:	10 67 0e             	adc    %ah,0xe(%edi)
   10e6e:	1c 45                	sbb    $0x45,%al
   10e70:	0e                   	push   %cs
   10e71:	20 48 0e             	and    %cl,0xe(%eax)
   10e74:	10 55 0e             	adc    %dl,0xe(%ebp)
   10e77:	1c 41                	sbb    $0x41,%al
   10e79:	0e                   	push   %cs
   10e7a:	20 4d 0e             	and    %cl,0xe(%ebp)
   10e7d:	10 43 0e             	adc    %al,0xe(%ebx)
   10e80:	04 00                	add    $0x0,%al
   10e82:	00 00                	add    %al,(%eax)
   10e84:	3c 00                	cmp    $0x0,%al
   10e86:	00 00                	add    %al,(%eax)
   10e88:	48                   	dec    %eax
   10e89:	00 00                	add    %al,(%eax)
   10e8b:	00 87 85 ff ff 38    	add    %al,0x38ffff85(%edi)
   10e91:	02 00                	add    (%eax),%al
   10e93:	00 00                	add    %al,(%eax)
   10e95:	41                   	inc    %ecx
   10e96:	0e                   	push   %cs
   10e97:	08 85 02 41 0e 0c    	or     %al,0xc0e4102(%ebp)
   10e9d:	87 03                	xchg   %eax,(%ebx)
   10e9f:	41                   	inc    %ecx
   10ea0:	0e                   	push   %cs
   10ea1:	10 86 04 41 0e 14    	adc    %al,0x140e4104(%esi)
   10ea7:	83 05 43 0e 1c 03 2c 	addl   $0x2c,0x31c0e43
   10eae:	02 0e                	add    (%esi),%cl
   10eb0:	14 41                	adc    $0x41,%al
   10eb2:	c3                   	ret    
   10eb3:	0e                   	push   %cs
   10eb4:	10 41 c6             	adc    %al,-0x3a(%ecx)
   10eb7:	0e                   	push   %cs
   10eb8:	0c 41                	or     $0x41,%al
   10eba:	c7                   	(bad)  
   10ebb:	0e                   	push   %cs
   10ebc:	08 41 c5             	or     %al,-0x3b(%ecx)
   10ebf:	0e                   	push   %cs
   10ec0:	04 00                	add    $0x0,%al
   10ec2:	00 00                	add    %al,(%eax)
   10ec4:	1c 00                	sbb    $0x0,%al
   10ec6:	00 00                	add    %al,(%eax)
   10ec8:	88 00                	mov    %al,(%eax)
   10eca:	00 00                	add    %al,(%eax)
   10ecc:	7f 87                	jg     0x10e55
   10ece:	ff                   	(bad)  
   10ecf:	ff 29                	ljmp   *(%ecx)
   10ed1:	00 00                	add    %al,(%eax)
   10ed3:	00 00                	add    %al,(%eax)
   10ed5:	53                   	push   %ebx
   10ed6:	0e                   	push   %cs
   10ed7:	08 44 0e 0c          	or     %al,0xc(%esi,%ecx,1)
   10edb:	44                   	inc    %esp
   10edc:	0e                   	push   %cs
   10edd:	10 48 0e             	adc    %cl,0xe(%eax)
   10ee0:	04 00                	add    $0x0,%al
   10ee2:	00 00                	add    %al,(%eax)
   10ee4:	6c                   	insb   (%dx),%es:(%edi)
   10ee5:	00 00                	add    %al,(%eax)
   10ee7:	00 a8 00 00 00 88    	add    %ch,-0x78000000(%eax)
   10eed:	87 ff                	xchg   %edi,%edi
   10eef:	ff 9e 01 00 00 00    	lcall  *0x1(%esi)
   10ef5:	41                   	inc    %ecx
   10ef6:	0e                   	push   %cs
   10ef7:	08 86 02 41 0e 0c    	or     %al,0xc0e4102(%esi)
   10efd:	83 03 43             	addl   $0x43,(%ebx)
   10f00:	0e                   	push   %cs
   10f01:	18 66 0e             	sbb    %ah,0xe(%esi)
   10f04:	1c 41                	sbb    $0x41,%al
   10f06:	0e                   	push   %cs
   10f07:	20 6d 0e             	and    %ch,0xe(%ebp)
   10f0a:	18 41 0e             	sbb    %al,0xe(%ecx)
   10f0d:	1c 41                	sbb    $0x41,%al
   10f0f:	0e                   	push   %cs
   10f10:	20 58 0e             	and    %bl,0xe(%eax)
   10f13:	10 73 0e             	adc    %dh,0xe(%ebx)
   10f16:	1c 41                	sbb    $0x41,%al
   10f18:	0e                   	push   %cs
   10f19:	20 48 0e             	and    %cl,0xe(%eax)
   10f1c:	10 5a 0e             	adc    %bl,0xe(%edx)
   10f1f:	1c 4b                	sbb    $0x4b,%al
   10f21:	0e                   	push   %cs
   10f22:	20 57 0e             	and    %dl,0xe(%edi)
   10f25:	1c 46                	sbb    $0x46,%al
   10f27:	0e                   	push   %cs
   10f28:	20 57 0e             	and    %dl,0xe(%edi)
   10f2b:	10 02                	adc    %al,(%edx)
   10f2d:	40                   	inc    %eax
   10f2e:	0e                   	push   %cs
   10f2f:	1c 14                	sbb    $0x14,%al
   10f31:	00 00                	add    %al,(%eax)
   10f33:	00 00                	add    %al,(%eax)
   10f35:	00 00                	add    %al,(%eax)
   10f37:	00 01                	add    %al,(%ecx)
   10f39:	7a 52                	jp     0x10f8d
   10f3b:	00 01                	add    %al,(%ecx)
   10f3d:	7c 08                	jl     0x10f47
   10f3f:	01 1b                	add    %ebx,(%ebx)
   10f41:	0c 04                	or     $0x4,%al
   10f43:	04 88                	add    $0x88,%al
   10f45:	01 00                	add    %eax,(%eax)
   10f47:	00 18                	add    %bl,(%eax)
   10f49:	00 00                	add    %al,(%eax)
   10f4b:	00 1c 00             	add    %bl,(%eax,%eax,1)
   10f4e:	00 00                	add    %al,(%eax)
   10f50:	7b 8b                	jnp    0x10edd
   10f52:	ff                   	(bad)  
   10f53:	ff                   	(bad)  
   10f54:	38 00                	cmp    %al,(%eax)
   10f56:	00 00                	add    %al,(%eax)
   10f58:	00 41 0e             	add    %al,0xe(%ecx)
   10f5b:	08 83 02 76 c3 0e    	or     %al,0xec37602(%ebx)
   10f61:	04 00                	add    $0x0,%al
   10f63:	00 34 00             	add    %dh,(%eax,%eax,1)
   10f66:	00 00                	add    %al,(%eax)
   10f68:	38 00                	cmp    %al,(%eax)
   10f6a:	00 00                	add    %al,(%eax)
   10f6c:	97                   	xchg   %eax,%edi
   10f6d:	8b ff                	mov    %edi,%edi
   10f6f:	ff 60 00             	jmp    *0x0(%eax)
   10f72:	00 00                	add    %al,(%eax)
   10f74:	00 41 0e             	add    %al,0xe(%ecx)
   10f77:	08 83 02 43 0e 10    	or     %al,0x100e4302(%ebx)
   10f7d:	76 0a                	jbe    0x10f89
   10f7f:	0e                   	push   %cs
   10f80:	08 41 c3             	or     %al,-0x3d(%ecx)
   10f83:	0e                   	push   %cs
   10f84:	04 41                	add    $0x41,%al
   10f86:	0b 43 0e             	or     0xe(%ebx),%eax
   10f89:	1c 45                	sbb    $0x45,%al
   10f8b:	0e                   	push   %cs
   10f8c:	20 48 0e             	and    %cl,0xe(%eax)
   10f8f:	10 45 0e             	adc    %al,0xe(%ebp)
   10f92:	1c 45                	sbb    $0x45,%al
   10f94:	0e                   	push   %cs
   10f95:	20 48 0e             	and    %cl,0xe(%eax)
   10f98:	10 00                	adc    %al,(%eax)
   10f9a:	00 00                	add    %al,(%eax)
   10f9c:	60                   	pusha  
   10f9d:	00 00                	add    %al,(%eax)
   10f9f:	00 70 00             	add    %dh,0x0(%eax)
   10fa2:	00 00                	add    %al,(%eax)
   10fa4:	bf 8b ff ff c9       	mov    $0xc9ffff8b,%edi
   10fa9:	00 00                	add    %al,(%eax)
   10fab:	00 00                	add    %al,(%eax)
   10fad:	41                   	inc    %ecx
   10fae:	0e                   	push   %cs
   10faf:	08 85 02 41 0e 0c    	or     %al,0xc0e4102(%ebp)
   10fb5:	87 03                	xchg   %eax,(%ebx)
   10fb7:	41                   	inc    %ecx
   10fb8:	0e                   	push   %cs
   10fb9:	10 86 04 41 0e 14    	adc    %al,0x140e4104(%esi)
   10fbf:	83 05 43 0e 20 77 0a 	addl   $0xa,0x77200e43
   10fc6:	0e                   	push   %cs
   10fc7:	14 41                	adc    $0x41,%al
   10fc9:	c3                   	ret    
   10fca:	0e                   	push   %cs
   10fcb:	10 41 c6             	adc    %al,-0x3a(%ecx)
   10fce:	0e                   	push   %cs
   10fcf:	0c 41                	or     $0x41,%al
   10fd1:	c7                   	(bad)  
   10fd2:	0e                   	push   %cs
   10fd3:	08 41 c5             	or     %al,-0x3b(%ecx)
   10fd6:	0e                   	push   %cs
   10fd7:	04 41                	add    $0x41,%al
   10fd9:	0b 43 0e             	or     0xe(%ebx),%eax
   10fdc:	2c 45                	sub    $0x45,%al
   10fde:	0e                   	push   %cs
   10fdf:	30 48 0e             	xor    %cl,0xe(%eax)
   10fe2:	20 45 0e             	and    %al,0xe(%ebp)
   10fe5:	2c 45                	sub    $0x45,%al
   10fe7:	0e                   	push   %cs
   10fe8:	30 48 0e             	xor    %cl,0xe(%eax)
   10feb:	20 58 0e             	and    %bl,0xe(%eax)
   10fee:	2c 46                	sub    $0x46,%al
   10ff0:	0e                   	push   %cs
   10ff1:	30 48 0e             	xor    %cl,0xe(%eax)
   10ff4:	20 45 0e             	and    %al,0xe(%ebp)
   10ff7:	2c 48                	sub    $0x48,%al
   10ff9:	0e                   	push   %cs
   10ffa:	30 4e 0e             	xor    %cl,0xe(%esi)
   10ffd:	20 00                	and    %al,(%eax)
   10fff:	00 50 00             	add    %dl,0x0(%eax)
   11002:	00 00                	add    %al,(%eax)
   11004:	d4 00                	aam    $0x0
   11006:	00 00                	add    %al,(%eax)
   11008:	24 8c                	and    $0x8c,%al
   1100a:	ff                   	(bad)  
   1100b:	ff 14 01             	call   *(%ecx,%eax,1)
   1100e:	00 00                	add    %al,(%eax)
   11010:	00 41 0e             	add    %al,0xe(%ecx)
   11013:	08 85 02 41 0e 0c    	or     %al,0xc0e4102(%ebp)
   11019:	87 03                	xchg   %eax,(%ebx)
   1101b:	41                   	inc    %ecx
   1101c:	0e                   	push   %cs
   1101d:	10 86 04 41 0e 14    	adc    %al,0x140e4104(%esi)
   11023:	83 05 43 0e 30 56 0e 	addl   $0xe,0x56300e43
   1102a:	3c 45                	cmp    $0x45,%al
   1102c:	0e                   	push   %cs
   1102d:	40                   	inc    %eax
   1102e:	48                   	dec    %eax
   1102f:	0e                   	push   %cs
   11030:	30 02                	xor    %al,(%edx)
   11032:	4f                   	dec    %edi
   11033:	0e                   	push   %cs
   11034:	3c 45                	cmp    $0x45,%al
   11036:	0e                   	push   %cs
   11037:	40                   	inc    %eax
   11038:	48                   	dec    %eax
   11039:	0e                   	push   %cs
   1103a:	30 02                	xor    %al,(%edx)
   1103c:	82 0a 0e             	orb    $0xe,(%edx)
   1103f:	14 41                	adc    $0x41,%al
   11041:	c3                   	ret    
   11042:	0e                   	push   %cs
   11043:	10 41 c6             	adc    %al,-0x3a(%ecx)
   11046:	0e                   	push   %cs
   11047:	0c 41                	or     $0x41,%al
   11049:	c7                   	(bad)  
   1104a:	0e                   	push   %cs
   1104b:	08 41 c5             	or     %al,-0x3b(%ecx)
   1104e:	0e                   	push   %cs
   1104f:	04 41                	add    $0x41,%al
   11051:	0b 00                	or     (%eax),%eax
   11053:	00 4c 00 00          	add    %cl,0x0(%eax,%eax,1)
   11057:	00 28                	add    %ch,(%eax)
   11059:	01 00                	add    %eax,(%eax)
   1105b:	00 e4                	add    %ah,%ah
   1105d:	8c ff                	mov    %?,%edi
   1105f:	ff 8e 00 00 00 00    	decl   0x0(%esi)
   11065:	41                   	inc    %ecx
   11066:	0e                   	push   %cs
   11067:	08 87 02 41 0e 0c    	or     %al,0xc0e4102(%edi)
   1106d:	86 03                	xchg   %al,(%ebx)
   1106f:	41                   	inc    %ecx
   11070:	0e                   	push   %cs
   11071:	10 83 04 02 4e 0a    	adc    %al,0xa4e0204(%ebx)
   11077:	c3                   	ret    
   11078:	0e                   	push   %cs
   11079:	0c 41                	or     $0x41,%al
   1107b:	c6                   	(bad)  
   1107c:	0e                   	push   %cs
   1107d:	08 41 c7             	or     %al,-0x39(%ecx)
   11080:	0e                   	push   %cs
   11081:	04 41                	add    $0x41,%al
   11083:	0b 43 0e             	or     0xe(%ebx),%eax
   11086:	14 41                	adc    $0x41,%al
   11088:	0e                   	push   %cs
   11089:	18 41 0e             	sbb    %al,0xe(%ecx)
   1108c:	1c 45                	sbb    $0x45,%al
   1108e:	0e                   	push   %cs
   1108f:	20 48 0e             	and    %cl,0xe(%eax)
   11092:	10 45 0e             	adc    %al,0xe(%ebp)
   11095:	14 41                	adc    $0x41,%al
   11097:	0e                   	push   %cs
   11098:	18 41 0e             	sbb    %al,0xe(%ecx)
   1109b:	1c 45                	sbb    $0x45,%al
   1109d:	0e                   	push   %cs
   1109e:	20 48 0e             	and    %cl,0xe(%eax)
   110a1:	10 00                	adc    %al,(%eax)
   110a3:	00 40 00             	add    %al,0x0(%eax)
   110a6:	00 00                	add    %al,(%eax)
   110a8:	78 01                	js     0x110ab
   110aa:	00 00                	add    %al,(%eax)
   110ac:	22 8d ff ff 8a 00    	and    0x8affff(%ebp),%cl
   110b2:	00 00                	add    %al,(%eax)
   110b4:	00 41 0e             	add    %al,0xe(%ecx)
   110b7:	08 87 02 41 0e 0c    	or     %al,0xc0e4102(%edi)
   110bd:	86 03                	xchg   %al,(%ebx)
   110bf:	41                   	inc    %ecx
   110c0:	0e                   	push   %cs
   110c1:	10 83 04 78 0e 1c    	adc    %al,0x1c0e7804(%ebx)
   110c7:	42                   	inc    %edx
   110c8:	0e                   	push   %cs
   110c9:	20 48 0e             	and    %cl,0xe(%eax)
   110cc:	10 61 0a             	adc    %ah,0xa(%ecx)
   110cf:	c3                   	ret    
   110d0:	0e                   	push   %cs
   110d1:	0c 41                	or     $0x41,%al
   110d3:	c6                   	(bad)  
   110d4:	0e                   	push   %cs
   110d5:	08 41 c7             	or     %al,-0x39(%ecx)
   110d8:	0e                   	push   %cs
   110d9:	04 41                	add    $0x41,%al
   110db:	0b 55 0e             	or     0xe(%ebp),%edx
   110de:	1c 42                	sbb    $0x42,%al
   110e0:	0e                   	push   %cs
   110e1:	20 48 0e             	and    %cl,0xe(%eax)
   110e4:	10 00                	adc    %al,(%eax)
   110e6:	00 00                	add    %al,(%eax)
   110e8:	18 00                	sbb    %al,(%eax)
   110ea:	00 00                	add    %al,(%eax)
   110ec:	bc 01 00 00 68       	mov    $0x68000001,%esp
   110f1:	8d                   	(bad)  
   110f2:	ff                   	(bad)  
   110f3:	ff 2e                	ljmp   *(%esi)
   110f5:	00 00                	add    %al,(%eax)
   110f7:	00 00                	add    %al,(%eax)
   110f9:	43                   	inc    %ebx
   110fa:	0e                   	push   %cs
   110fb:	1c 62                	sbb    $0x62,%al
   110fd:	0e                   	push   %cs
   110fe:	20 48 0e             	and    %cl,0xe(%eax)
   11101:	04 00                	add    $0x0,%al
   11103:	00 20                	add    %ah,(%eax)
   11105:	00 00                	add    %al,(%eax)
   11107:	00 d8                	add    %bl,%al
   11109:	01 00                	add    %eax,(%eax)
   1110b:	00 7a 8d             	add    %bh,-0x73(%edx)
   1110e:	ff                   	(bad)  
   1110f:	ff 46 00             	incl   0x0(%esi)
   11112:	00 00                	add    %al,(%eax)
   11114:	00 43 0e             	add    %al,0xe(%ebx)
   11117:	10 74 0a 0e          	adc    %dh,0xe(%edx,%ecx,1)
   1111b:	04 41                	add    $0x41,%al
   1111d:	0b 43 0e             	or     0xe(%ebx),%eax
   11120:	1c 41                	sbb    $0x41,%al
   11122:	0e                   	push   %cs
   11123:	20 48 0e             	and    %cl,0xe(%eax)
   11126:	10 00                	adc    %al,(%eax)
   11128:	28 00                	sub    %al,(%eax)
   1112a:	00 00                	add    %al,(%eax)
   1112c:	fc                   	cld    
   1112d:	01 00                	add    %eax,(%eax)
   1112f:	00 9c 8d ff ff 31 00 	add    %bl,0x31ffff(%ebp,%ecx,4)
   11136:	00 00                	add    %al,(%eax)
   11138:	00 43 0e             	add    %al,0xe(%ebx)
   1113b:	10 4c 0e 18          	adc    %cl,0x18(%esi,%ecx,1)
   1113f:	44                   	inc    %esp
   11140:	0e                   	push   %cs
   11141:	1c 41                	sbb    $0x41,%al
   11143:	0e                   	push   %cs
   11144:	20 48 0e             	and    %cl,0xe(%eax)
   11147:	10 47 0e             	adc    %al,0xe(%edi)
   1114a:	1c 42                	sbb    $0x42,%al
   1114c:	0e                   	push   %cs
   1114d:	20 48 0e             	and    %cl,0xe(%eax)
   11150:	10 43 0e             	adc    %al,0xe(%ebx)
   11153:	04 44                	add    $0x44,%al
   11155:	00 00                	add    %al,(%eax)
   11157:	00 28                	add    %ch,(%eax)
   11159:	02 00                	add    (%eax),%al
   1115b:	00 a1 8d ff ff 93    	add    %ah,-0x6c000073(%ecx)
   11161:	00 00                	add    %al,(%eax)
   11163:	00 00                	add    %al,(%eax)
   11165:	41                   	inc    %ecx
   11166:	0e                   	push   %cs
   11167:	08 86 02 41 0e 0c    	or     %al,0xc0e4102(%esi)
   1116d:	83 03 43             	addl   $0x43,(%ebx)
   11170:	0e                   	push   %cs
   11171:	10 64 0e 14          	adc    %ah,0x14(%esi,%ecx,1)
   11175:	45                   	inc    %ebp
   11176:	0e                   	push   %cs
   11177:	18 41 0e             	sbb    %al,0xe(%ecx)
   1117a:	1c 45                	sbb    $0x45,%al
   1117c:	0e                   	push   %cs
   1117d:	20 48 0e             	and    %cl,0xe(%eax)
   11180:	10 4a 0e             	adc    %cl,0xe(%edx)
   11183:	14 14                	adc    $0x14,%al
   11185:	00 00                	add    %al,(%eax)
   11187:	00 00                	add    %al,(%eax)
   11189:	00 00                	add    %al,(%eax)
   1118b:	00 01                	add    %al,(%ecx)
   1118d:	7a 52                	jp     0x111e1
   1118f:	00 01                	add    %al,(%ecx)
   11191:	7c 08                	jl     0x1119b
   11193:	01 1b                	add    %ebx,(%ebx)
   11195:	0c 04                	or     $0x4,%al
   11197:	04 88                	add    $0x88,%al
   11199:	01 00                	add    %eax,(%eax)
   1119b:	00 30                	add    %dh,(%eax)
   1119d:	00 00                	add    %al,(%eax)
   1119f:	00 1c 00             	add    %bl,(%eax,%eax,1)
   111a2:	00 00                	add    %al,(%eax)
   111a4:	23 8e ff ff 6d 00    	and    0x6dffff(%esi),%ecx
   111aa:	00 00                	add    %al,(%eax)
   111ac:	00 41 0e             	add    %al,0xe(%ecx)
   111af:	08 83 02 43 0e 1c    	or     %al,0x1c0e4302(%ebx)
   111b5:	48                   	dec    %eax
   111b6:	0e                   	push   %cs
   111b7:	20 48 0e             	and    %cl,0xe(%eax)
   111ba:	10 5e 0e             	adc    %bl,0xe(%esi)
   111bd:	1c 41                	sbb    $0x41,%al
   111bf:	0e                   	push   %cs
   111c0:	20 48 0e             	and    %cl,0xe(%eax)
   111c3:	10 48 0a             	adc    %cl,0xa(%eax)
   111c6:	0e                   	push   %cs
   111c7:	08 41 c3             	or     %al,-0x3d(%ecx)
   111ca:	0e                   	push   %cs
   111cb:	04 41                	add    $0x41,%al
   111cd:	0b 00                	or     (%eax),%eax
   111cf:	00 40 00             	add    %al,0x0(%eax)
   111d2:	00 00                	add    %al,(%eax)
   111d4:	50                   	push   %eax
   111d5:	00 00                	add    %al,(%eax)
   111d7:	00 5c 8e ff          	add    %bl,-0x1(%esi,%ecx,4)
   111db:	ff a1 00 00 00 00    	jmp    *0x0(%ecx)
   111e1:	41                   	inc    %ecx
   111e2:	0e                   	push   %cs
   111e3:	08 87 02 41 0e 0c    	or     %al,0xc0e4102(%edi)
   111e9:	86 03                	xchg   %al,(%ebx)
   111eb:	41                   	inc    %ecx
   111ec:	0e                   	push   %cs
   111ed:	10 83 04 4a 0e 1c    	adc    %al,0x1c0e4a04(%ebx)
   111f3:	44                   	inc    %esp
   111f4:	0e                   	push   %cs
   111f5:	20 48 0e             	and    %cl,0xe(%eax)
   111f8:	10 4b 0e             	adc    %cl,0xe(%ebx)
   111fb:	1c 41                	sbb    $0x41,%al
   111fd:	0e                   	push   %cs
   111fe:	20 55 0e             	and    %dl,0xe(%ebp)
   11201:	10 02                	adc    %al,(%edx)
   11203:	4c                   	dec    %esp
   11204:	0a c3                	or     %bl,%al
   11206:	0e                   	push   %cs
   11207:	0c 41                	or     $0x41,%al
   11209:	c6                   	(bad)  
   1120a:	0e                   	push   %cs
   1120b:	08 41 c7             	or     %al,-0x39(%ecx)
   1120e:	0e                   	push   %cs
   1120f:	04 41                	add    $0x41,%al
   11211:	0b 00                	or     (%eax),%eax
   11213:	00 38                	add    %bh,(%eax)
   11215:	00 00                	add    %al,(%eax)
   11217:	00 94 00 00 00 b9 8e 	add    %dl,-0x71470000(%eax,%eax,1)
   1121e:	ff                   	(bad)  
   1121f:	ff 68 00             	ljmp   *0x0(%eax)
   11222:	00 00                	add    %al,(%eax)
   11224:	00 41 0e             	add    %al,0xe(%ecx)
   11227:	08 83 02 43 0e 1c    	or     %al,0x1c0e4302(%ebx)
   1122d:	44                   	inc    %esp
   1122e:	0e                   	push   %cs
   1122f:	20 48 0e             	and    %cl,0xe(%eax)
   11232:	10 56 0e             	adc    %dl,0xe(%esi)
   11235:	1c 4b                	sbb    $0x4b,%al
   11237:	0e                   	push   %cs
   11238:	20 53 0e             	and    %dl,0xe(%ebx)
   1123b:	10 48 0a             	adc    %cl,0xa(%eax)
   1123e:	0e                   	push   %cs
   1123f:	08 41 c3             	or     %al,-0x3d(%ecx)
   11242:	0e                   	push   %cs
   11243:	04 41                	add    $0x41,%al
   11245:	0b 43 0e             	or     0xe(%ebx),%eax
   11248:	1c 41                	sbb    $0x41,%al
   1124a:	0e                   	push   %cs
   1124b:	20 48 0e             	and    %cl,0xe(%eax)
   1124e:	10 00                	adc    %al,(%eax)
   11250:	38 00                	cmp    %al,(%eax)
   11252:	00 00                	add    %al,(%eax)
   11254:	d0 00                	rolb   (%eax)
   11256:	00 00                	add    %al,(%eax)
   11258:	e5 8e                	in     $0x8e,%eax
   1125a:	ff                   	(bad)  
   1125b:	ff 68 00             	ljmp   *0x0(%eax)
   1125e:	00 00                	add    %al,(%eax)
   11260:	00 41 0e             	add    %al,0xe(%ecx)
   11263:	08 83 02 43 0e 1c    	or     %al,0x1c0e4302(%ebx)
   11269:	44                   	inc    %esp
   1126a:	0e                   	push   %cs
   1126b:	20 48 0e             	and    %cl,0xe(%eax)
   1126e:	10 56 0e             	adc    %dl,0xe(%esi)
   11271:	1c 4b                	sbb    $0x4b,%al
   11273:	0e                   	push   %cs
   11274:	20 53 0e             	and    %dl,0xe(%ebx)
   11277:	10 48 0a             	adc    %cl,0xa(%eax)
   1127a:	0e                   	push   %cs
   1127b:	08 41 c3             	or     %al,-0x3d(%ecx)
   1127e:	0e                   	push   %cs
   1127f:	04 41                	add    $0x41,%al
   11281:	0b 43 0e             	or     0xe(%ebx),%eax
   11284:	1c 41                	sbb    $0x41,%al
   11286:	0e                   	push   %cs
   11287:	20 48 0e             	and    %cl,0xe(%eax)
   1128a:	10 00                	adc    %al,(%eax)
   1128c:	44                   	inc    %esp
   1128d:	00 00                	add    %al,(%eax)
   1128f:	00 0c 01             	add    %cl,(%ecx,%eax,1)
   11292:	00 00                	add    %al,(%eax)
   11294:	11 8f ff ff 9c 00    	adc    %ecx,0x9cffff(%edi)
   1129a:	00 00                	add    %al,(%eax)
   1129c:	00 41 0e             	add    %al,0xe(%ecx)
   1129f:	08 86 02 41 0e 0c    	or     %al,0xc0e4102(%esi)
   112a5:	83 03 43             	addl   $0x43,(%ebx)
   112a8:	0e                   	push   %cs
   112a9:	1c 48                	sbb    $0x48,%al
   112ab:	0e                   	push   %cs
   112ac:	20 48 0e             	and    %cl,0xe(%eax)
   112af:	10 02                	adc    %al,(%edx)
   112b1:	59                   	pop    %ecx
   112b2:	0e                   	push   %cs
   112b3:	1c 41                	sbb    $0x41,%al
   112b5:	0e                   	push   %cs
   112b6:	20 48 0e             	and    %cl,0xe(%eax)
   112b9:	10 48 0a             	adc    %cl,0xa(%eax)
   112bc:	0e                   	push   %cs
   112bd:	0c 41                	or     $0x41,%al
   112bf:	c3                   	ret    
   112c0:	0e                   	push   %cs
   112c1:	08 41 c6             	or     %al,-0x3a(%ecx)
   112c4:	0e                   	push   %cs
   112c5:	04 41                	add    $0x41,%al
   112c7:	0b 43 0e             	or     0xe(%ebx),%eax
   112ca:	1c 41                	sbb    $0x41,%al
   112cc:	0e                   	push   %cs
   112cd:	20 48 0e             	and    %cl,0xe(%eax)
   112d0:	10 00                	adc    %al,(%eax)
   112d2:	00 00                	add    %al,(%eax)
   112d4:	30 00                	xor    %al,(%eax)
   112d6:	00 00                	add    %al,(%eax)
   112d8:	54                   	push   %esp
   112d9:	01 00                	add    %eax,(%eax)
   112db:	00 65 8f             	add    %ah,-0x71(%ebp)
   112de:	ff                   	(bad)  
   112df:	ff 6f 00             	ljmp   *0x0(%edi)
   112e2:	00 00                	add    %al,(%eax)
   112e4:	00 43 0e             	add    %al,0xe(%ebx)
   112e7:	1c 44                	sbb    $0x44,%al
   112e9:	0e                   	push   %cs
   112ea:	20 48 0e             	and    %cl,0xe(%eax)
   112ed:	10 74 0e 1c          	adc    %dh,0x1c(%esi,%ecx,1)
   112f1:	41                   	inc    %ecx
   112f2:	0e                   	push   %cs
   112f3:	20 48 0e             	and    %cl,0xe(%eax)
   112f6:	10 48 0a             	adc    %cl,0xa(%eax)
   112f9:	0e                   	push   %cs
   112fa:	04 41                	add    $0x41,%al
   112fc:	0b 43 0e             	or     0xe(%ebx),%eax
   112ff:	1c 41                	sbb    $0x41,%al
   11301:	0e                   	push   %cs
   11302:	20 48 0e             	and    %cl,0xe(%eax)
   11305:	10 00                	adc    %al,(%eax)
   11307:	00 58 00             	add    %bl,0x0(%eax)
   1130a:	00 00                	add    %al,(%eax)
   1130c:	88 01                	mov    %al,(%ecx)
   1130e:	00 00                	add    %al,(%eax)
   11310:	a0 8f ff ff d0       	mov    0xd0ffff8f,%al
   11315:	01 00                	add    %eax,(%eax)
   11317:	00 00                	add    %al,(%eax)
   11319:	41                   	inc    %ecx
   1131a:	0e                   	push   %cs
   1131b:	08 85 02 41 0e 0c    	or     %al,0xc0e4102(%ebp)
   11321:	87 03                	xchg   %eax,(%ebx)
   11323:	41                   	inc    %ecx
   11324:	0e                   	push   %cs
   11325:	10 86 04 41 0e 14    	adc    %al,0x140e4104(%esi)
   1132b:	83 05 43 0e 30 02 aa 	addl   $0xffffffaa,0x2300e43
   11332:	0e                   	push   %cs
   11333:	3c 41                	cmp    $0x41,%al
   11335:	0e                   	push   %cs
   11336:	40                   	inc    %eax
   11337:	5e                   	pop    %esi
   11338:	0e                   	push   %cs
   11339:	30 02                	xor    %al,(%edx)
   1133b:	a1 0e 34 41 0e       	mov    0xe41340e,%eax
   11340:	38 41 0e             	cmp    %al,0xe(%ecx)
   11343:	3c 41                	cmp    $0x41,%al
   11345:	0e                   	push   %cs
   11346:	40                   	inc    %eax
   11347:	48                   	dec    %eax
   11348:	0e                   	push   %cs
   11349:	30 02                	xor    %al,(%edx)
   1134b:	4a                   	dec    %edx
   1134c:	0a 0e                	or     (%esi),%cl
   1134e:	14 41                	adc    $0x41,%al
   11350:	c3                   	ret    
   11351:	0e                   	push   %cs
   11352:	10 41 c6             	adc    %al,-0x3a(%ecx)
   11355:	0e                   	push   %cs
   11356:	0c 41                	or     $0x41,%al
   11358:	c7                   	(bad)  
   11359:	0e                   	push   %cs
   1135a:	08 41 c5             	or     %al,-0x3b(%ecx)
   1135d:	0e                   	push   %cs
   1135e:	04 41                	add    $0x41,%al
   11360:	0b 00                	or     (%eax),%eax
   11362:	00 00                	add    %al,(%eax)
   11364:	1c 00                	sbb    $0x0,%al
   11366:	00 00                	add    %al,(%eax)
   11368:	e4 01                	in     $0x1,%al
   1136a:	00 00                	add    %al,(%eax)
   1136c:	14 91                	adc    $0x91,%al
   1136e:	ff                   	(bad)  
   1136f:	ff 19                	lcall  *(%ecx)
   11371:	00 00                	add    %al,(%eax)
   11373:	00 00                	add    %al,(%eax)
   11375:	43                   	inc    %ebx
   11376:	0e                   	push   %cs
   11377:	14 44                	adc    $0x44,%al
   11379:	0e                   	push   %cs
   1137a:	18 45 0e             	sbb    %al,0xe(%ebp)
   1137d:	1c 44                	sbb    $0x44,%al
   1137f:	0e                   	push   %cs
   11380:	20 48 0e             	and    %cl,0xe(%eax)
   11383:	04 34                	add    $0x34,%al
   11385:	00 00                	add    %al,(%eax)
   11387:	00 04 02             	add    %al,(%edx,%eax,1)
   1138a:	00 00                	add    %al,(%eax)
   1138c:	0d 91 ff ff 89       	or     $0x89ffff91,%eax
   11391:	00 00                	add    %al,(%eax)
   11393:	00 00                	add    %al,(%eax)
   11395:	41                   	inc    %ecx
   11396:	0e                   	push   %cs
   11397:	08 83 02 43 0e 10    	or     %al,0x100e4302(%ebx)
   1139d:	02 4e 0a             	add    0xa(%esi),%cl
   113a0:	0e                   	push   %cs
   113a1:	08 41 c3             	or     %al,-0x3d(%ecx)
   113a4:	0e                   	push   %cs
   113a5:	04 41                	add    $0x41,%al
   113a7:	0b 43 0e             	or     0xe(%ebx),%eax
   113aa:	1c 45                	sbb    $0x45,%al
   113ac:	0e                   	push   %cs
   113ad:	20 48 0e             	and    %cl,0xe(%eax)
   113b0:	10 45 0e             	adc    %al,0xe(%ebp)
   113b3:	1c 43                	sbb    $0x43,%al
   113b5:	0e                   	push   %cs
   113b6:	20 48 0e             	and    %cl,0xe(%eax)
   113b9:	10 00                	adc    %al,(%eax)
   113bb:	00 14 00             	add    %dl,(%eax,%eax,1)
   113be:	00 00                	add    %al,(%eax)
   113c0:	00 00                	add    %al,(%eax)
   113c2:	00 00                	add    %al,(%eax)
   113c4:	01 7a 52             	add    %edi,0x52(%edx)
   113c7:	00 01                	add    %al,(%ecx)
   113c9:	7c 08                	jl     0x113d3
   113cb:	01 1b                	add    %ebx,(%ebx)
   113cd:	0c 04                	or     $0x4,%al
   113cf:	04 88                	add    $0x88,%al
   113d1:	01 00                	add    %eax,(%eax)
   113d3:	00 1c 00             	add    %bl,(%eax,%eax,1)
   113d6:	00 00                	add    %al,(%eax)
   113d8:	1c 00                	sbb    $0x0,%al
   113da:	00 00                	add    %al,(%eax)
   113dc:	46                   	inc    %esi
   113dd:	91                   	xchg   %eax,%ecx
   113de:	ff                   	(bad)  
   113df:	ff b5 00 00 00 00    	pushl  0x0(%ebp)
   113e5:	41                   	inc    %ecx
   113e6:	0e                   	push   %cs
   113e7:	08 83 02 02 5f 0a    	or     %al,0xa5f0202(%ebx)
   113ed:	c3                   	ret    
   113ee:	0e                   	push   %cs
   113ef:	04 41                	add    $0x41,%al
   113f1:	0b 00                	or     (%eax),%eax
   113f3:	00 80 00 00 00 3c    	add    %al,0x3c000000(%eax)
   113f9:	00 00                	add    %al,(%eax)
   113fb:	00 db                	add    %bl,%bl
   113fd:	91                   	xchg   %eax,%ecx
   113fe:	ff                   	(bad)  
   113ff:	ff 48 01             	decl   0x1(%eax)
   11402:	00 00                	add    %al,(%eax)
   11404:	00 41 0e             	add    %al,0xe(%ecx)
   11407:	08 87 02 41 0e 0c    	or     %al,0xc0e4102(%edi)
   1140d:	86 03                	xchg   %al,(%ebx)
   1140f:	41                   	inc    %ecx
   11410:	0e                   	push   %cs
   11411:	10 83 04 75 0a c3    	adc    %al,-0x3cf58afc(%ebx)
   11417:	0e                   	push   %cs
   11418:	0c 41                	or     $0x41,%al
   1141a:	c6                   	(bad)  
   1141b:	0e                   	push   %cs
   1141c:	08 41 c7             	or     %al,-0x39(%ecx)
   1141f:	0e                   	push   %cs
   11420:	04 41                	add    $0x41,%al
   11422:	0b 43 0e             	or     0xe(%ebx),%eax
   11425:	18 41 0e             	sbb    %al,0xe(%ecx)
   11428:	1c 44                	sbb    $0x44,%al
   1142a:	0e                   	push   %cs
   1142b:	20 4b 0e             	and    %cl,0xe(%ebx)
   1142e:	10 52 0e             	adc    %dl,0xe(%edx)
   11431:	14 41                	adc    $0x41,%al
   11433:	0e                   	push   %cs
   11434:	18 44 0e 1c          	sbb    %al,0x1c(%esi,%ecx,1)
   11438:	41                   	inc    %ecx
   11439:	0e                   	push   %cs
   1143a:	20 4a 0e             	and    %cl,0xe(%edx)
   1143d:	10 02                	adc    %al,(%edx)
   1143f:	45                   	inc    %ebp
   11440:	0e                   	push   %cs
   11441:	14 44                	adc    $0x44,%al
   11443:	0e                   	push   %cs
   11444:	18 45 0e             	sbb    %al,0xe(%ebp)
   11447:	1c 42                	sbb    $0x42,%al
   11449:	0e                   	push   %cs
   1144a:	20 4a 0e             	and    %cl,0xe(%edx)
   1144d:	10 46 0e             	adc    %al,0xe(%esi)
   11450:	14 44                	adc    $0x44,%al
   11452:	0e                   	push   %cs
   11453:	18 44 0e 1c          	sbb    %al,0x1c(%esi,%ecx,1)
   11457:	45                   	inc    %ebp
   11458:	0e                   	push   %cs
   11459:	20 4a 0e             	and    %cl,0xe(%edx)
   1145c:	10 46 0e             	adc    %al,0xe(%esi)
   1145f:	14 44                	adc    $0x44,%al
   11461:	0e                   	push   %cs
   11462:	18 41 0e             	sbb    %al,0xe(%ecx)
   11465:	1c 41                	sbb    $0x41,%al
   11467:	0e                   	push   %cs
   11468:	20 4a 0e             	and    %cl,0xe(%edx)
   1146b:	10 48 0e             	adc    %cl,0xe(%eax)
   1146e:	18 44 0e 1c          	sbb    %al,0x1c(%esi,%ecx,1)
   11472:	45                   	inc    %ebp
   11473:	0e                   	push   %cs
   11474:	20 48 0e             	and    %cl,0xe(%eax)
   11477:	10 74 00 00          	adc    %dh,0x0(%eax,%eax,1)
   1147b:	00 c0                	add    %al,%al
   1147d:	00 00                	add    %al,(%eax)
   1147f:	00 9f 92 ff ff 01    	add    %bl,0x1ffff92(%edi)
   11485:	01 00                	add    %eax,(%eax)
   11487:	00 00                	add    %al,(%eax)
   11489:	41                   	inc    %ecx
   1148a:	0e                   	push   %cs
   1148b:	08 86 02 41 0e 0c    	or     %al,0xc0e4102(%esi)
   11491:	83 03 43             	addl   $0x43,(%ebx)
   11494:	0e                   	push   %cs
   11495:	10 02                	adc    %al,(%edx)
   11497:	47                   	inc    %edi
   11498:	0e                   	push   %cs
   11499:	14 41                	adc    $0x41,%al
   1149b:	0e                   	push   %cs
   1149c:	18 44 0e 1c          	sbb    %al,0x1c(%esi,%ecx,1)
   114a0:	41                   	inc    %ecx
   114a1:	0e                   	push   %cs
   114a2:	20 48 0e             	and    %cl,0xe(%eax)
   114a5:	10 43 0a             	adc    %al,0xa(%ebx)
   114a8:	0e                   	push   %cs
   114a9:	0c 41                	or     $0x41,%al
   114ab:	c3                   	ret    
   114ac:	0e                   	push   %cs
   114ad:	08 41 c6             	or     %al,-0x3a(%ecx)
   114b0:	0e                   	push   %cs
   114b1:	04 41                	add    $0x41,%al
   114b3:	0b 60 0e             	or     0xe(%eax),%esp
   114b6:	14 44                	adc    $0x44,%al
   114b8:	0e                   	push   %cs
   114b9:	18 41 0e             	sbb    %al,0xe(%ecx)
   114bc:	1c 41                	sbb    $0x41,%al
   114be:	0e                   	push   %cs
   114bf:	20 48 0e             	and    %cl,0xe(%eax)
   114c2:	10 43 0e             	adc    %al,0xe(%ebx)
   114c5:	14 44                	adc    $0x44,%al
   114c7:	0e                   	push   %cs
   114c8:	18 45 0e             	sbb    %al,0xe(%ebp)
   114cb:	1c 42                	sbb    $0x42,%al
   114cd:	0e                   	push   %cs
   114ce:	20 48 0e             	and    %cl,0xe(%eax)
   114d1:	10 43 0e             	adc    %al,0xe(%ebx)
   114d4:	14 44                	adc    $0x44,%al
   114d6:	0e                   	push   %cs
   114d7:	18 44 0e 1c          	sbb    %al,0x1c(%esi,%ecx,1)
   114db:	45                   	inc    %ebp
   114dc:	0e                   	push   %cs
   114dd:	20 48 0e             	and    %cl,0xe(%eax)
   114e0:	10 45 0e             	adc    %al,0xe(%ebp)
   114e3:	18 44 0e 1c          	sbb    %al,0x1c(%esi,%ecx,1)
   114e7:	45                   	inc    %ebp
   114e8:	0e                   	push   %cs
   114e9:	20 48 0e             	and    %cl,0xe(%eax)
   114ec:	10 00                	adc    %al,(%eax)
   114ee:	00 00                	add    %al,(%eax)
   114f0:	14 00                	adc    $0x0,%al
   114f2:	00 00                	add    %al,(%eax)
   114f4:	00 00                	add    %al,(%eax)
   114f6:	00 00                	add    %al,(%eax)
   114f8:	01 7a 52             	add    %edi,0x52(%edx)
   114fb:	00 01                	add    %al,(%ecx)
   114fd:	7c 08                	jl     0x11507
   114ff:	01 1b                	add    %ebx,(%ebx)
   11501:	0c 04                	or     $0x4,%al
   11503:	04 88                	add    $0x88,%al
   11505:	01 00                	add    %eax,(%eax)
   11507:	00 68 00             	add    %ch,0x0(%eax)
   1150a:	00 00                	add    %al,(%eax)
   1150c:	1c 00                	sbb    $0x0,%al
   1150e:	00 00                	add    %al,(%eax)
   11510:	10 93 ff ff da 00    	adc    %dl,0xdaffff(%ebx)
   11516:	00 00                	add    %al,(%eax)
   11518:	00 41 0e             	add    %al,0xe(%ecx)
   1151b:	08 85 02 41 0e 0c    	or     %al,0xc0e4102(%ebp)
   11521:	87 03                	xchg   %eax,(%ebx)
   11523:	41                   	inc    %ecx
   11524:	0e                   	push   %cs
   11525:	10 86 04 41 0e 14    	adc    %al,0x140e4104(%esi)
   1152b:	83 05 43 0e 20 4f 0e 	addl   $0xe,0x4f200e43
   11532:	2c 41                	sub    $0x41,%al
   11534:	0e                   	push   %cs
   11535:	30 48 0e             	xor    %cl,0xe(%eax)
   11538:	20 7b 0e             	and    %bh,0xe(%ebx)
   1153b:	28 57 0e             	sub    %dl,0xe(%edi)
   1153e:	2c 41                	sub    $0x41,%al
   11540:	0e                   	push   %cs
   11541:	30 4a 0e             	xor    %cl,0xe(%edx)
   11544:	20 68 0e             	and    %ch,0xe(%eax)
   11547:	2c 41                	sub    $0x41,%al
   11549:	0e                   	push   %cs
   1154a:	30 57 0e             	xor    %dl,0xe(%edi)
   1154d:	14 41                	adc    $0x41,%al
   1154f:	c3                   	ret    
   11550:	0e                   	push   %cs
   11551:	10 41 c6             	adc    %al,-0x3a(%ecx)
   11554:	0e                   	push   %cs
   11555:	0c 41                	or     $0x41,%al
   11557:	c7                   	(bad)  
   11558:	0e                   	push   %cs
   11559:	08 41 c5             	or     %al,-0x3b(%ecx)
   1155c:	0e                   	push   %cs
   1155d:	04 41                	add    $0x41,%al
   1155f:	0e                   	push   %cs
   11560:	20 83 05 85 02 86    	and    %al,-0x79fd7afb(%ebx)
   11566:	04 87                	add    $0x87,%al
   11568:	03 4a 0e             	add    0xe(%edx),%ecx
   1156b:	2c 45                	sub    $0x45,%al
   1156d:	0e                   	push   %cs
   1156e:	30 48 0e             	xor    %cl,0xe(%eax)
   11571:	20 00                	and    %al,(%eax)
   11573:	00 ec                	add    %ch,%ah
   11575:	00 00                	add    %al,(%eax)
   11577:	00 88 00 00 00 7e    	add    %cl,0x7e000000(%eax)
   1157d:	93                   	xchg   %eax,%ebx
   1157e:	ff                   	(bad)  
   1157f:	ff a4 03 00 00 00 41 	jmp    *0x41000000(%ebx,%eax,1)
   11586:	0e                   	push   %cs
   11587:	08 85 02 41 0e 0c    	or     %al,0xc0e4102(%ebp)
   1158d:	87 03                	xchg   %eax,(%ebx)
   1158f:	41                   	inc    %ecx
   11590:	0e                   	push   %cs
   11591:	10 86 04 41 0e 14    	adc    %al,0x140e4104(%esi)
   11597:	83 05 43 0e 30 75 0a 	addl   $0xa,0x75300e43
   1159e:	0e                   	push   %cs
   1159f:	14 41                	adc    $0x41,%al
   115a1:	c3                   	ret    
   115a2:	0e                   	push   %cs
   115a3:	10 41 c6             	adc    %al,-0x3a(%ecx)
   115a6:	0e                   	push   %cs
   115a7:	0c 41                	or     $0x41,%al
   115a9:	c7                   	(bad)  
   115aa:	0e                   	push   %cs
   115ab:	08 41 c5             	or     %al,-0x3b(%ecx)
   115ae:	0e                   	push   %cs
   115af:	04 41                	add    $0x41,%al
   115b1:	0b 43 0e             	or     0xe(%ebx),%eax
   115b4:	3c 45                	cmp    $0x45,%al
   115b6:	0e                   	push   %cs
   115b7:	40                   	inc    %eax
   115b8:	48                   	dec    %eax
   115b9:	0e                   	push   %cs
   115ba:	30 45 0e             	xor    %al,0xe(%ebp)
   115bd:	3c 45                	cmp    $0x45,%al
   115bf:	0e                   	push   %cs
   115c0:	40                   	inc    %eax
   115c1:	48                   	dec    %eax
   115c2:	0e                   	push   %cs
   115c3:	30 45 0e             	xor    %al,0xe(%ebp)
   115c6:	3c 45                	cmp    $0x45,%al
   115c8:	0e                   	push   %cs
   115c9:	40                   	inc    %eax
   115ca:	4c                   	dec    %esp
   115cb:	0e                   	push   %cs
   115cc:	30 02                	xor    %al,(%edx)
   115ce:	48                   	dec    %eax
   115cf:	0e                   	push   %cs
   115d0:	38 45 0e             	cmp    %al,0xe(%ebp)
   115d3:	3c 45                	cmp    $0x45,%al
   115d5:	0e                   	push   %cs
   115d6:	40                   	inc    %eax
   115d7:	4c                   	dec    %esp
   115d8:	0e                   	push   %cs
   115d9:	30 55 0e             	xor    %dl,0xe(%ebp)
   115dc:	3c 45                	cmp    $0x45,%al
   115de:	0e                   	push   %cs
   115df:	40                   	inc    %eax
   115e0:	4c                   	dec    %esp
   115e1:	0e                   	push   %cs
   115e2:	30 02                	xor    %al,(%edx)
   115e4:	45                   	inc    %ebp
   115e5:	0e                   	push   %cs
   115e6:	3c 45                	cmp    $0x45,%al
   115e8:	0e                   	push   %cs
   115e9:	40                   	inc    %eax
   115ea:	4a                   	dec    %edx
   115eb:	0e                   	push   %cs
   115ec:	30 71 0e             	xor    %dh,0xe(%ecx)
   115ef:	38 44 0e 3c          	cmp    %al,0x3c(%esi,%ecx,1)
   115f3:	45                   	inc    %ebp
   115f4:	0e                   	push   %cs
   115f5:	40                   	inc    %eax
   115f6:	4a                   	dec    %edx
   115f7:	0e                   	push   %cs
   115f8:	30 77 0e             	xor    %dh,0xe(%edi)
   115fb:	3c 41                	cmp    $0x41,%al
   115fd:	0e                   	push   %cs
   115fe:	40                   	inc    %eax
   115ff:	48                   	dec    %eax
   11600:	0e                   	push   %cs
   11601:	38 41 0e             	cmp    %al,0xe(%ecx)
   11604:	3c 45                	cmp    $0x45,%al
   11606:	0e                   	push   %cs
   11607:	40                   	inc    %eax
   11608:	4a                   	dec    %edx
   11609:	0e                   	push   %cs
   1160a:	30 55 0e             	xor    %dl,0xe(%ebp)
   1160d:	3c 45                	cmp    $0x45,%al
   1160f:	0e                   	push   %cs
   11610:	40                   	inc    %eax
   11611:	4c                   	dec    %esp
   11612:	0e                   	push   %cs
   11613:	30 02                	xor    %al,(%edx)
   11615:	49                   	dec    %ecx
   11616:	0e                   	push   %cs
   11617:	3c 45                	cmp    $0x45,%al
   11619:	0e                   	push   %cs
   1161a:	40                   	inc    %eax
   1161b:	4a                   	dec    %edx
   1161c:	0e                   	push   %cs
   1161d:	30 5f 0e             	xor    %bl,0xe(%edi)
   11620:	3c 41                	cmp    $0x41,%al
   11622:	0e                   	push   %cs
   11623:	40                   	inc    %eax
   11624:	48                   	dec    %eax
   11625:	0e                   	push   %cs
   11626:	30 4b 0e             	xor    %cl,0xe(%ebx)
   11629:	38 41 0e             	cmp    %al,0xe(%ecx)
   1162c:	3c 45                	cmp    $0x45,%al
   1162e:	0e                   	push   %cs
   1162f:	40                   	inc    %eax
   11630:	4a                   	dec    %edx
   11631:	0e                   	push   %cs
   11632:	30 52 0e             	xor    %dl,0xe(%edx)
   11635:	3c 45                	cmp    $0x45,%al
   11637:	0e                   	push   %cs
   11638:	40                   	inc    %eax
   11639:	4a                   	dec    %edx
   1163a:	0e                   	push   %cs
   1163b:	30 79 0e             	xor    %bh,0xe(%ecx)
   1163e:	3c 41                	cmp    $0x41,%al
   11640:	0e                   	push   %cs
   11641:	40                   	inc    %eax
   11642:	48                   	dec    %eax
   11643:	0e                   	push   %cs
   11644:	30 54 0e 38          	xor    %dl,0x38(%esi,%ecx,1)
   11648:	44                   	inc    %esp
   11649:	0e                   	push   %cs
   1164a:	3c 45                	cmp    $0x45,%al
   1164c:	0e                   	push   %cs
   1164d:	40                   	inc    %eax
   1164e:	4c                   	dec    %esp
   1164f:	0e                   	push   %cs
   11650:	30 62 0e             	xor    %ah,0xe(%edx)
   11653:	3c 44                	cmp    $0x44,%al
   11655:	0e                   	push   %cs
   11656:	40                   	inc    %eax
   11657:	48                   	dec    %eax
   11658:	0e                   	push   %cs
   11659:	30 63 0e             	xor    %ah,0xe(%ebx)
   1165c:	3c 41                	cmp    $0x41,%al
   1165e:	0e                   	push   %cs
   1165f:	40                   	inc    %eax
   11660:	48                   	dec    %eax
   11661:	0e                   	push   %cs
   11662:	30 00                	xor    %al,(%eax)
   11664:	40                   	inc    %eax
   11665:	00 00                	add    %al,(%eax)
   11667:	00 78 01             	add    %bh,0x1(%eax)
   1166a:	00 00                	add    %al,(%eax)
   1166c:	32 96 ff ff 56 00    	xor    0x56ffff(%esi),%dl
   11672:	00 00                	add    %al,(%eax)
   11674:	00 41 0e             	add    %al,0xe(%ecx)
   11677:	08 85 02 41 0e 0c    	or     %al,0xc0e4102(%ebp)
   1167d:	87 03                	xchg   %eax,(%ebx)
   1167f:	41                   	inc    %ecx
   11680:	0e                   	push   %cs
   11681:	10 86 04 41 0e 14    	adc    %al,0x140e4104(%esi)
   11687:	83 05 43 0e 20 62 0e 	addl   $0xe,0x62200e43
   1168e:	2c 41                	sub    $0x41,%al
   11690:	0e                   	push   %cs
   11691:	30 48 0e             	xor    %cl,0xe(%eax)
   11694:	20 5f 0e             	and    %bl,0xe(%edi)
   11697:	14 41                	adc    $0x41,%al
   11699:	c3                   	ret    
   1169a:	0e                   	push   %cs
   1169b:	10 41 c6             	adc    %al,-0x3a(%ecx)
   1169e:	0e                   	push   %cs
   1169f:	0c 41                	or     $0x41,%al
   116a1:	c7                   	(bad)  
   116a2:	0e                   	push   %cs
   116a3:	08 41 c5             	or     %al,-0x3b(%ecx)
   116a6:	0e                   	push   %cs
   116a7:	04 14                	add    $0x14,%al
   116a9:	00 00                	add    %al,(%eax)
   116ab:	00 bc 01 00 00 44 96 	add    %bh,-0x69bc0000(%ecx,%eax,1)
   116b2:	ff                   	(bad)  
   116b3:	ff 19                	lcall  *(%ecx)
   116b5:	00 00                	add    %al,(%eax)
   116b7:	00 00                	add    %al,(%eax)
   116b9:	43                   	inc    %ebx
   116ba:	0e                   	push   %cs
   116bb:	10 55 0e             	adc    %dl,0xe(%ebp)
   116be:	04 00                	add    $0x0,%al
   116c0:	14 00                	adc    $0x0,%al
   116c2:	00 00                	add    %al,(%eax)
   116c4:	d4 01                	aam    $0x1
   116c6:	00 00                	add    %al,(%eax)
   116c8:	45                   	inc    %ebp
   116c9:	96                   	xchg   %eax,%esi
   116ca:	ff                   	(bad)  
   116cb:	ff 19                	lcall  *(%ecx)
   116cd:	00 00                	add    %al,(%eax)
   116cf:	00 00                	add    %al,(%eax)
   116d1:	43                   	inc    %ebx
   116d2:	0e                   	push   %cs
   116d3:	10 55 0e             	adc    %dl,0xe(%ebp)
   116d6:	04 00                	add    $0x0,%al
   116d8:	60                   	pusha  
   116d9:	00 00                	add    %al,(%eax)
   116db:	00 ec                	add    %ch,%ah
   116dd:	01 00                	add    %eax,(%eax)
   116df:	00 46 96             	add    %al,-0x6a(%esi)
   116e2:	ff                   	(bad)  
   116e3:	ff f5                	push   %ebp
   116e5:	00 00                	add    %al,(%eax)
   116e7:	00 00                	add    %al,(%eax)
   116e9:	41                   	inc    %ecx
   116ea:	0e                   	push   %cs
   116eb:	08 86 02 41 0e 0c    	or     %al,0xc0e4102(%esi)
   116f1:	83 03 43             	addl   $0x43,(%ebx)
   116f4:	0e                   	push   %cs
   116f5:	10 55 0e             	adc    %dl,0xe(%ebp)
   116f8:	1c 41                	sbb    $0x41,%al
   116fa:	0e                   	push   %cs
   116fb:	20 48 0e             	and    %cl,0xe(%eax)
   116fe:	10 69 0a             	adc    %ch,0xa(%ecx)
   11701:	0e                   	push   %cs
   11702:	0c 41                	or     $0x41,%al
   11704:	c3                   	ret    
   11705:	0e                   	push   %cs
   11706:	08 41 c6             	or     %al,-0x3a(%ecx)
   11709:	0e                   	push   %cs
   1170a:	04 41                	add    $0x41,%al
   1170c:	0b 43 0e             	or     0xe(%ebx),%eax
   1170f:	1c 45                	sbb    $0x45,%al
   11711:	0e                   	push   %cs
   11712:	20 48 0e             	and    %cl,0xe(%eax)
   11715:	10 45 0e             	adc    %al,0xe(%ebp)
   11718:	1c 44                	sbb    $0x44,%al
   1171a:	0e                   	push   %cs
   1171b:	20 50 0e             	and    %dl,0xe(%eax)
   1171e:	10 48 0e             	adc    %cl,0xe(%eax)
   11721:	1c 43                	sbb    $0x43,%al
   11723:	0e                   	push   %cs
   11724:	20 56 0e             	and    %dl,0xe(%esi)
   11727:	10 5a 0e             	adc    %bl,0xe(%edx)
   1172a:	1c 41                	sbb    $0x41,%al
   1172c:	0e                   	push   %cs
   1172d:	20 50 0e             	and    %dl,0xe(%eax)
   11730:	10 60 0e             	adc    %ah,0xe(%eax)
   11733:	1c 41                	sbb    $0x41,%al
   11735:	0e                   	push   %cs
   11736:	20 48 0e             	and    %cl,0xe(%eax)
   11739:	10 00                	adc    %al,(%eax)
   1173b:	00 64 00 00          	add    %ah,0x0(%eax,%eax,1)
   1173f:	00 50 02             	add    %dl,0x2(%eax)
   11742:	00 00                	add    %al,(%eax)
   11744:	d7                   	xlat   %ds:(%ebx)
   11745:	96                   	xchg   %eax,%esi
   11746:	ff                   	(bad)  
   11747:	ff 16                	call   *(%esi)
   11749:	01 00                	add    %eax,(%eax)
   1174b:	00 00                	add    %al,(%eax)
   1174d:	41                   	inc    %ecx
   1174e:	0e                   	push   %cs
   1174f:	08 85 02 41 0e 0c    	or     %al,0xc0e4102(%ebp)
   11755:	87 03                	xchg   %eax,(%ebx)
   11757:	41                   	inc    %ecx
   11758:	0e                   	push   %cs
   11759:	10 86 04 41 0e 14    	adc    %al,0x140e4104(%esi)
   1175f:	83 05 43 0e 20 77 0e 	addl   $0xe,0x77200e43
   11766:	2c 41                	sub    $0x41,%al
   11768:	0e                   	push   %cs
   11769:	30 48 0e             	xor    %cl,0xe(%eax)
   1176c:	20 61 0e             	and    %ah,0xe(%ecx)
   1176f:	2c 41                	sub    $0x41,%al
   11771:	0e                   	push   %cs
   11772:	30 48 0e             	xor    %cl,0xe(%eax)
   11775:	20 02                	and    %al,(%edx)
   11777:	52                   	push   %edx
   11778:	0e                   	push   %cs
   11779:	24 45                	and    $0x45,%al
   1177b:	0e                   	push   %cs
   1177c:	28 44 0e 2c          	sub    %al,0x2c(%esi,%ecx,1)
   11780:	45                   	inc    %ebp
   11781:	0e                   	push   %cs
   11782:	30 4b 0e             	xor    %cl,0xe(%ebx)
   11785:	20 47 0e             	and    %al,0xe(%edi)
   11788:	2c 45                	sub    $0x45,%al
   1178a:	0e                   	push   %cs
   1178b:	30 48 0e             	xor    %cl,0xe(%eax)
   1178e:	20 61 0e             	and    %ah,0xe(%ecx)
   11791:	14 41                	adc    $0x41,%al
   11793:	c3                   	ret    
   11794:	0e                   	push   %cs
   11795:	10 41 c6             	adc    %al,-0x3a(%ecx)
   11798:	0e                   	push   %cs
   11799:	0c 41                	or     $0x41,%al
   1179b:	c7                   	(bad)  
   1179c:	0e                   	push   %cs
   1179d:	08 41 c5             	or     %al,-0x3b(%ecx)
   117a0:	0e                   	push   %cs
   117a1:	04 00                	add    $0x0,%al
   117a3:	00 20                	add    %ah,(%eax)
   117a5:	00 00                	add    %al,(%eax)
   117a7:	00 b8 02 00 00 85    	add    %bh,-0x7afffffe(%eax)
   117ad:	97                   	xchg   %eax,%edi
   117ae:	ff                   	(bad)  
   117af:	ff 47 00             	incl   0x0(%edi)
   117b2:	00 00                	add    %al,(%eax)
   117b4:	00 41 0e             	add    %al,0xe(%ecx)
   117b7:	08 83 02 43 0e 10    	or     %al,0x100e4302(%ebx)
   117bd:	74 0a                	je     0x117c9
   117bf:	0e                   	push   %cs
   117c0:	08 41 c3             	or     %al,-0x3d(%ecx)
   117c3:	0e                   	push   %cs
   117c4:	04 41                	add    $0x41,%al
   117c6:	0b 00                	or     (%eax),%eax
   117c8:	7c 00                	jl     0x117ca
   117ca:	00 00                	add    %al,(%eax)
   117cc:	dc 02                	faddl  (%edx)
   117ce:	00 00                	add    %al,(%eax)
   117d0:	a8 97                	test   $0x97,%al
   117d2:	ff                   	(bad)  
   117d3:	ff 87 01 00 00 00    	incl   0x1(%edi)
   117d9:	41                   	inc    %ecx
   117da:	0e                   	push   %cs
   117db:	08 85 02 41 0e 0c    	or     %al,0xc0e4102(%ebp)
   117e1:	87 03                	xchg   %eax,(%ebx)
   117e3:	41                   	inc    %ecx
   117e4:	0e                   	push   %cs
   117e5:	10 86 04 41 0e 14    	adc    %al,0x140e4104(%esi)
   117eb:	83 05 43 0e 20 59 0e 	addl   $0xe,0x59200e43
   117f2:	2c 45                	sub    $0x45,%al
   117f4:	0e                   	push   %cs
   117f5:	30 48 0e             	xor    %cl,0xe(%eax)
   117f8:	20 7a 0e             	and    %bh,0xe(%edx)
   117fb:	2c 41                	sub    $0x41,%al
   117fd:	0e                   	push   %cs
   117fe:	30 48 0e             	xor    %cl,0xe(%eax)
   11801:	20 68 0e             	and    %ch,0xe(%eax)
   11804:	2c 41                	sub    $0x41,%al
   11806:	0e                   	push   %cs
   11807:	30 48 0e             	xor    %cl,0xe(%eax)
   1180a:	20 68 0e             	and    %ch,0xe(%eax)
   1180d:	2c 41                	sub    $0x41,%al
   1180f:	0e                   	push   %cs
   11810:	30 48 0e             	xor    %cl,0xe(%eax)
   11813:	20 77 0e             	and    %dh,0xe(%edi)
   11816:	28 57 0e             	sub    %dl,0xe(%edi)
   11819:	2c 41                	sub    $0x41,%al
   1181b:	0e                   	push   %cs
   1181c:	30 4a 0e             	xor    %cl,0xe(%edx)
   1181f:	20 5d 0e             	and    %bl,0xe(%ebp)
   11822:	2c 41                	sub    $0x41,%al
   11824:	0e                   	push   %cs
   11825:	30 57 0e             	xor    %dl,0xe(%edi)
   11828:	20 45 0a             	and    %al,0xa(%ebp)
   1182b:	0e                   	push   %cs
   1182c:	14 41                	adc    $0x41,%al
   1182e:	c3                   	ret    
   1182f:	0e                   	push   %cs
   11830:	10 41 c6             	adc    %al,-0x3a(%ecx)
   11833:	0e                   	push   %cs
   11834:	0c 41                	or     $0x41,%al
   11836:	c7                   	(bad)  
   11837:	0e                   	push   %cs
   11838:	08 41 c5             	or     %al,-0x3b(%ecx)
   1183b:	0e                   	push   %cs
   1183c:	04 41                	add    $0x41,%al
   1183e:	0b 4a 0e             	or     0xe(%edx),%ecx
   11841:	2c 45                	sub    $0x45,%al
   11843:	0e                   	push   %cs
   11844:	30 48 0e             	xor    %cl,0xe(%eax)
   11847:	20 14 00             	and    %dl,(%eax,%eax,1)
   1184a:	00 00                	add    %al,(%eax)
   1184c:	00 00                	add    %al,(%eax)
   1184e:	00 00                	add    %al,(%eax)
   11850:	01 7a 52             	add    %edi,0x52(%edx)
   11853:	00 01                	add    %al,(%ecx)
   11855:	7c 08                	jl     0x1185f
   11857:	01 1b                	add    %ebx,(%ebx)
   11859:	0c 04                	or     $0x4,%al
   1185b:	04 88                	add    $0x88,%al
   1185d:	01 00                	add    %eax,(%eax)
   1185f:	00 20                	add    %ah,(%eax)
   11861:	00 00                	add    %al,(%eax)
   11863:	00 1c 00             	add    %bl,(%eax,%eax,1)
   11866:	00 00                	add    %al,(%eax)
   11868:	97                   	xchg   %eax,%edi
   11869:	98                   	cwtl   
   1186a:	ff                   	(bad)  
   1186b:	ff                   	(bad)  
   1186c:	3b 00                	cmp    (%eax),%eax
   1186e:	00 00                	add    %al,(%eax)
   11870:	00 41 0e             	add    %al,0xe(%ecx)
   11873:	08 86 02 41 0e 0c    	or     %al,0xc0e4102(%esi)
   11879:	83 03 77             	addl   $0x77,(%ebx)
   1187c:	c3                   	ret    
   1187d:	0e                   	push   %cs
   1187e:	08 41 c6             	or     %al,-0x3a(%ecx)
   11881:	0e                   	push   %cs
   11882:	04 00                	add    $0x0,%al
   11884:	4c                   	dec    %esp
   11885:	00 00                	add    %al,(%eax)
   11887:	00 40 00             	add    %al,0x0(%eax)
   1188a:	00 00                	add    %al,(%eax)
   1188c:	ae                   	scas   %es:(%edi),%al
   1188d:	98                   	cwtl   
   1188e:	ff                   	(bad)  
   1188f:	ff 73 00             	pushl  0x0(%ebx)
   11892:	00 00                	add    %al,(%eax)
   11894:	00 41 0e             	add    %al,0xe(%ecx)
   11897:	08 85 02 41 0e 0c    	or     %al,0xc0e4102(%ebp)
   1189d:	87 03                	xchg   %eax,(%ebx)
   1189f:	41                   	inc    %ecx
   118a0:	0e                   	push   %cs
   118a1:	10 86 04 41 0e 14    	adc    %al,0x140e4104(%esi)
   118a7:	83 05 43 0e 20 79 0e 	addl   $0xe,0x79200e43
   118ae:	2c 41                	sub    $0x41,%al
   118b0:	0e                   	push   %cs
   118b1:	30 48 0e             	xor    %cl,0xe(%eax)
   118b4:	20 50 0e             	and    %dl,0xe(%eax)
   118b7:	28 41 0e             	sub    %al,0xe(%ecx)
   118ba:	2c 42                	sub    $0x42,%al
   118bc:	0e                   	push   %cs
   118bd:	30 48 0e             	xor    %cl,0xe(%eax)
   118c0:	20 4a 0e             	and    %cl,0xe(%edx)
   118c3:	14 41                	adc    $0x41,%al
   118c5:	c3                   	ret    
   118c6:	0e                   	push   %cs
   118c7:	10 41 c6             	adc    %al,-0x3a(%ecx)
   118ca:	0e                   	push   %cs
   118cb:	0c 41                	or     $0x41,%al
   118cd:	c7                   	(bad)  
   118ce:	0e                   	push   %cs
   118cf:	08 41 c5             	or     %al,-0x3b(%ecx)
   118d2:	0e                   	push   %cs
   118d3:	04 44                	add    $0x44,%al
   118d5:	00 00                	add    %al,(%eax)
   118d7:	00 90 00 00 00 d1    	add    %dl,-0x2f000000(%eax)
   118dd:	98                   	cwtl   
   118de:	ff                   	(bad)  
   118df:	ff 5f 00             	lcall  *0x0(%edi)
   118e2:	00 00                	add    %al,(%eax)
   118e4:	00 41 0e             	add    %al,0xe(%ecx)
   118e7:	08 86 02 41 0e 0c    	or     %al,0xc0e4102(%esi)
   118ed:	83 03 43             	addl   $0x43,(%ebx)
   118f0:	0e                   	push   %cs
   118f1:	10 55 0e             	adc    %dl,0xe(%ebp)
   118f4:	1c 41                	sbb    $0x41,%al
   118f6:	0e                   	push   %cs
   118f7:	20 48 0e             	and    %cl,0xe(%eax)
   118fa:	10 57 0e             	adc    %dl,0xe(%edi)
   118fd:	1c 45                	sbb    $0x45,%al
   118ff:	0e                   	push   %cs
   11900:	20 48 0e             	and    %cl,0xe(%eax)
   11903:	10 43 0a             	adc    %al,0xa(%ebx)
   11906:	0e                   	push   %cs
   11907:	0c 41                	or     $0x41,%al
   11909:	c3                   	ret    
   1190a:	0e                   	push   %cs
   1190b:	08 41 c6             	or     %al,-0x3a(%ecx)
   1190e:	0e                   	push   %cs
   1190f:	04 41                	add    $0x41,%al
   11911:	0b 43 0e             	or     0xe(%ebx),%eax
   11914:	1c 45                	sbb    $0x45,%al
   11916:	0e                   	push   %cs
   11917:	20 48 0e             	and    %cl,0xe(%eax)
   1191a:	10 00                	adc    %al,(%eax)
   1191c:	4c                   	dec    %esp
   1191d:	00 00                	add    %al,(%eax)
   1191f:	00 d8                	add    %bl,%al
   11921:	00 00                	add    %al,(%eax)
   11923:	00 e8                	add    %ch,%al
   11925:	98                   	cwtl   
   11926:	ff                   	(bad)  
   11927:	ff 66 00             	jmp    *0x0(%esi)
   1192a:	00 00                	add    %al,(%eax)
   1192c:	00 41 0e             	add    %al,0xe(%ecx)
   1192f:	08 85 02 41 0e 0c    	or     %al,0xc0e4102(%ebp)
   11935:	87 03                	xchg   %eax,(%ebx)
   11937:	41                   	inc    %ecx
   11938:	0e                   	push   %cs
   11939:	10 86 04 41 0e 14    	adc    %al,0x140e4104(%esi)
   1193f:	83 05 43 0e 20 4d 0e 	addl   $0xe,0x4d200e43
   11946:	2c 41                	sub    $0x41,%al
   11948:	0e                   	push   %cs
   11949:	30 48 0e             	xor    %cl,0xe(%eax)
   1194c:	20 5f 0e             	and    %bl,0xe(%edi)
   1194f:	2c 41                	sub    $0x41,%al
   11951:	0e                   	push   %cs
   11952:	30 48 0e             	xor    %cl,0xe(%eax)
   11955:	20 5c 0e 14          	and    %bl,0x14(%esi,%ecx,1)
   11959:	41                   	inc    %ecx
   1195a:	c3                   	ret    
   1195b:	0e                   	push   %cs
   1195c:	10 41 c6             	adc    %al,-0x3a(%ecx)
   1195f:	0e                   	push   %cs
   11960:	0c 41                	or     $0x41,%al
   11962:	c7                   	(bad)  
   11963:	0e                   	push   %cs
   11964:	08 41 c5             	or     %al,-0x3b(%ecx)
   11967:	0e                   	push   %cs
   11968:	04 00                	add    $0x0,%al
   1196a:	00 00                	add    %al,(%eax)
   1196c:	78 00                	js     0x1196e
   1196e:	00 00                	add    %al,(%eax)
   11970:	28 01                	sub    %al,(%ecx)
   11972:	00 00                	add    %al,(%eax)
   11974:	fe                   	(bad)  
   11975:	98                   	cwtl   
   11976:	ff                   	(bad)  
   11977:	ff c3                	inc    %ebx
   11979:	02 00                	add    (%eax),%al
   1197b:	00 00                	add    %al,(%eax)
   1197d:	41                   	inc    %ecx
   1197e:	0e                   	push   %cs
   1197f:	08 85 02 41 0e 0c    	or     %al,0xc0e4102(%ebp)
   11985:	87 03                	xchg   %eax,(%ebx)
   11987:	41                   	inc    %ecx
   11988:	0e                   	push   %cs
   11989:	10 86 04 41 0e 14    	adc    %al,0x140e4104(%esi)
   1198f:	83 05 43 0e 30 6e 0e 	addl   $0xe,0x6e300e43
   11996:	3c 41                	cmp    $0x41,%al
   11998:	0e                   	push   %cs
   11999:	40                   	inc    %eax
   1199a:	48                   	dec    %eax
   1199b:	0e                   	push   %cs
   1199c:	30 03                	xor    %al,(%ebx)
   1199e:	26 01 0e             	add    %ecx,%es:(%esi)
   119a1:	38 44 0e 3c          	cmp    %al,0x3c(%esi,%ecx,1)
   119a5:	44                   	inc    %esp
   119a6:	0e                   	push   %cs
   119a7:	40                   	inc    %eax
   119a8:	4a                   	dec    %edx
   119a9:	0e                   	push   %cs
   119aa:	30 56 0e             	xor    %dl,0xe(%esi)
   119ad:	3c 45                	cmp    $0x45,%al
   119af:	0e                   	push   %cs
   119b0:	40                   	inc    %eax
   119b1:	60                   	pusha  
   119b2:	0e                   	push   %cs
   119b3:	30 54 0e 3c          	xor    %dl,0x3c(%esi,%ecx,1)
   119b7:	45                   	inc    %ebp
   119b8:	0e                   	push   %cs
   119b9:	40                   	inc    %eax
   119ba:	48                   	dec    %eax
   119bb:	0e                   	push   %cs
   119bc:	30 02                	xor    %al,(%edx)
   119be:	5d                   	pop    %ebp
   119bf:	0e                   	push   %cs
   119c0:	3c 41                	cmp    $0x41,%al
   119c2:	0e                   	push   %cs
   119c3:	40                   	inc    %eax
   119c4:	48                   	dec    %eax
   119c5:	0e                   	push   %cs
   119c6:	30 50 0e             	xor    %dl,0xe(%eax)
   119c9:	38 44 0e 3c          	cmp    %al,0x3c(%esi,%ecx,1)
   119cd:	42                   	inc    %edx
   119ce:	0e                   	push   %cs
   119cf:	40                   	inc    %eax
   119d0:	48                   	dec    %eax
   119d1:	0e                   	push   %cs
   119d2:	30 02                	xor    %al,(%edx)
   119d4:	68 0e 14 41 c3       	push   $0xc341140e
   119d9:	0e                   	push   %cs
   119da:	10 41 c6             	adc    %al,-0x3a(%ecx)
   119dd:	0e                   	push   %cs
   119de:	0c 41                	or     $0x41,%al
   119e0:	c7                   	(bad)  
   119e1:	0e                   	push   %cs
   119e2:	08 41 c5             	or     %al,-0x3b(%ecx)
   119e5:	0e                   	push   %cs
   119e6:	04 00                	add    $0x0,%al
   119e8:	48                   	dec    %eax
   119e9:	00 00                	add    %al,(%eax)
   119eb:	00 a4 01 00 00 45 9b 	add    %ah,-0x64bb0000(%ecx,%eax,1)
   119f2:	ff                   	(bad)  
   119f3:	ff 60 00             	jmp    *0x0(%eax)
   119f6:	00 00                	add    %al,(%eax)
   119f8:	00 41 0e             	add    %al,0xe(%ecx)
   119fb:	08 83 02 43 0e 18    	or     %al,0x180e4302(%ebx)
   11a01:	44                   	inc    %esp
   11a02:	0e                   	push   %cs
   11a03:	1c 44                	sbb    $0x44,%al
   11a05:	0e                   	push   %cs
   11a06:	20 4a 0e             	and    %cl,0xe(%edx)
   11a09:	10 4f 0a             	adc    %cl,0xa(%edi)
   11a0c:	0e                   	push   %cs
   11a0d:	08 41 c3             	or     %al,-0x3d(%ecx)
   11a10:	0e                   	push   %cs
   11a11:	04 41                	add    $0x41,%al
   11a13:	0b 43 0e             	or     0xe(%ebx),%eax
   11a16:	1c 45                	sbb    $0x45,%al
   11a18:	0e                   	push   %cs
   11a19:	20 48 0e             	and    %cl,0xe(%eax)
   11a1c:	10 45 0e             	adc    %al,0xe(%ebp)
   11a1f:	18 41 0e             	sbb    %al,0xe(%ecx)
   11a22:	1c 42                	sbb    $0x42,%al
   11a24:	0e                   	push   %cs
   11a25:	20 48 0e             	and    %cl,0xe(%eax)
   11a28:	10 49 0e             	adc    %cl,0xe(%ecx)
   11a2b:	1c 41                	sbb    $0x41,%al
   11a2d:	0e                   	push   %cs
   11a2e:	20 48 0e             	and    %cl,0xe(%eax)
   11a31:	10 00                	adc    %al,(%eax)
   11a33:	00 10                	add    %dl,(%eax)
   11a35:	00 00                	add    %al,(%eax)
   11a37:	00 f0                	add    %dh,%al
   11a39:	01 00                	add    %eax,(%eax)
   11a3b:	00 59 9b             	add    %bl,-0x65(%ecx)
   11a3e:	ff                   	(bad)  
   11a3f:	ff 93 00 00 00 00    	call   *0x0(%ebx)
   11a45:	00 00                	add    %al,(%eax)
   11a47:	00 14 00             	add    %dl,(%eax,%eax,1)
   11a4a:	00 00                	add    %al,(%eax)
   11a4c:	00 00                	add    %al,(%eax)
   11a4e:	00 00                	add    %al,(%eax)
   11a50:	01 7a 52             	add    %edi,0x52(%edx)
   11a53:	00 01                	add    %al,(%ecx)
   11a55:	7c 08                	jl     0x11a5f
   11a57:	01 1b                	add    %ebx,(%ebx)
   11a59:	0c 04                	or     $0x4,%al
   11a5b:	04 88                	add    $0x88,%al
   11a5d:	01 00                	add    %eax,(%eax)
   11a5f:	00 7c 00 00          	add    %bh,0x0(%eax,%eax,1)
   11a63:	00 1c 00             	add    %bl,(%eax,%eax,1)
   11a66:	00 00                	add    %al,(%eax)
   11a68:	c0 9b ff ff 09 02 00 	rcrb   $0x0,0x209ffff(%ebx)
   11a6f:	00 00                	add    %al,(%eax)
   11a71:	41                   	inc    %ecx
   11a72:	0e                   	push   %cs
   11a73:	08 85 02 41 0e 0c    	or     %al,0xc0e4102(%ebp)
   11a79:	87 03                	xchg   %eax,(%ebx)
   11a7b:	41                   	inc    %ecx
   11a7c:	0e                   	push   %cs
   11a7d:	10 86 04 41 0e 14    	adc    %al,0x140e4104(%esi)
   11a83:	83 05 43 0e 20 02 62 	addl   $0x62,0x2200e43
   11a8a:	0e                   	push   %cs
   11a8b:	2c 42                	sub    $0x42,%al
   11a8d:	0e                   	push   %cs
   11a8e:	30 4b 0e             	xor    %cl,0xe(%ebx)
   11a91:	20 4d 0e             	and    %cl,0xe(%ebp)
   11a94:	2c 42                	sub    $0x42,%al
   11a96:	0e                   	push   %cs
   11a97:	30 4b 0e             	xor    %cl,0xe(%ebx)
   11a9a:	20 6c 0e 28          	and    %ch,0x28(%esi,%ecx,1)
   11a9e:	42                   	inc    %edx
   11a9f:	0e                   	push   %cs
   11aa0:	2c 41                	sub    $0x41,%al
   11aa2:	0e                   	push   %cs
   11aa3:	30 48 0e             	xor    %cl,0xe(%eax)
   11aa6:	20 52 0e             	and    %dl,0xe(%edx)
   11aa9:	2c 41                	sub    $0x41,%al
   11aab:	0e                   	push   %cs
   11aac:	30 48 0e             	xor    %cl,0xe(%eax)
   11aaf:	20 02                	and    %al,(%edx)
   11ab1:	8f                   	(bad)  
   11ab2:	0e                   	push   %cs
   11ab3:	28 41 0e             	sub    %al,0xe(%ecx)
   11ab6:	2c 41                	sub    $0x41,%al
   11ab8:	0e                   	push   %cs
   11ab9:	30 4c 0e 20          	xor    %cl,0x20(%esi,%ecx,1)
   11abd:	5f                   	pop    %edi
   11abe:	0e                   	push   %cs
   11abf:	28 41 0e             	sub    %al,0xe(%ecx)
   11ac2:	2c 41                	sub    $0x41,%al
   11ac4:	0e                   	push   %cs
   11ac5:	30 4c 0e 20          	xor    %cl,0x20(%esi,%ecx,1)
   11ac9:	02 58 0e             	add    0xe(%eax),%bl
   11acc:	14 41                	adc    $0x41,%al
   11ace:	c3                   	ret    
   11acf:	0e                   	push   %cs
   11ad0:	10 41 c6             	adc    %al,-0x3a(%ecx)
   11ad3:	0e                   	push   %cs
   11ad4:	0c 41                	or     $0x41,%al
   11ad6:	c7                   	(bad)  
   11ad7:	0e                   	push   %cs
   11ad8:	08 41 c5             	or     %al,-0x3b(%ecx)
   11adb:	0e                   	push   %cs
   11adc:	04 00                	add    $0x0,%al
   11ade:	00 00                	add    %al,(%eax)
   11ae0:	7c 00                	jl     0x11ae2
   11ae2:	00 00                	add    %al,(%eax)
   11ae4:	9c                   	pushf  
   11ae5:	00 00                	add    %al,(%eax)
   11ae7:	00 49 9d             	add    %cl,-0x63(%ecx)
   11aea:	ff                   	(bad)  
   11aeb:	ff                   	(bad)  
   11aec:	3d 01 00 00 00       	cmp    $0x1,%eax
   11af1:	41                   	inc    %ecx
   11af2:	0e                   	push   %cs
   11af3:	08 85 02 41 0e 0c    	or     %al,0xc0e4102(%ebp)
   11af9:	87 03                	xchg   %eax,(%ebx)
   11afb:	41                   	inc    %ecx
   11afc:	0e                   	push   %cs
   11afd:	10 86 04 41 0e 14    	adc    %al,0x140e4104(%esi)
   11b03:	83 05 43 0e 20 6e 0e 	addl   $0xe,0x6e200e43
   11b0a:	2c 45                	sub    $0x45,%al
   11b0c:	0e                   	push   %cs
   11b0d:	30 4a 0e             	xor    %cl,0xe(%edx)
   11b10:	20 47 0e             	and    %al,0xe(%edi)
   11b13:	28 42 0e             	sub    %al,0xe(%edx)
   11b16:	2c 45                	sub    $0x45,%al
   11b18:	0e                   	push   %cs
   11b19:	30 4a 0e             	xor    %cl,0xe(%edx)
   11b1c:	20 73 0e             	and    %dh,0xe(%ebx)
   11b1f:	2c 45                	sub    $0x45,%al
   11b21:	0e                   	push   %cs
   11b22:	30 48 0e             	xor    %cl,0xe(%eax)
   11b25:	20 45 0e             	and    %al,0xe(%ebp)
   11b28:	2c 45                	sub    $0x45,%al
   11b2a:	0e                   	push   %cs
   11b2b:	30 48 0e             	xor    %cl,0xe(%eax)
   11b2e:	20 6a 0e             	and    %ch,0xe(%edx)
   11b31:	24 45                	and    $0x45,%al
   11b33:	0e                   	push   %cs
   11b34:	28 41 0e             	sub    %al,0xe(%ecx)
   11b37:	2c 45                	sub    $0x45,%al
   11b39:	0e                   	push   %cs
   11b3a:	30 4c 0e 20          	xor    %cl,0x20(%esi,%ecx,1)
   11b3e:	77 0e                	ja     0x11b4e
   11b40:	24 44                	and    $0x44,%al
   11b42:	0e                   	push   %cs
   11b43:	28 41 0e             	sub    %al,0xe(%ecx)
   11b46:	2c 45                	sub    $0x45,%al
   11b48:	0e                   	push   %cs
   11b49:	30 48 0e             	xor    %cl,0xe(%eax)
   11b4c:	14 41                	adc    $0x41,%al
   11b4e:	c3                   	ret    
   11b4f:	0e                   	push   %cs
   11b50:	10 41 c6             	adc    %al,-0x3a(%ecx)
   11b53:	0e                   	push   %cs
   11b54:	0c 41                	or     $0x41,%al
   11b56:	c7                   	(bad)  
   11b57:	0e                   	push   %cs
   11b58:	08 41 c5             	or     %al,-0x3b(%ecx)
   11b5b:	0e                   	push   %cs
   11b5c:	04 00                	add    $0x0,%al
   11b5e:	00 00                	add    %al,(%eax)
   11b60:	14 00                	adc    $0x0,%al
   11b62:	00 00                	add    %al,(%eax)
   11b64:	00 00                	add    %al,(%eax)
   11b66:	00 00                	add    %al,(%eax)
   11b68:	01 7a 52             	add    %edi,0x52(%edx)
   11b6b:	00 01                	add    %al,(%ecx)
   11b6d:	7c 08                	jl     0x11b77
   11b6f:	01 1b                	add    %ebx,(%ebx)
   11b71:	0c 04                	or     $0x4,%al
   11b73:	04 88                	add    $0x88,%al
   11b75:	01 00                	add    %eax,(%eax)
   11b77:	00 54 00 00          	add    %dl,0x0(%eax,%eax,1)
   11b7b:	00 1c 00             	add    %bl,(%eax,%eax,1)
   11b7e:	00 00                	add    %al,(%eax)
   11b80:	ee                   	out    %al,(%dx)
   11b81:	9d                   	popf   
   11b82:	ff                   	(bad)  
   11b83:	ff 10                	call   *(%eax)
   11b85:	01 00                	add    %eax,(%eax)
   11b87:	00 00                	add    %al,(%eax)
   11b89:	41                   	inc    %ecx
   11b8a:	0e                   	push   %cs
   11b8b:	08 85 02 41 0e 0c    	or     %al,0xc0e4102(%ebp)
   11b91:	87 03                	xchg   %eax,(%ebx)
   11b93:	41                   	inc    %ecx
   11b94:	0e                   	push   %cs
   11b95:	10 86 04 41 0e 14    	adc    %al,0x140e4104(%esi)
   11b9b:	83 05 43 0e 30 02 56 	addl   $0x56,0x2300e43
   11ba2:	0a 0e                	or     (%esi),%cl
   11ba4:	14 41                	adc    $0x41,%al
   11ba6:	c3                   	ret    
   11ba7:	0e                   	push   %cs
   11ba8:	10 41 c6             	adc    %al,-0x3a(%ecx)
   11bab:	0e                   	push   %cs
   11bac:	0c 41                	or     $0x41,%al
   11bae:	c7                   	(bad)  
   11baf:	0e                   	push   %cs
   11bb0:	08 41 c5             	or     %al,-0x3b(%ecx)
   11bb3:	0e                   	push   %cs
   11bb4:	04 41                	add    $0x41,%al
   11bb6:	0b 02                	or     (%edx),%eax
   11bb8:	53                   	push   %ebx
   11bb9:	0e                   	push   %cs
   11bba:	3c 41                	cmp    $0x41,%al
   11bbc:	0e                   	push   %cs
   11bbd:	40                   	inc    %eax
   11bbe:	4d                   	dec    %ebp
   11bbf:	0e                   	push   %cs
   11bc0:	30 49 0e             	xor    %cl,0xe(%ecx)
   11bc3:	38 44 0e 3c          	cmp    %al,0x3c(%esi,%ecx,1)
   11bc7:	44                   	inc    %esp
   11bc8:	0e                   	push   %cs
   11bc9:	40                   	inc    %eax
   11bca:	48                   	dec    %eax
   11bcb:	0e                   	push   %cs
   11bcc:	30 00                	xor    %al,(%eax)
   11bce:	00 00                	add    %al,(%eax)
   11bd0:	54                   	push   %esp
   11bd1:	00 00                	add    %al,(%eax)
   11bd3:	00 74 00 00          	add    %dh,0x0(%eax,%eax,1)
   11bd7:	00 a6 9e ff ff 09    	add    %ah,0x9ffff9e(%esi)
   11bdd:	01 00                	add    %eax,(%eax)
   11bdf:	00 00                	add    %al,(%eax)
   11be1:	41                   	inc    %ecx
   11be2:	0e                   	push   %cs
   11be3:	08 85 02 41 0e 0c    	or     %al,0xc0e4102(%ebp)
   11be9:	87 03                	xchg   %eax,(%ebx)
   11beb:	41                   	inc    %ecx
   11bec:	0e                   	push   %cs
   11bed:	10 86 04 41 0e 14    	adc    %al,0x140e4104(%esi)
   11bf3:	83 05 43 0e 30 02 40 	addl   $0x40,0x2300e43
   11bfa:	0a 0e                	or     (%esi),%cl
   11bfc:	14 41                	adc    $0x41,%al
   11bfe:	c3                   	ret    
   11bff:	0e                   	push   %cs
   11c00:	10 41 c6             	adc    %al,-0x3a(%ecx)
   11c03:	0e                   	push   %cs
   11c04:	0c 41                	or     $0x41,%al
   11c06:	c7                   	(bad)  
   11c07:	0e                   	push   %cs
   11c08:	08 41 c5             	or     %al,-0x3b(%ecx)
   11c0b:	0e                   	push   %cs
   11c0c:	04 41                	add    $0x41,%al
   11c0e:	0b 02                	or     (%edx),%eax
   11c10:	5f                   	pop    %edi
   11c11:	0e                   	push   %cs
   11c12:	3c 41                	cmp    $0x41,%al
   11c14:	0e                   	push   %cs
   11c15:	40                   	inc    %eax
   11c16:	4d                   	dec    %ebp
   11c17:	0e                   	push   %cs
   11c18:	30 4c 0e 38          	xor    %cl,0x38(%esi,%ecx,1)
   11c1c:	44                   	inc    %esp
   11c1d:	0e                   	push   %cs
   11c1e:	3c 44                	cmp    $0x44,%al
   11c20:	0e                   	push   %cs
   11c21:	40                   	inc    %eax
   11c22:	48                   	dec    %eax
   11c23:	0e                   	push   %cs
   11c24:	30 00                	xor    %al,(%eax)
   11c26:	00 00                	add    %al,(%eax)
   11c28:	30 00                	xor    %al,(%eax)
   11c2a:	00 00                	add    %al,(%eax)
   11c2c:	cc                   	int3   
   11c2d:	00 00                	add    %al,(%eax)
   11c2f:	00 57 9f             	add    %dl,-0x61(%edi)
   11c32:	ff                   	(bad)  
   11c33:	ff 40 00             	incl   0x0(%eax)
   11c36:	00 00                	add    %al,(%eax)
   11c38:	00 41 0e             	add    %al,0xe(%ecx)
   11c3b:	08 83 02 43 0e 10    	or     %al,0x100e4302(%ebx)
   11c41:	5b                   	pop    %ebx
   11c42:	0e                   	push   %cs
   11c43:	1c 45                	sbb    $0x45,%al
   11c45:	0e                   	push   %cs
   11c46:	20 48 0e             	and    %cl,0xe(%eax)
   11c49:	10 48 0e             	adc    %cl,0xe(%eax)
   11c4c:	18 41 0e             	sbb    %al,0xe(%ecx)
   11c4f:	1c 44                	sbb    $0x44,%al
   11c51:	0e                   	push   %cs
   11c52:	20 45 0e             	and    %al,0xe(%ebp)
   11c55:	08 41 c3             	or     %al,-0x3d(%ecx)
   11c58:	0e                   	push   %cs
   11c59:	04 00                	add    $0x0,%al
   11c5b:	00 14 00             	add    %dl,(%eax,%eax,1)
   11c5e:	00 00                	add    %al,(%eax)
   11c60:	00 00                	add    %al,(%eax)
   11c62:	00 00                	add    %al,(%eax)
   11c64:	01 7a 52             	add    %edi,0x52(%edx)
   11c67:	00 01                	add    %al,(%ecx)
   11c69:	7c 08                	jl     0x11c73
   11c6b:	01 1b                	add    %ebx,(%ebx)
   11c6d:	0c 04                	or     $0x4,%al
   11c6f:	04 88                	add    $0x88,%al
   11c71:	01 00                	add    %eax,(%eax)
   11c73:	00 34 00             	add    %dh,(%eax,%eax,1)
   11c76:	00 00                	add    %al,(%eax)
   11c78:	1c 00                	sbb    $0x0,%al
   11c7a:	00 00                	add    %al,(%eax)
   11c7c:	4b                   	dec    %ebx
   11c7d:	9f                   	lahf   
   11c7e:	ff                   	(bad)  
   11c7f:	ff                   	(bad)  
   11c80:	38 00                	cmp    %al,(%eax)
   11c82:	00 00                	add    %al,(%eax)
   11c84:	00 43 0e             	add    %al,0xe(%ebx)
   11c87:	10 56 0e             	adc    %dl,0xe(%esi)
   11c8a:	14 41                	adc    $0x41,%al
   11c8c:	0e                   	push   %cs
   11c8d:	18 41 0e             	sbb    %al,0xe(%ecx)
   11c90:	1c 41                	sbb    $0x41,%al
   11c92:	0e                   	push   %cs
   11c93:	20 48 0e             	and    %cl,0xe(%eax)
   11c96:	10 43 0a             	adc    %al,0xa(%ebx)
   11c99:	0e                   	push   %cs
   11c9a:	04 41                	add    $0x41,%al
   11c9c:	0b 43 0e             	or     0xe(%ebx),%eax
   11c9f:	14 41                	adc    $0x41,%al
   11ca1:	0e                   	push   %cs
   11ca2:	18 41 0e             	sbb    %al,0xe(%ecx)
   11ca5:	1c 41                	sbb    $0x41,%al
   11ca7:	0e                   	push   %cs
   11ca8:	20 48 0e             	and    %cl,0xe(%eax)
   11cab:	10 20                	adc    %ah,(%eax)
   11cad:	00 00                	add    %al,(%eax)
   11caf:	00 54 00 00          	add    %dl,0x0(%eax,%eax,1)
   11cb3:	00 4b 9f             	add    %cl,-0x61(%ebx)
   11cb6:	ff                   	(bad)  
   11cb7:	ff 2e                	ljmp   *(%esi)
   11cb9:	00 00                	add    %al,(%eax)
   11cbb:	00 00                	add    %al,(%eax)
   11cbd:	52                   	push   %edx
   11cbe:	0e                   	push   %cs
   11cbf:	10 44 0e 14          	adc    %al,0x14(%esi,%ecx,1)
   11cc3:	44                   	inc    %esp
   11cc4:	0e                   	push   %cs
   11cc5:	18 41 0e             	sbb    %al,0xe(%ecx)
   11cc8:	1c 44                	sbb    $0x44,%al
   11cca:	0e                   	push   %cs
   11ccb:	20 48 0e             	and    %cl,0xe(%eax)
   11cce:	04 00                	add    $0x0,%al
   11cd0:	50                   	push   %eax
   11cd1:	00 00                	add    %al,(%eax)
   11cd3:	00 78 00             	add    %bh,0x0(%eax)
   11cd6:	00 00                	add    %al,(%eax)
   11cd8:	55                   	push   %ebp
   11cd9:	9f                   	lahf   
   11cda:	ff                   	(bad)  
   11cdb:	ff 67 00             	jmp    *0x0(%edi)
   11cde:	00 00                	add    %al,(%eax)
   11ce0:	00 41 0e             	add    %al,0xe(%ecx)
   11ce3:	08 86 02 41 0e 0c    	or     %al,0xc0e4102(%esi)
   11ce9:	83 03 43             	addl   $0x43,(%ebx)
   11cec:	0e                   	push   %cs
   11ced:	10 5d 0e             	adc    %bl,0xe(%ebp)
   11cf0:	14 44                	adc    $0x44,%al
   11cf2:	0e                   	push   %cs
   11cf3:	18 44 0e 1c          	sbb    %al,0x1c(%esi,%ecx,1)
   11cf7:	44                   	inc    %esp
   11cf8:	0e                   	push   %cs
   11cf9:	20 45 0e             	and    %al,0xe(%ebp)
   11cfc:	0c 41                	or     $0x41,%al
   11cfe:	c3                   	ret    
   11cff:	0e                   	push   %cs
   11d00:	08 41 c6             	or     %al,-0x3a(%ecx)
   11d03:	0e                   	push   %cs
   11d04:	04 41                	add    $0x41,%al
   11d06:	0e                   	push   %cs
   11d07:	10 83 03 86 02 43    	adc    %al,0x43028603(%ebx)
   11d0d:	0e                   	push   %cs
   11d0e:	1c 45                	sbb    $0x45,%al
   11d10:	0e                   	push   %cs
   11d11:	20 48 0e             	and    %cl,0xe(%eax)
   11d14:	10 45 0e             	adc    %al,0xe(%ebp)
   11d17:	18 41 0e             	sbb    %al,0xe(%ecx)
   11d1a:	1c 45                	sbb    $0x45,%al
   11d1c:	0e                   	push   %cs
   11d1d:	20 54 0e 10          	and    %dl,0x10(%esi,%ecx,1)
   11d21:	00 00                	add    %al,(%eax)
   11d23:	00 14 00             	add    %dl,(%eax,%eax,1)
   11d26:	00 00                	add    %al,(%eax)
   11d28:	00 00                	add    %al,(%eax)
   11d2a:	00 00                	add    %al,(%eax)
   11d2c:	01 7a 52             	add    %edi,0x52(%edx)
   11d2f:	00 01                	add    %al,(%ecx)
   11d31:	7c 08                	jl     0x11d3b
   11d33:	01 1b                	add    %ebx,(%ebx)
   11d35:	0c 04                	or     $0x4,%al
   11d37:	04 88                	add    $0x88,%al
   11d39:	01 00                	add    %eax,(%eax)
   11d3b:	00 2c 00             	add    %ch,(%eax,%eax,1)
   11d3e:	00 00                	add    %al,(%eax)
   11d40:	1c 00                	sbb    $0x0,%al
   11d42:	00 00                	add    %al,(%eax)
   11d44:	50                   	push   %eax
   11d45:	9f                   	lahf   
   11d46:	ff                   	(bad)  
   11d47:	ff ad 01 00 00 00    	ljmp   *0x1(%ebp)
   11d4d:	41                   	inc    %ecx
   11d4e:	0e                   	push   %cs
   11d4f:	08 85 02 42 0d 05    	or     %al,0x50d4202(%ebp)
   11d55:	46                   	inc    %esi
   11d56:	87 03                	xchg   %eax,(%ebx)
   11d58:	86 04 83             	xchg   %al,(%ebx,%eax,4)
   11d5b:	05 03 45 01 0a       	add    $0xa014503,%eax
   11d60:	c3                   	ret    
   11d61:	41                   	inc    %ecx
   11d62:	c6 41 c7 41          	movb   $0x41,-0x39(%ecx)
   11d66:	c5 0c 04             	lds    (%esp,%eax,1),%ecx
   11d69:	04 41                	add    $0x41,%al
   11d6b:	0b 2c 00             	or     (%eax,%eax,1),%ebp
   11d6e:	00 00                	add    %al,(%eax)
   11d70:	4c                   	dec    %esp
   11d71:	00 00                	add    %al,(%eax)
   11d73:	00 cd                	add    %cl,%ch
   11d75:	a0 ff ff 84 01       	mov    0x184ffff,%al
   11d7a:	00 00                	add    %al,(%eax)
   11d7c:	00 41 0e             	add    %al,0xe(%ecx)
   11d7f:	08 85 02 42 0d 05    	or     %al,0x50d4202(%ebp)
   11d85:	46                   	inc    %esi
   11d86:	87 03                	xchg   %eax,(%ebx)
   11d88:	86 04 83             	xchg   %al,(%ebx,%eax,4)
   11d8b:	05 02 84 0a c3       	add    $0xc30a8402,%eax
   11d90:	41                   	inc    %ecx
   11d91:	c6 41 c7 41          	movb   $0x41,-0x39(%ecx)
   11d95:	c5 0c 04             	lds    (%esp,%eax,1),%ecx
   11d98:	04 41                	add    $0x41,%al
   11d9a:	0b 00                	or     (%eax),%eax
   11d9c:	14 00                	adc    $0x0,%al
   11d9e:	00 00                	add    %al,(%eax)
   11da0:	00 00                	add    %al,(%eax)
   11da2:	00 00                	add    %al,(%eax)
   11da4:	01 7a 52             	add    %edi,0x52(%edx)
   11da7:	00 01                	add    %al,(%ecx)
   11da9:	7c 08                	jl     0x11db3
   11dab:	01 1b                	add    %ebx,(%ebx)
   11dad:	0c 04                	or     $0x4,%al
   11daf:	04 88                	add    $0x88,%al
   11db1:	01 00                	add    %eax,(%eax)
   11db3:	00 34 00             	add    %dh,(%eax,%eax,1)
   11db6:	00 00                	add    %al,(%eax)
   11db8:	1c 00                	sbb    $0x0,%al
   11dba:	00 00                	add    %al,(%eax)
   11dbc:	09 a2 ff ff a4 00    	or     %esp,0xa4ffff(%edx)
   11dc2:	00 00                	add    %al,(%eax)
   11dc4:	00 41 0e             	add    %al,0xe(%ecx)
   11dc7:	08 86 02 41 0e 0c    	or     %al,0xc0e4102(%esi)
   11dcd:	83 03 43             	addl   $0x43,(%ebx)
   11dd0:	0e                   	push   %cs
   11dd1:	48                   	dec    %eax
   11dd2:	52                   	push   %edx
   11dd3:	0e                   	push   %cs
   11dd4:	4c                   	dec    %esp
   11dd5:	41                   	inc    %ecx
   11dd6:	0e                   	push   %cs
   11dd7:	50                   	push   %eax
   11dd8:	02 5c 0e 40          	add    0x40(%esi,%ecx,1),%bl
   11ddc:	68 0a 0e 0c 41       	push   $0x410c0e0a
   11de1:	c3                   	ret    
   11de2:	0e                   	push   %cs
   11de3:	08 41 c6             	or     %al,-0x3a(%ecx)
   11de6:	0e                   	push   %cs
   11de7:	04 41                	add    $0x41,%al
   11de9:	0b 00                	or     (%eax),%eax
   11deb:	00 38                	add    %bh,(%eax)
   11ded:	00 00                	add    %al,(%eax)
   11def:	00 54 00 00          	add    %dl,0x0(%eax,%eax,1)
   11df3:	00 75 a2             	add    %dh,-0x5e(%ebp)
   11df6:	ff                   	(bad)  
   11df7:	ff                   	(bad)  
   11df8:	3d 00 00 00 00       	cmp    $0x0,%eax
   11dfd:	41                   	inc    %ecx
   11dfe:	0e                   	push   %cs
   11dff:	08 86 02 41 0e 0c    	or     %al,0xc0e4102(%esi)
   11e05:	83 03 43             	addl   $0x43,(%ebx)
   11e08:	0e                   	push   %cs
   11e09:	1c 44                	sbb    $0x44,%al
   11e0b:	0e                   	push   %cs
   11e0c:	20 48 0e             	and    %cl,0xe(%eax)
   11e0f:	10 54 0e 1c          	adc    %dl,0x1c(%esi,%ecx,1)
   11e13:	41                   	inc    %ecx
   11e14:	0e                   	push   %cs
   11e15:	20 48 0e             	and    %cl,0xe(%eax)
   11e18:	10 45 0a             	adc    %al,0xa(%ebp)
   11e1b:	0e                   	push   %cs
   11e1c:	0c 41                	or     $0x41,%al
   11e1e:	c3                   	ret    
   11e1f:	0e                   	push   %cs
   11e20:	08 41 c6             	or     %al,-0x3a(%ecx)
   11e23:	0e                   	push   %cs
   11e24:	04 41                	add    $0x41,%al
   11e26:	0b 00                	or     (%eax),%eax
   11e28:	18 00                	sbb    %al,(%eax)
   11e2a:	00 00                	add    %al,(%eax)
   11e2c:	90                   	nop
   11e2d:	00 00                	add    %al,(%eax)
   11e2f:	00 76 a2             	add    %dh,-0x5e(%esi)
   11e32:	ff                   	(bad)  
   11e33:	ff 46 00             	incl   0x0(%esi)
   11e36:	00 00                	add    %al,(%eax)
   11e38:	00 43 0e             	add    %al,0xe(%ebx)
   11e3b:	10 6d 0a             	adc    %ch,0xa(%ebp)
   11e3e:	0e                   	push   %cs
   11e3f:	04 41                	add    $0x41,%al
   11e41:	0b 00                	or     (%eax),%eax
   11e43:	00 14 00             	add    %dl,(%eax,%eax,1)
   11e46:	00 00                	add    %al,(%eax)
   11e48:	00 00                	add    %al,(%eax)
   11e4a:	00 00                	add    %al,(%eax)
   11e4c:	01 7a 52             	add    %edi,0x52(%edx)
   11e4f:	00 01                	add    %al,(%ecx)
   11e51:	7c 08                	jl     0x11e5b
   11e53:	01 1b                	add    %ebx,(%ebx)
   11e55:	0c 04                	or     $0x4,%al
   11e57:	04 88                	add    $0x88,%al
   11e59:	01 00                	add    %eax,(%eax)
   11e5b:	00 4c 00 00          	add    %cl,0x0(%eax,%eax,1)
   11e5f:	00 1c 00             	add    %bl,(%eax,%eax,1)
   11e62:	00 00                	add    %al,(%eax)
   11e64:	88 a2 ff ff f1 00    	mov    %ah,0xf1ffff(%edx)
   11e6a:	00 00                	add    %al,(%eax)
   11e6c:	00 41 0e             	add    %al,0xe(%ecx)
   11e6f:	08 85 02 41 0e 0c    	or     %al,0xc0e4102(%ebp)
   11e75:	87 03                	xchg   %eax,(%ebx)
   11e77:	41                   	inc    %ecx
   11e78:	0e                   	push   %cs
   11e79:	10 86 04 41 0e 14    	adc    %al,0x140e4104(%esi)
   11e7f:	83 05 43 0e 30 53 0e 	addl   $0xe,0x53300e43
   11e86:	3c 45                	cmp    $0x45,%al
   11e88:	0e                   	push   %cs
   11e89:	40                   	inc    %eax
   11e8a:	48                   	dec    %eax
   11e8b:	0e                   	push   %cs
   11e8c:	30 77 0e             	xor    %dh,0xe(%edi)
   11e8f:	3c 45                	cmp    $0x45,%al
   11e91:	0e                   	push   %cs
   11e92:	40                   	inc    %eax
   11e93:	48                   	dec    %eax
   11e94:	0e                   	push   %cs
   11e95:	30 02                	xor    %al,(%edx)
   11e97:	81 0e 14 41 c3 0e    	orl    $0xec34114,(%esi)
   11e9d:	10 41 c6             	adc    %al,-0x3a(%ecx)
   11ea0:	0e                   	push   %cs
   11ea1:	0c 41                	or     $0x41,%al
   11ea3:	c7                   	(bad)  
   11ea4:	0e                   	push   %cs
   11ea5:	08 41 c5             	or     %al,-0x3b(%ecx)
   11ea8:	0e                   	push   %cs
   11ea9:	04 00                	add    $0x0,%al
   11eab:	00 50 00             	add    %dl,0x0(%eax)
   11eae:	00 00                	add    %al,(%eax)
   11eb0:	6c                   	insb   (%dx),%es:(%edi)
   11eb1:	00 00                	add    %al,(%eax)
   11eb3:	00 29                	add    %ch,(%ecx)
   11eb5:	a3 ff ff 92 00       	mov    %eax,0x92ffff
   11eba:	00 00                	add    %al,(%eax)
   11ebc:	00 41 0e             	add    %al,0xe(%ecx)
   11ebf:	08 85 02 41 0e 0c    	or     %al,0xc0e4102(%ebp)
   11ec5:	87 03                	xchg   %eax,(%ebx)
   11ec7:	41                   	inc    %ecx
   11ec8:	0e                   	push   %cs
   11ec9:	10 86 04 41 0e 14    	adc    %al,0x140e4104(%esi)
   11ecf:	83 05 43 0e 30 78 0e 	addl   $0xe,0x78300e43
   11ed6:	38 44 0e 3c          	cmp    %al,0x3c(%esi,%ecx,1)
   11eda:	45                   	inc    %ebp
   11edb:	0e                   	push   %cs
   11edc:	40                   	inc    %eax
   11edd:	48                   	dec    %eax
   11ede:	0e                   	push   %cs
   11edf:	30 5c 0e 3c          	xor    %bl,0x3c(%esi,%ecx,1)
   11ee3:	41                   	inc    %ecx
   11ee4:	0e                   	push   %cs
   11ee5:	40                   	inc    %eax
   11ee6:	48                   	dec    %eax
   11ee7:	0e                   	push   %cs
   11ee8:	30 4a 0a             	xor    %cl,0xa(%edx)
   11eeb:	0e                   	push   %cs
   11eec:	14 41                	adc    $0x41,%al
   11eee:	c3                   	ret    
   11eef:	0e                   	push   %cs
   11ef0:	10 41 c6             	adc    %al,-0x3a(%ecx)
   11ef3:	0e                   	push   %cs
   11ef4:	0c 41                	or     $0x41,%al
   11ef6:	c7                   	(bad)  
   11ef7:	0e                   	push   %cs
   11ef8:	08 41 c5             	or     %al,-0x3b(%ecx)
   11efb:	0e                   	push   %cs
   11efc:	04 41                	add    $0x41,%al
   11efe:	0b 00                	or     (%eax),%eax
   11f00:	78 00                	js     0x11f02
   11f02:	00 00                	add    %al,(%eax)
   11f04:	c0 00 00             	rolb   $0x0,(%eax)
   11f07:	00 67 a3             	add    %ah,-0x5d(%edi)
   11f0a:	ff                   	(bad)  
   11f0b:	ff f4                	push   %esp
   11f0d:	00 00                	add    %al,(%eax)
   11f0f:	00 00                	add    %al,(%eax)
   11f11:	41                   	inc    %ecx
   11f12:	0e                   	push   %cs
   11f13:	08 85 02 41 0e 0c    	or     %al,0xc0e4102(%ebp)
   11f19:	87 03                	xchg   %eax,(%ebx)
   11f1b:	41                   	inc    %ecx
   11f1c:	0e                   	push   %cs
   11f1d:	10 86 04 41 0e 14    	adc    %al,0x140e4104(%esi)
   11f23:	83 05 43 0e 30 59 0a 	addl   $0xa,0x59300e43
   11f2a:	0e                   	push   %cs
   11f2b:	14 41                	adc    $0x41,%al
   11f2d:	c3                   	ret    
   11f2e:	0e                   	push   %cs
   11f2f:	10 41 c6             	adc    %al,-0x3a(%ecx)
   11f32:	0e                   	push   %cs
   11f33:	0c 41                	or     $0x41,%al
   11f35:	c7                   	(bad)  
   11f36:	0e                   	push   %cs
   11f37:	08 41 c5             	or     %al,-0x3b(%ecx)
   11f3a:	0e                   	push   %cs
   11f3b:	04 41                	add    $0x41,%al
   11f3d:	0b 43 0e             	or     0xe(%ebx),%eax
   11f40:	3c 45                	cmp    $0x45,%al
   11f42:	0e                   	push   %cs
   11f43:	40                   	inc    %eax
   11f44:	48                   	dec    %eax
   11f45:	0e                   	push   %cs
   11f46:	30 45 0e             	xor    %al,0xe(%ebp)
   11f49:	38 41 0e             	cmp    %al,0xe(%ecx)
   11f4c:	3c 44                	cmp    $0x44,%al
   11f4e:	0e                   	push   %cs
   11f4f:	40                   	inc    %eax
   11f50:	4c                   	dec    %esp
   11f51:	0e                   	push   %cs
   11f52:	30 62 0e             	xor    %ah,0xe(%edx)
   11f55:	3c 44                	cmp    $0x44,%al
   11f57:	0e                   	push   %cs
   11f58:	40                   	inc    %eax
   11f59:	48                   	dec    %eax
   11f5a:	0e                   	push   %cs
   11f5b:	30 66 0e             	xor    %ah,0xe(%esi)
   11f5e:	38 44 0e 3c          	cmp    %al,0x3c(%esi,%ecx,1)
   11f62:	44                   	inc    %esp
   11f63:	0e                   	push   %cs
   11f64:	40                   	inc    %eax
   11f65:	48                   	dec    %eax
   11f66:	0e                   	push   %cs
   11f67:	30 57 0e             	xor    %dl,0xe(%edi)
   11f6a:	3c 41                	cmp    $0x41,%al
   11f6c:	0e                   	push   %cs
   11f6d:	40                   	inc    %eax
   11f6e:	48                   	dec    %eax
   11f6f:	0e                   	push   %cs
   11f70:	30 45 0e             	xor    %al,0xe(%ebp)
   11f73:	3c 44                	cmp    $0x44,%al
   11f75:	0e                   	push   %cs
   11f76:	40                   	inc    %eax
   11f77:	48                   	dec    %eax
   11f78:	0e                   	push   %cs
   11f79:	30 00                	xor    %al,(%eax)
   11f7b:	00 2c 00             	add    %ch,(%eax,%eax,1)
   11f7e:	00 00                	add    %al,(%eax)
   11f80:	3c 01                	cmp    $0x1,%al
   11f82:	00 00                	add    %al,(%eax)
   11f84:	df a3 ff ff 07 01    	fbld   0x107ffff(%ebx)
   11f8a:	00 00                	add    %al,(%eax)
   11f8c:	00 41 0e             	add    %al,0xe(%ecx)
   11f8f:	08 85 02 42 0d 05    	or     %al,0x50d4202(%ebp)
   11f95:	46                   	inc    %esi
   11f96:	87 03                	xchg   %eax,(%ebx)
   11f98:	86 04 83             	xchg   %al,(%ebx,%eax,4)
   11f9b:	05 02 5f 0a c3       	add    $0xc30a5f02,%eax
   11fa0:	41                   	inc    %ecx
   11fa1:	c6 41 c7 41          	movb   $0x41,-0x39(%ecx)
   11fa5:	c5 0c 04             	lds    (%esp,%eax,1),%ecx
   11fa8:	04 41                	add    $0x41,%al
   11faa:	0b 00                	or     (%eax),%eax
   11fac:	20 01                	and    %al,(%ecx)
   11fae:	00 00                	add    %al,(%eax)
   11fb0:	6c                   	insb   (%dx),%es:(%edi)
   11fb1:	01 00                	add    %eax,(%eax)
   11fb3:	00 b6 a4 ff ff 24    	add    %dh,0x24ffffa4(%esi)
   11fb9:	06                   	push   %es
   11fba:	00 00                	add    %al,(%eax)
   11fbc:	00 41 0e             	add    %al,0xe(%ecx)
   11fbf:	08 85 02 41 0e 0c    	or     %al,0xc0e4102(%ebp)
   11fc5:	87 03                	xchg   %eax,(%ebx)
   11fc7:	41                   	inc    %ecx
   11fc8:	0e                   	push   %cs
   11fc9:	10 86 04 41 0e 14    	adc    %al,0x140e4104(%esi)
   11fcf:	83 05 46 0e e0 01 02 	addl   $0x2,0x1e00e46
   11fd6:	5c                   	pop    %esp
   11fd7:	0e                   	push   %cs
   11fd8:	ec                   	in     (%dx),%al
   11fd9:	01 41 0e             	add    %eax,0xe(%ecx)
   11fdc:	f0 01 4c 0e e0       	lock add %ecx,-0x20(%esi,%ecx,1)
   11fe1:	01 02                	add    %eax,(%edx)
   11fe3:	5b                   	pop    %ebx
   11fe4:	0e                   	push   %cs
   11fe5:	ec                   	in     (%dx),%al
   11fe6:	01 45 0e             	add    %eax,0xe(%ebp)
   11fe9:	f0 01 48 0e          	lock add %ecx,0xe(%eax)
   11fed:	e0 01                	loopne 0x11ff0
   11fef:	48                   	dec    %eax
   11ff0:	0e                   	push   %cs
   11ff1:	ec                   	in     (%dx),%al
   11ff2:	01 44 0e f0          	add    %eax,-0x10(%esi,%ecx,1)
   11ff6:	01 48 0e             	add    %ecx,0xe(%eax)
   11ff9:	e0 01                	loopne 0x11ffc
   11ffb:	5f                   	pop    %edi
   11ffc:	0e                   	push   %cs
   11ffd:	e8 01 49 0e ec       	call   0xec0f6903
   12002:	01 45 0e             	add    %eax,0xe(%ebp)
   12005:	f0 01 48 0e          	lock add %ecx,0xe(%eax)
   12009:	e0 01                	loopne 0x1200c
   1200b:	02 40 0e             	add    0xe(%eax),%al
   1200e:	ec                   	in     (%dx),%al
   1200f:	01 41 0e             	add    %eax,0xe(%ecx)
   12012:	f0 01 48 0e          	lock add %ecx,0xe(%eax)
   12016:	e0 01                	loopne 0x12019
   12018:	02 b3 0e ec 01 45    	add    0x4501ec0e(%ebx),%dh
   1201e:	0e                   	push   %cs
   1201f:	f0 01 66 0e          	lock add %esp,0xe(%esi)
   12023:	e0 01                	loopne 0x12026
   12025:	71 0e                	jno    0x12035
   12027:	ec                   	in     (%dx),%al
   12028:	01 44 0e f0          	add    %eax,-0x10(%esi,%ecx,1)
   1202c:	01 48 0e             	add    %ecx,0xe(%eax)
   1202f:	e0 01                	loopne 0x12032
   12031:	4d                   	dec    %ebp
   12032:	0e                   	push   %cs
   12033:	ec                   	in     (%dx),%al
   12034:	01 44 0e f0          	add    %eax,-0x10(%esi,%ecx,1)
   12038:	01 48 0e             	add    %ecx,0xe(%eax)
   1203b:	e0 01                	loopne 0x1203e
   1203d:	4d                   	dec    %ebp
   1203e:	0e                   	push   %cs
   1203f:	ec                   	in     (%dx),%al
   12040:	01 44 0e f0          	add    %eax,-0x10(%esi,%ecx,1)
   12044:	01 48 0e             	add    %ecx,0xe(%eax)
   12047:	e0 01                	loopne 0x1204a
   12049:	02 45 0e             	add    0xe(%ebp),%al
   1204c:	ec                   	in     (%dx),%al
   1204d:	01 42 0e             	add    %eax,0xe(%edx)
   12050:	f0 01 4b 0e          	lock add %ecx,0xe(%ebx)
   12054:	e0 01                	loopne 0x12057
   12056:	47                   	inc    %edi
   12057:	0e                   	push   %cs
   12058:	ec                   	in     (%dx),%al
   12059:	01 44 0e f0          	add    %eax,-0x10(%esi,%ecx,1)
   1205d:	01 48 0e             	add    %ecx,0xe(%eax)
   12060:	e0 01                	loopne 0x12063
   12062:	66 0e                	pushw  %cs
   12064:	ec                   	in     (%dx),%al
   12065:	01 41 0e             	add    %eax,0xe(%ecx)
   12068:	f0 01 48 0e          	lock add %ecx,0xe(%eax)
   1206c:	e0 01                	loopne 0x1206f
   1206e:	73 0e                	jae    0x1207e
   12070:	e8 01 41 0e ec       	call   0xec0f6176
   12075:	01 41 0e             	add    %eax,0xe(%ecx)
   12078:	f0 01 6d 0e          	lock add %ebp,0xe(%ebp)
   1207c:	e8 01 41 0e ec       	call   0xec0f6182
   12081:	01 41 0e             	add    %eax,0xe(%ecx)
   12084:	f0 01 4d 0e          	lock add %ecx,0xe(%ebp)
   12088:	e0 01                	loopne 0x1208b
   1208a:	02 ea                	add    %dl,%ch
   1208c:	0e                   	push   %cs
   1208d:	e8 01 41 0e ec       	call   0xec0f6193
   12092:	01 41 0e             	add    %eax,0xe(%ecx)
   12095:	f0 01 48 0e          	lock add %ecx,0xe(%eax)
   12099:	e0 01                	loopne 0x1209c
   1209b:	02 e6                	add    %dh,%ah
   1209d:	0e                   	push   %cs
   1209e:	e8 01 41 0e ec       	call   0xec0f61a4
   120a3:	01 45 0e             	add    %eax,0xe(%ebp)
   120a6:	f0 01 52 0e          	lock add %edx,0xe(%edx)
   120aa:	e0 01                	loopne 0x120ad
   120ac:	02 49 0a             	add    0xa(%ecx),%cl
   120af:	0e                   	push   %cs
   120b0:	14 41                	adc    $0x41,%al
   120b2:	c3                   	ret    
   120b3:	0e                   	push   %cs
   120b4:	10 41 c6             	adc    %al,-0x3a(%ecx)
   120b7:	0e                   	push   %cs
   120b8:	0c 41                	or     $0x41,%al
   120ba:	c7                   	(bad)  
   120bb:	0e                   	push   %cs
   120bc:	08 41 c5             	or     %al,-0x3b(%ecx)
   120bf:	0e                   	push   %cs
   120c0:	04 41                	add    $0x41,%al
   120c2:	0b 4d 0e             	or     0xe(%ebp),%ecx
   120c5:	ec                   	in     (%dx),%al
   120c6:	01 42 0e             	add    %eax,0xe(%edx)
   120c9:	f0 01 48 0e          	lock add %ecx,0xe(%eax)
   120cd:	e0 01                	loopne 0x120d0
   120cf:	00 14 00             	add    %dl,(%eax,%eax,1)
   120d2:	00 00                	add    %al,(%eax)
   120d4:	00 00                	add    %al,(%eax)
   120d6:	00 00                	add    %al,(%eax)
   120d8:	01 7a 52             	add    %edi,0x52(%edx)
   120db:	00 01                	add    %al,(%ecx)
   120dd:	7c 08                	jl     0x120e7
   120df:	01 1b                	add    %ebx,(%ebx)
   120e1:	0c 04                	or     $0x4,%al
   120e3:	04 88                	add    $0x88,%al
   120e5:	01 00                	add    %eax,(%eax)
   120e7:	00 44 00 00          	add    %al,0x0(%eax,%eax,1)
   120eb:	00 1c 00             	add    %bl,(%eax,%eax,1)
   120ee:	00 00                	add    %al,(%eax)
   120f0:	9e                   	sahf   
   120f1:	a9 ff ff 92 00       	test   $0x92ffff,%eax
   120f6:	00 00                	add    %al,(%eax)
   120f8:	00 41 0e             	add    %al,0xe(%ecx)
   120fb:	08 86 02 41 0e 0c    	or     %al,0xc0e4102(%esi)
   12101:	83 03 43             	addl   $0x43,(%ebx)
   12104:	0e                   	push   %cs
   12105:	10 52 0e             	adc    %dl,0xe(%edx)
   12108:	1c 41                	sbb    $0x41,%al
   1210a:	0e                   	push   %cs
   1210b:	20 48 0e             	and    %cl,0xe(%eax)
   1210e:	10 4a 0e             	adc    %cl,0xe(%edx)
   12111:	1c 41                	sbb    $0x41,%al
   12113:	0e                   	push   %cs
   12114:	20 4b 0e             	and    %cl,0xe(%ebx)
   12117:	10 77 0e             	adc    %dh,0xe(%edi)
   1211a:	1c 44                	sbb    $0x44,%al
   1211c:	0e                   	push   %cs
   1211d:	20 4e 0e             	and    %cl,0xe(%esi)
   12120:	10 43 0a             	adc    %al,0xa(%ebx)
   12123:	0e                   	push   %cs
   12124:	0c 41                	or     $0x41,%al
   12126:	c3                   	ret    
   12127:	0e                   	push   %cs
   12128:	08 41 c6             	or     %al,-0x3a(%ecx)
   1212b:	0e                   	push   %cs
   1212c:	04 41                	add    $0x41,%al
   1212e:	0b 00                	or     (%eax),%eax
   12130:	64 00 00             	add    %al,%fs:(%eax)
   12133:	00 64 00 00          	add    %ah,0x0(%eax,%eax,1)
   12137:	00 e8                	add    %ch,%al
   12139:	a9 ff ff f2 00       	test   $0xf2ffff,%eax
   1213e:	00 00                	add    %al,(%eax)
   12140:	00 41 0e             	add    %al,0xe(%ecx)
   12143:	08 85 02 41 0e 0c    	or     %al,0xc0e4102(%ebp)
   12149:	87 03                	xchg   %eax,(%ebx)
   1214b:	41                   	inc    %ecx
   1214c:	0e                   	push   %cs
   1214d:	10 86 04 41 0e 14    	adc    %al,0x140e4104(%esi)
   12153:	83 05 43 0e 3c 4c 0e 	addl   $0xe,0x4c3c0e43
   1215a:	40                   	inc    %eax
   1215b:	48                   	dec    %eax
   1215c:	0e                   	push   %cs
   1215d:	30 76 0e             	xor    %dh,0xe(%esi)
   12160:	3c 41                	cmp    $0x41,%al
   12162:	0e                   	push   %cs
   12163:	40                   	inc    %eax
   12164:	48                   	dec    %eax
   12165:	0e                   	push   %cs
   12166:	30 4a 0e             	xor    %cl,0xe(%edx)
   12169:	3c 41                	cmp    $0x41,%al
   1216b:	0e                   	push   %cs
   1216c:	40                   	inc    %eax
   1216d:	55                   	push   %ebp
   1216e:	0e                   	push   %cs
   1216f:	30 60 0e             	xor    %ah,0xe(%eax)
   12172:	3c 41                	cmp    $0x41,%al
   12174:	0e                   	push   %cs
   12175:	40                   	inc    %eax
   12176:	48                   	dec    %eax
   12177:	0e                   	push   %cs
   12178:	30 72 0a             	xor    %dh,0xa(%edx)
   1217b:	0e                   	push   %cs
   1217c:	14 41                	adc    $0x41,%al
   1217e:	c3                   	ret    
   1217f:	0e                   	push   %cs
   12180:	10 41 c6             	adc    %al,-0x3a(%ecx)
   12183:	0e                   	push   %cs
   12184:	0c 41                	or     $0x41,%al
   12186:	c7                   	(bad)  
   12187:	0e                   	push   %cs
   12188:	08 41 c5             	or     %al,-0x3b(%ecx)
   1218b:	0e                   	push   %cs
   1218c:	04 41                	add    $0x41,%al
   1218e:	0b 47 0e             	or     0xe(%edi),%eax
   12191:	3c 41                	cmp    $0x41,%al
   12193:	0e                   	push   %cs
   12194:	40                   	inc    %eax
   12195:	4e                   	dec    %esi
   12196:	0e                   	push   %cs
   12197:	30 2c 00             	xor    %ch,(%eax,%eax,1)
   1219a:	00 00                	add    %al,(%eax)
   1219c:	cc                   	int3   
   1219d:	00 00                	add    %al,(%eax)
   1219f:	00 72 aa             	add    %dh,-0x56(%edx)
   121a2:	ff                   	(bad)  
   121a3:	ff                   	(bad)  
   121a4:	7a 01                	jp     0x121a7
   121a6:	00 00                	add    %al,(%eax)
   121a8:	00 41 0e             	add    %al,0xe(%ecx)
   121ab:	08 86 02 41 0e 0c    	or     %al,0xc0e4102(%esi)
   121b1:	83 03 43             	addl   $0x43,(%ebx)
   121b4:	0e                   	push   %cs
   121b5:	30 02                	xor    %al,(%edx)
   121b7:	db 0a                	fisttpl (%edx)
   121b9:	0e                   	push   %cs
   121ba:	0c 41                	or     $0x41,%al
   121bc:	c3                   	ret    
   121bd:	0e                   	push   %cs
   121be:	08 41 c6             	or     %al,-0x3a(%ecx)
   121c1:	0e                   	push   %cs
   121c2:	04 41                	add    $0x41,%al
   121c4:	0b 00                	or     (%eax),%eax
   121c6:	00 00                	add    %al,(%eax)
   121c8:	14 00                	adc    $0x0,%al
   121ca:	00 00                	add    %al,(%eax)
   121cc:	00 00                	add    %al,(%eax)
   121ce:	00 00                	add    %al,(%eax)
   121d0:	01 7a 52             	add    %edi,0x52(%edx)
   121d3:	00 01                	add    %al,(%ecx)
   121d5:	7c 08                	jl     0x121df
   121d7:	01 1b                	add    %ebx,(%ebx)
   121d9:	0c 04                	or     $0x4,%al
   121db:	04 88                	add    $0x88,%al
   121dd:	01 00                	add    %eax,(%eax)
   121df:	00 3c 00             	add    %bh,(%eax,%eax,1)
   121e2:	00 00                	add    %al,(%eax)
   121e4:	1c 00                	sbb    $0x0,%al
   121e6:	00 00                	add    %al,(%eax)
   121e8:	a4                   	movsb  %ds:(%esi),%es:(%edi)
   121e9:	ab                   	stos   %eax,%es:(%edi)
   121ea:	ff                   	(bad)  
   121eb:	ff                   	(bad)  
   121ec:	7d 00                	jge    0x121ee
   121ee:	00 00                	add    %al,(%eax)
   121f0:	00 4e 0e             	add    %cl,0xe(%esi)
   121f3:	08 85 02 41 0e 0c    	or     %al,0xc0e4102(%ebp)
   121f9:	87 03                	xchg   %eax,(%ebx)
   121fb:	41                   	inc    %ecx
   121fc:	0e                   	push   %cs
   121fd:	10 86 04 41 0e 14    	adc    %al,0x140e4104(%esi)
   12203:	83 05 02 5b 0a c3 0e 	addl   $0xe,0xc30a5b02
   1220a:	10 41 c6             	adc    %al,-0x3a(%ecx)
   1220d:	0e                   	push   %cs
   1220e:	0c 41                	or     $0x41,%al
   12210:	c7                   	(bad)  
   12211:	0e                   	push   %cs
   12212:	08 41 c5             	or     %al,-0x3b(%ecx)
   12215:	0e                   	push   %cs
   12216:	04 41                	add    $0x41,%al
   12218:	0b 47 0e             	or     0xe(%edi),%eax
   1221b:	04 c3                	add    $0xc3,%al
   1221d:	c5 c6 c7             	(bad)  
   12220:	70 00                	jo     0x12222
   12222:	00 00                	add    %al,(%eax)
   12224:	5c                   	pop    %esp
   12225:	00 00                	add    %al,(%eax)
   12227:	00 e1                	add    %ah,%cl
   12229:	ab                   	stos   %eax,%es:(%edi)
   1222a:	ff                   	(bad)  
   1222b:	ff                   	(bad)  
   1222c:	3c 01                	cmp    $0x1,%al
   1222e:	00 00                	add    %al,(%eax)
   12230:	00 41 0e             	add    %al,0xe(%ecx)
   12233:	08 85 02 41 0e 0c    	or     %al,0xc0e4102(%ebp)
   12239:	87 03                	xchg   %eax,(%ebx)
   1223b:	41                   	inc    %ecx
   1223c:	0e                   	push   %cs
   1223d:	10 86 04 41 0e 14    	adc    %al,0x140e4104(%esi)
   12243:	83 05 43 0e 30 70 0e 	addl   $0xe,0x70300e43
   1224a:	38 41 0e             	cmp    %al,0xe(%ecx)
   1224d:	3c 45                	cmp    $0x45,%al
   1224f:	0e                   	push   %cs
   12250:	40                   	inc    %eax
   12251:	4a                   	dec    %edx
   12252:	0e                   	push   %cs
   12253:	30 71 0e             	xor    %dh,0xe(%ecx)
   12256:	3c 41                	cmp    $0x41,%al
   12258:	0e                   	push   %cs
   12259:	40                   	inc    %eax
   1225a:	4a                   	dec    %edx
   1225b:	0e                   	push   %cs
   1225c:	38 46 0e             	cmp    %al,0xe(%esi)
   1225f:	3c 44                	cmp    $0x44,%al
   12261:	0e                   	push   %cs
   12262:	40                   	inc    %eax
   12263:	48                   	dec    %eax
   12264:	0e                   	push   %cs
   12265:	30 47 0e             	xor    %al,0xe(%edi)
   12268:	38 41 0e             	cmp    %al,0xe(%ecx)
   1226b:	3c 49                	cmp    $0x49,%al
   1226d:	0e                   	push   %cs
   1226e:	40                   	inc    %eax
   1226f:	4a                   	dec    %edx
   12270:	0e                   	push   %cs
   12271:	30 02                	xor    %al,(%edx)
   12273:	66 0e                	pushw  %cs
   12275:	3c 41                	cmp    $0x41,%al
   12277:	0e                   	push   %cs
   12278:	40                   	inc    %eax
   12279:	48                   	dec    %eax
   1227a:	0e                   	push   %cs
   1227b:	30 4a 0a             	xor    %cl,0xa(%edx)
   1227e:	0e                   	push   %cs
   1227f:	14 41                	adc    $0x41,%al
   12281:	c3                   	ret    
   12282:	0e                   	push   %cs
   12283:	10 41 c6             	adc    %al,-0x3a(%ecx)
   12286:	0e                   	push   %cs
   12287:	0c 41                	or     $0x41,%al
   12289:	c7                   	(bad)  
   1228a:	0e                   	push   %cs
   1228b:	08 41 c5             	or     %al,-0x3b(%ecx)
   1228e:	0e                   	push   %cs
   1228f:	04 41                	add    $0x41,%al
   12291:	0b 00                	or     (%eax),%eax
   12293:	00 7c 00 00          	add    %bh,0x0(%eax,%eax,1)
   12297:	00 d0                	add    %dl,%al
   12299:	00 00                	add    %al,(%eax)
   1229b:	00 a9 ac ff ff ae    	add    %ch,-0x51000054(%ecx)
   122a1:	01 00                	add    %eax,(%eax)
   122a3:	00 00                	add    %al,(%eax)
   122a5:	41                   	inc    %ecx
   122a6:	0e                   	push   %cs
   122a7:	08 85 02 41 0e 0c    	or     %al,0xc0e4102(%ebp)
   122ad:	87 03                	xchg   %eax,(%ebx)
   122af:	41                   	inc    %ecx
   122b0:	0e                   	push   %cs
   122b1:	10 86 04 41 0e 14    	adc    %al,0x140e4104(%esi)
   122b7:	83 05 43 0e 40 6f 0e 	addl   $0xe,0x6f400e43
   122be:	4c                   	dec    %esp
   122bf:	45                   	inc    %ebp
   122c0:	0e                   	push   %cs
   122c1:	50                   	push   %eax
   122c2:	48                   	dec    %eax
   122c3:	0e                   	push   %cs
   122c4:	40                   	inc    %eax
   122c5:	59                   	pop    %ecx
   122c6:	0e                   	push   %cs
   122c7:	4c                   	dec    %esp
   122c8:	45                   	inc    %ebp
   122c9:	0e                   	push   %cs
   122ca:	50                   	push   %eax
   122cb:	48                   	dec    %eax
   122cc:	0e                   	push   %cs
   122cd:	40                   	inc    %eax
   122ce:	02 41 0e             	add    0xe(%ecx),%al
   122d1:	4c                   	dec    %esp
   122d2:	45                   	inc    %ebp
   122d3:	0e                   	push   %cs
   122d4:	50                   	push   %eax
   122d5:	4c                   	dec    %esp
   122d6:	0e                   	push   %cs
   122d7:	40                   	inc    %eax
   122d8:	56                   	push   %esi
   122d9:	0e                   	push   %cs
   122da:	4c                   	dec    %esp
   122db:	41                   	inc    %ecx
   122dc:	0e                   	push   %cs
   122dd:	50                   	push   %eax
   122de:	50                   	push   %eax
   122df:	0e                   	push   %cs
   122e0:	48                   	dec    %eax
   122e1:	41                   	inc    %ecx
   122e2:	0e                   	push   %cs
   122e3:	4c                   	dec    %esp
   122e4:	41                   	inc    %ecx
   122e5:	0e                   	push   %cs
   122e6:	50                   	push   %eax
   122e7:	4a                   	dec    %edx
   122e8:	0e                   	push   %cs
   122e9:	40                   	inc    %eax
   122ea:	02 4f 0e             	add    0xe(%edi),%cl
   122ed:	4c                   	dec    %esp
   122ee:	41                   	inc    %ecx
   122ef:	0e                   	push   %cs
   122f0:	50                   	push   %eax
   122f1:	48                   	dec    %eax
   122f2:	0e                   	push   %cs
   122f3:	40                   	inc    %eax
   122f4:	4a                   	dec    %edx
   122f5:	0e                   	push   %cs
   122f6:	4c                   	dec    %esp
   122f7:	41                   	inc    %ecx
   122f8:	0e                   	push   %cs
   122f9:	50                   	push   %eax
   122fa:	48                   	dec    %eax
   122fb:	0e                   	push   %cs
   122fc:	40                   	inc    %eax
   122fd:	02 4b 0a             	add    0xa(%ebx),%cl
   12300:	0e                   	push   %cs
   12301:	14 41                	adc    $0x41,%al
   12303:	c3                   	ret    
   12304:	0e                   	push   %cs
   12305:	10 41 c6             	adc    %al,-0x3a(%ecx)
   12308:	0e                   	push   %cs
   12309:	0c 41                	or     $0x41,%al
   1230b:	c7                   	(bad)  
   1230c:	0e                   	push   %cs
   1230d:	08 41 c5             	or     %al,-0x3b(%ecx)
   12310:	0e                   	push   %cs
   12311:	04 41                	add    $0x41,%al
   12313:	0b 68 00             	or     0x0(%eax),%ebp
   12316:	00 00                	add    %al,(%eax)
   12318:	50                   	push   %eax
   12319:	01 00                	add    %eax,(%eax)
   1231b:	00 d7                	add    %dl,%bh
   1231d:	ad                   	lods   %ds:(%esi),%eax
   1231e:	ff                   	(bad)  
   1231f:	ff 68 01             	ljmp   *0x1(%eax)
   12322:	00 00                	add    %al,(%eax)
   12324:	00 41 0e             	add    %al,0xe(%ecx)
   12327:	08 85 02 41 0e 0c    	or     %al,0xc0e4102(%ebp)
   1232d:	87 03                	xchg   %eax,(%ebx)
   1232f:	41                   	inc    %ecx
   12330:	0e                   	push   %cs
   12331:	10 86 04 41 0e 14    	adc    %al,0x140e4104(%esi)
   12337:	83 05 43 0e 30 02 40 	addl   $0x40,0x2300e43
   1233e:	0e                   	push   %cs
   1233f:	38 41 0e             	cmp    %al,0xe(%ecx)
   12342:	3c 45                	cmp    $0x45,%al
   12344:	0e                   	push   %cs
   12345:	40                   	inc    %eax
   12346:	4a                   	dec    %edx
   12347:	0e                   	push   %cs
   12348:	30 54 0e 3c          	xor    %dl,0x3c(%esi,%ecx,1)
   1234c:	41                   	inc    %ecx
   1234d:	0e                   	push   %cs
   1234e:	40                   	inc    %eax
   1234f:	48                   	dec    %eax
   12350:	0e                   	push   %cs
   12351:	38 46 0e             	cmp    %al,0xe(%esi)
   12354:	3c 41                	cmp    $0x41,%al
   12356:	0e                   	push   %cs
   12357:	40                   	inc    %eax
   12358:	48                   	dec    %eax
   12359:	0e                   	push   %cs
   1235a:	30 4b 0e             	xor    %cl,0xe(%ebx)
   1235d:	38 41 0e             	cmp    %al,0xe(%ecx)
   12360:	3c 45                	cmp    $0x45,%al
   12362:	0e                   	push   %cs
   12363:	40                   	inc    %eax
   12364:	4a                   	dec    %edx
   12365:	0e                   	push   %cs
   12366:	30 02                	xor    %al,(%edx)
   12368:	b7 0a                	mov    $0xa,%bh
   1236a:	0e                   	push   %cs
   1236b:	14 41                	adc    $0x41,%al
   1236d:	c3                   	ret    
   1236e:	0e                   	push   %cs
   1236f:	10 41 c6             	adc    %al,-0x3a(%ecx)
   12372:	0e                   	push   %cs
   12373:	0c 41                	or     $0x41,%al
   12375:	c7                   	(bad)  
   12376:	0e                   	push   %cs
   12377:	08 41 c5             	or     %al,-0x3b(%ecx)
   1237a:	0e                   	push   %cs
   1237b:	04 41                	add    $0x41,%al
   1237d:	0b 00                	or     (%eax),%eax
   1237f:	00 58 00             	add    %bl,0x0(%eax)
   12382:	00 00                	add    %al,(%eax)
   12384:	bc 01 00 00 d3       	mov    $0xd3000001,%esp
   12389:	ae                   	scas   %es:(%edi),%al
   1238a:	ff                   	(bad)  
   1238b:	ff d6                	call   *%esi
   1238d:	00 00                	add    %al,(%eax)
   1238f:	00 00                	add    %al,(%eax)
   12391:	41                   	inc    %ecx
   12392:	0e                   	push   %cs
   12393:	08 87 02 41 0e 0c    	or     %al,0xc0e4102(%edi)
   12399:	86 03                	xchg   %al,(%ebx)
   1239b:	41                   	inc    %ecx
   1239c:	0e                   	push   %cs
   1239d:	10 83 04 43 0e 20    	adc    %al,0x200e4304(%ebx)
   123a3:	7f 0a                	jg     0x123af
   123a5:	0e                   	push   %cs
   123a6:	10 41 c3             	adc    %al,-0x3d(%ecx)
   123a9:	0e                   	push   %cs
   123aa:	0c 41                	or     $0x41,%al
   123ac:	c6                   	(bad)  
   123ad:	0e                   	push   %cs
   123ae:	08 41 c7             	or     %al,-0x39(%ecx)
   123b1:	0e                   	push   %cs
   123b2:	04 41                	add    $0x41,%al
   123b4:	0b 43 0e             	or     0xe(%ebx),%eax
   123b7:	2c 45                	sub    $0x45,%al
   123b9:	0e                   	push   %cs
   123ba:	30 4e 0e             	xor    %cl,0xe(%esi)
   123bd:	20 52 0e             	and    %dl,0xe(%edx)
   123c0:	2c 41                	sub    $0x41,%al
   123c2:	0e                   	push   %cs
   123c3:	30 50 0e             	xor    %dl,0xe(%eax)
   123c6:	28 41 0e             	sub    %al,0xe(%ecx)
   123c9:	2c 41                	sub    $0x41,%al
   123cb:	0e                   	push   %cs
   123cc:	30 4a 0e             	xor    %cl,0xe(%edx)
   123cf:	20 70 0e             	and    %dh,0xe(%eax)
   123d2:	2c 41                	sub    $0x41,%al
   123d4:	0e                   	push   %cs
   123d5:	30 48 0e             	xor    %cl,0xe(%eax)
   123d8:	20 00                	and    %al,(%eax)
   123da:	00 00                	add    %al,(%eax)
   123dc:	b4 00                	mov    $0x0,%ah
   123de:	00 00                	add    %al,(%eax)
   123e0:	18 02                	sbb    %al,(%edx)
   123e2:	00 00                	add    %al,(%eax)
   123e4:	4d                   	dec    %ebp
   123e5:	af                   	scas   %es:(%edi),%eax
   123e6:	ff                   	(bad)  
   123e7:	ff c0                	inc    %eax
   123e9:	02 00                	add    (%eax),%al
   123eb:	00 00                	add    %al,(%eax)
   123ed:	41                   	inc    %ecx
   123ee:	0e                   	push   %cs
   123ef:	08 85 02 41 0e 0c    	or     %al,0xc0e4102(%ebp)
   123f5:	87 03                	xchg   %eax,(%ebx)
   123f7:	41                   	inc    %ecx
   123f8:	0e                   	push   %cs
   123f9:	10 86 04 41 0e 14    	adc    %al,0x140e4104(%esi)
   123ff:	83 05 43 0e 40 02 76 	addl   $0x76,0x2400e43
   12406:	0a 0e                	or     (%esi),%cl
   12408:	14 41                	adc    $0x41,%al
   1240a:	c3                   	ret    
   1240b:	0e                   	push   %cs
   1240c:	10 41 c6             	adc    %al,-0x3a(%ecx)
   1240f:	0e                   	push   %cs
   12410:	0c 41                	or     $0x41,%al
   12412:	c7                   	(bad)  
   12413:	0e                   	push   %cs
   12414:	08 41 c5             	or     %al,-0x3b(%ecx)
   12417:	0e                   	push   %cs
   12418:	04 41                	add    $0x41,%al
   1241a:	0b 4a 0e             	or     0xe(%edx),%ecx
   1241d:	4c                   	dec    %esp
   1241e:	41                   	inc    %ecx
   1241f:	0e                   	push   %cs
   12420:	50                   	push   %eax
   12421:	48                   	dec    %eax
   12422:	0e                   	push   %cs
   12423:	40                   	inc    %eax
   12424:	4a                   	dec    %edx
   12425:	0e                   	push   %cs
   12426:	4c                   	dec    %esp
   12427:	45                   	inc    %ebp
   12428:	0e                   	push   %cs
   12429:	50                   	push   %eax
   1242a:	4e                   	dec    %esi
   1242b:	0e                   	push   %cs
   1242c:	40                   	inc    %eax
   1242d:	5a                   	pop    %edx
   1242e:	0e                   	push   %cs
   1242f:	4c                   	dec    %esp
   12430:	41                   	inc    %ecx
   12431:	0e                   	push   %cs
   12432:	50                   	push   %eax
   12433:	50                   	push   %eax
   12434:	0e                   	push   %cs
   12435:	40                   	inc    %eax
   12436:	53                   	push   %ebx
   12437:	0e                   	push   %cs
   12438:	48                   	dec    %eax
   12439:	41                   	inc    %ecx
   1243a:	0e                   	push   %cs
   1243b:	4c                   	dec    %esp
   1243c:	44                   	inc    %esp
   1243d:	0e                   	push   %cs
   1243e:	50                   	push   %eax
   1243f:	4a                   	dec    %edx
   12440:	0e                   	push   %cs
   12441:	40                   	inc    %eax
   12442:	02 8f 0e 4c 45 0e    	add    0xe454c0e(%edi),%cl
   12448:	50                   	push   %eax
   12449:	4a                   	dec    %edx
   1244a:	0e                   	push   %cs
   1244b:	40                   	inc    %eax
   1244c:	61                   	popa   
   1244d:	0e                   	push   %cs
   1244e:	4c                   	dec    %esp
   1244f:	45                   	inc    %ebp
   12450:	0e                   	push   %cs
   12451:	50                   	push   %eax
   12452:	52                   	push   %edx
   12453:	0e                   	push   %cs
   12454:	40                   	inc    %eax
   12455:	56                   	push   %esi
   12456:	0e                   	push   %cs
   12457:	4c                   	dec    %esp
   12458:	41                   	inc    %ecx
   12459:	0e                   	push   %cs
   1245a:	50                   	push   %eax
   1245b:	52                   	push   %edx
   1245c:	0e                   	push   %cs
   1245d:	40                   	inc    %eax
   1245e:	4d                   	dec    %ebp
   1245f:	0e                   	push   %cs
   12460:	4c                   	dec    %esp
   12461:	41                   	inc    %ecx
   12462:	0e                   	push   %cs
   12463:	50                   	push   %eax
   12464:	48                   	dec    %eax
   12465:	0e                   	push   %cs
   12466:	40                   	inc    %eax
   12467:	4d                   	dec    %ebp
   12468:	0e                   	push   %cs
   12469:	4c                   	dec    %esp
   1246a:	41                   	inc    %ecx
   1246b:	0e                   	push   %cs
   1246c:	50                   	push   %eax
   1246d:	48                   	dec    %eax
   1246e:	0e                   	push   %cs
   1246f:	40                   	inc    %eax
   12470:	4d                   	dec    %ebp
   12471:	0e                   	push   %cs
   12472:	4c                   	dec    %esp
   12473:	41                   	inc    %ecx
   12474:	0e                   	push   %cs
   12475:	50                   	push   %eax
   12476:	48                   	dec    %eax
   12477:	0e                   	push   %cs
   12478:	40                   	inc    %eax
   12479:	50                   	push   %eax
   1247a:	0e                   	push   %cs
   1247b:	4c                   	dec    %esp
   1247c:	41                   	inc    %ecx
   1247d:	0e                   	push   %cs
   1247e:	50                   	push   %eax
   1247f:	50                   	push   %eax
   12480:	0e                   	push   %cs
   12481:	40                   	inc    %eax
   12482:	58                   	pop    %eax
   12483:	0e                   	push   %cs
   12484:	4c                   	dec    %esp
   12485:	41                   	inc    %ecx
   12486:	0e                   	push   %cs
   12487:	50                   	push   %eax
   12488:	48                   	dec    %eax
   12489:	0e                   	push   %cs
   1248a:	40                   	inc    %eax
   1248b:	4d                   	dec    %ebp
   1248c:	0e                   	push   %cs
   1248d:	4c                   	dec    %esp
   1248e:	41                   	inc    %ecx
   1248f:	0e                   	push   %cs
   12490:	50                   	push   %eax
   12491:	48                   	dec    %eax
   12492:	0e                   	push   %cs
   12493:	40                   	inc    %eax
   12494:	cc                   	int3   
   12495:	00 00                	add    %al,(%eax)
   12497:	00 d0                	add    %dl,%al
   12499:	02 00                	add    (%eax),%al
   1249b:	00 55 b1             	add    %dl,-0x4f(%ebp)
   1249e:	ff                   	(bad)  
   1249f:	ff                   	(bad)  
   124a0:	e8 02 00 00 00       	call   0x124a7
   124a5:	41                   	inc    %ecx
   124a6:	0e                   	push   %cs
   124a7:	08 85 02 41 0e 0c    	or     %al,0xc0e4102(%ebp)
   124ad:	87 03                	xchg   %eax,(%ebx)
   124af:	41                   	inc    %ecx
   124b0:	0e                   	push   %cs
   124b1:	10 86 04 41 0e 14    	adc    %al,0x140e4104(%esi)
   124b7:	83 05 43 0e 30 02 65 	addl   $0x65,0x2300e43
   124be:	0e                   	push   %cs
   124bf:	3c 45                	cmp    $0x45,%al
   124c1:	0e                   	push   %cs
   124c2:	40                   	inc    %eax
   124c3:	50                   	push   %eax
   124c4:	0e                   	push   %cs
   124c5:	30 4b 0e             	xor    %cl,0xe(%ebx)
   124c8:	3c 45                	cmp    $0x45,%al
   124ca:	0e                   	push   %cs
   124cb:	40                   	inc    %eax
   124cc:	4a                   	dec    %edx
   124cd:	0e                   	push   %cs
   124ce:	30 79 0e             	xor    %bh,0xe(%ecx)
   124d1:	3c 45                	cmp    $0x45,%al
   124d3:	0e                   	push   %cs
   124d4:	40                   	inc    %eax
   124d5:	4c                   	dec    %esp
   124d6:	0e                   	push   %cs
   124d7:	30 50 0e             	xor    %dl,0xe(%eax)
   124da:	38 44 0e 3c          	cmp    %al,0x3c(%esi,%ecx,1)
   124de:	45                   	inc    %ebp
   124df:	0e                   	push   %cs
   124e0:	40                   	inc    %eax
   124e1:	4a                   	dec    %edx
   124e2:	0e                   	push   %cs
   124e3:	30 02                	xor    %al,(%edx)
   124e5:	51                   	push   %ecx
   124e6:	0e                   	push   %cs
   124e7:	3c 41                	cmp    $0x41,%al
   124e9:	0e                   	push   %cs
   124ea:	40                   	inc    %eax
   124eb:	68 0e 3c 45 0e       	push   $0xe453c0e
   124f0:	40                   	inc    %eax
   124f1:	54                   	push   %esp
   124f2:	0e                   	push   %cs
   124f3:	30 61 0e             	xor    %ah,0xe(%ecx)
   124f6:	3c 41                	cmp    $0x41,%al
   124f8:	0e                   	push   %cs
   124f9:	40                   	inc    %eax
   124fa:	58                   	pop    %eax
   124fb:	0e                   	push   %cs
   124fc:	30 59 0a             	xor    %bl,0xa(%ecx)
   124ff:	0e                   	push   %cs
   12500:	14 41                	adc    $0x41,%al
   12502:	c3                   	ret    
   12503:	0e                   	push   %cs
   12504:	10 41 c6             	adc    %al,-0x3a(%ecx)
   12507:	0e                   	push   %cs
   12508:	0c 41                	or     $0x41,%al
   1250a:	c7                   	(bad)  
   1250b:	0e                   	push   %cs
   1250c:	08 41 c5             	or     %al,-0x3b(%ecx)
   1250f:	0e                   	push   %cs
   12510:	04 41                	add    $0x41,%al
   12512:	0b 43 0e             	or     0xe(%ebx),%eax
   12515:	3c 41                	cmp    $0x41,%al
   12517:	0e                   	push   %cs
   12518:	40                   	inc    %eax
   12519:	48                   	dec    %eax
   1251a:	0e                   	push   %cs
   1251b:	30 4a 0e             	xor    %cl,0xe(%edx)
   1251e:	3c 41                	cmp    $0x41,%al
   12520:	0e                   	push   %cs
   12521:	40                   	inc    %eax
   12522:	48                   	dec    %eax
   12523:	0e                   	push   %cs
   12524:	30 4a 0e             	xor    %cl,0xe(%edx)
   12527:	3c 41                	cmp    $0x41,%al
   12529:	0e                   	push   %cs
   1252a:	40                   	inc    %eax
   1252b:	50                   	push   %eax
   1252c:	0e                   	push   %cs
   1252d:	30 4a 0e             	xor    %cl,0xe(%edx)
   12530:	3c 41                	cmp    $0x41,%al
   12532:	0e                   	push   %cs
   12533:	40                   	inc    %eax
   12534:	48                   	dec    %eax
   12535:	0e                   	push   %cs
   12536:	30 4a 0e             	xor    %cl,0xe(%edx)
   12539:	3c 41                	cmp    $0x41,%al
   1253b:	0e                   	push   %cs
   1253c:	40                   	inc    %eax
   1253d:	53                   	push   %ebx
   1253e:	0e                   	push   %cs
   1253f:	30 4d 0e             	xor    %cl,0xe(%ebp)
   12542:	3c 41                	cmp    $0x41,%al
   12544:	0e                   	push   %cs
   12545:	40                   	inc    %eax
   12546:	48                   	dec    %eax
   12547:	0e                   	push   %cs
   12548:	38 45 0e             	cmp    %al,0xe(%ebp)
   1254b:	3c 45                	cmp    $0x45,%al
   1254d:	0e                   	push   %cs
   1254e:	40                   	inc    %eax
   1254f:	53                   	push   %ebx
   12550:	0e                   	push   %cs
   12551:	30 4d 0e             	xor    %cl,0xe(%ebp)
   12554:	3c 41                	cmp    $0x41,%al
   12556:	0e                   	push   %cs
   12557:	40                   	inc    %eax
   12558:	48                   	dec    %eax
   12559:	0e                   	push   %cs
   1255a:	38 45 0e             	cmp    %al,0xe(%ebp)
   1255d:	3c 45                	cmp    $0x45,%al
   1255f:	0e                   	push   %cs
   12560:	40                   	inc    %eax
   12561:	54                   	push   %esp
   12562:	0e                   	push   %cs
   12563:	30 1c 01             	xor    %bl,(%ecx,%eax,1)
   12566:	00 00                	add    %al,(%eax)
   12568:	a0 03 00 00 6d       	mov    0x6d000003,%al
   1256d:	b3 ff                	mov    $0xff,%bl
   1256f:	ff cd                	dec    %ebp
   12571:	03 00                	add    (%eax),%eax
   12573:	00 00                	add    %al,(%eax)
   12575:	41                   	inc    %ecx
   12576:	0e                   	push   %cs
   12577:	08 85 02 41 0e 0c    	or     %al,0xc0e4102(%ebp)
   1257d:	87 03                	xchg   %eax,(%ebx)
   1257f:	41                   	inc    %ecx
   12580:	0e                   	push   %cs
   12581:	10 86 04 41 0e 14    	adc    %al,0x140e4104(%esi)
   12587:	83 05 43 0e 40 02 55 	addl   $0x55,0x2400e43
   1258e:	0e                   	push   %cs
   1258f:	4c                   	dec    %esp
   12590:	45                   	inc    %ebp
   12591:	0e                   	push   %cs
   12592:	50                   	push   %eax
   12593:	52                   	push   %edx
   12594:	0e                   	push   %cs
   12595:	40                   	inc    %eax
   12596:	5f                   	pop    %edi
   12597:	0e                   	push   %cs
   12598:	48                   	dec    %eax
   12599:	48                   	dec    %eax
   1259a:	0e                   	push   %cs
   1259b:	4c                   	dec    %esp
   1259c:	45                   	inc    %ebp
   1259d:	0e                   	push   %cs
   1259e:	50                   	push   %eax
   1259f:	4a                   	dec    %edx
   125a0:	0e                   	push   %cs
   125a1:	40                   	inc    %eax
   125a2:	02 40 0e             	add    0xe(%eax),%al
   125a5:	48                   	dec    %eax
   125a6:	45                   	inc    %ebp
   125a7:	0e                   	push   %cs
   125a8:	4c                   	dec    %esp
   125a9:	45                   	inc    %ebp
   125aa:	0e                   	push   %cs
   125ab:	50                   	push   %eax
   125ac:	48                   	dec    %eax
   125ad:	0e                   	push   %cs
   125ae:	40                   	inc    %eax
   125af:	43                   	inc    %ebx
   125b0:	0e                   	push   %cs
   125b1:	4c                   	dec    %esp
   125b2:	41                   	inc    %ecx
   125b3:	0e                   	push   %cs
   125b4:	50                   	push   %eax
   125b5:	50                   	push   %eax
   125b6:	0e                   	push   %cs
   125b7:	4c                   	dec    %esp
   125b8:	44                   	inc    %esp
   125b9:	0e                   	push   %cs
   125ba:	50                   	push   %eax
   125bb:	48                   	dec    %eax
   125bc:	0e                   	push   %cs
   125bd:	40                   	inc    %eax
   125be:	5b                   	pop    %ebx
   125bf:	0a 0e                	or     (%esi),%cl
   125c1:	14 41                	adc    $0x41,%al
   125c3:	c3                   	ret    
   125c4:	0e                   	push   %cs
   125c5:	10 41 c6             	adc    %al,-0x3a(%ecx)
   125c8:	0e                   	push   %cs
   125c9:	0c 41                	or     $0x41,%al
   125cb:	c7                   	(bad)  
   125cc:	0e                   	push   %cs
   125cd:	08 41 c5             	or     %al,-0x3b(%ecx)
   125d0:	0e                   	push   %cs
   125d1:	04 41                	add    $0x41,%al
   125d3:	0b 43 0e             	or     0xe(%ebx),%eax
   125d6:	4c                   	dec    %esp
   125d7:	41                   	inc    %ecx
   125d8:	0e                   	push   %cs
   125d9:	50                   	push   %eax
   125da:	48                   	dec    %eax
   125db:	0e                   	push   %cs
   125dc:	40                   	inc    %eax
   125dd:	4a                   	dec    %edx
   125de:	0e                   	push   %cs
   125df:	4c                   	dec    %esp
   125e0:	41                   	inc    %ecx
   125e1:	0e                   	push   %cs
   125e2:	50                   	push   %eax
   125e3:	48                   	dec    %eax
   125e4:	0e                   	push   %cs
   125e5:	40                   	inc    %eax
   125e6:	4a                   	dec    %edx
   125e7:	0e                   	push   %cs
   125e8:	4c                   	dec    %esp
   125e9:	41                   	inc    %ecx
   125ea:	0e                   	push   %cs
   125eb:	50                   	push   %eax
   125ec:	48                   	dec    %eax
   125ed:	0e                   	push   %cs
   125ee:	4c                   	dec    %esp
   125ef:	44                   	inc    %esp
   125f0:	0e                   	push   %cs
   125f1:	50                   	push   %eax
   125f2:	48                   	dec    %eax
   125f3:	0e                   	push   %cs
   125f4:	40                   	inc    %eax
   125f5:	4a                   	dec    %edx
   125f6:	0e                   	push   %cs
   125f7:	4c                   	dec    %esp
   125f8:	41                   	inc    %ecx
   125f9:	0e                   	push   %cs
   125fa:	50                   	push   %eax
   125fb:	48                   	dec    %eax
   125fc:	0e                   	push   %cs
   125fd:	4c                   	dec    %esp
   125fe:	44                   	inc    %esp
   125ff:	0e                   	push   %cs
   12600:	50                   	push   %eax
   12601:	48                   	dec    %eax
   12602:	0e                   	push   %cs
   12603:	40                   	inc    %eax
   12604:	4a                   	dec    %edx
   12605:	0e                   	push   %cs
   12606:	4c                   	dec    %esp
   12607:	41                   	inc    %ecx
   12608:	0e                   	push   %cs
   12609:	50                   	push   %eax
   1260a:	50                   	push   %eax
   1260b:	0e                   	push   %cs
   1260c:	4c                   	dec    %esp
   1260d:	44                   	inc    %esp
   1260e:	0e                   	push   %cs
   1260f:	50                   	push   %eax
   12610:	48                   	dec    %eax
   12611:	0e                   	push   %cs
   12612:	40                   	inc    %eax
   12613:	4d                   	dec    %ebp
   12614:	0e                   	push   %cs
   12615:	4c                   	dec    %esp
   12616:	41                   	inc    %ecx
   12617:	0e                   	push   %cs
   12618:	50                   	push   %eax
   12619:	50                   	push   %eax
   1261a:	0e                   	push   %cs
   1261b:	4c                   	dec    %esp
   1261c:	44                   	inc    %esp
   1261d:	0e                   	push   %cs
   1261e:	50                   	push   %eax
   1261f:	48                   	dec    %eax
   12620:	0e                   	push   %cs
   12621:	40                   	inc    %eax
   12622:	4d                   	dec    %ebp
   12623:	0e                   	push   %cs
   12624:	48                   	dec    %eax
   12625:	44                   	inc    %esp
   12626:	0e                   	push   %cs
   12627:	4c                   	dec    %esp
   12628:	45                   	inc    %ebp
   12629:	0e                   	push   %cs
   1262a:	50                   	push   %eax
   1262b:	4a                   	dec    %edx
   1262c:	0e                   	push   %cs
   1262d:	40                   	inc    %eax
   1262e:	02 84 0e 48 45 0e 4c 	add    0x4c0e4548(%esi,%ecx,1),%al
   12635:	45                   	inc    %ebp
   12636:	0e                   	push   %cs
   12637:	50                   	push   %eax
   12638:	48                   	dec    %eax
   12639:	0e                   	push   %cs
   1263a:	40                   	inc    %eax
   1263b:	48                   	dec    %eax
   1263c:	0e                   	push   %cs
   1263d:	48                   	dec    %eax
   1263e:	41                   	inc    %ecx
   1263f:	0e                   	push   %cs
   12640:	4c                   	dec    %esp
   12641:	45                   	inc    %ebp
   12642:	0e                   	push   %cs
   12643:	50                   	push   %eax
   12644:	4a                   	dec    %edx
   12645:	0e                   	push   %cs
   12646:	40                   	inc    %eax
   12647:	68 0e 4c 41 0e       	push   $0xe414c0e
   1264c:	50                   	push   %eax
   1264d:	48                   	dec    %eax
   1264e:	0e                   	push   %cs
   1264f:	48                   	dec    %eax
   12650:	46                   	inc    %esi
   12651:	0e                   	push   %cs
   12652:	4c                   	dec    %esp
   12653:	41                   	inc    %ecx
   12654:	0e                   	push   %cs
   12655:	50                   	push   %eax
   12656:	48                   	dec    %eax
   12657:	0e                   	push   %cs
   12658:	40                   	inc    %eax
   12659:	50                   	push   %eax
   1265a:	0e                   	push   %cs
   1265b:	4c                   	dec    %esp
   1265c:	41                   	inc    %ecx
   1265d:	0e                   	push   %cs
   1265e:	50                   	push   %eax
   1265f:	48                   	dec    %eax
   12660:	0e                   	push   %cs
   12661:	40                   	inc    %eax
   12662:	52                   	push   %edx
   12663:	0e                   	push   %cs
   12664:	4c                   	dec    %esp
   12665:	41                   	inc    %ecx
   12666:	0e                   	push   %cs
   12667:	50                   	push   %eax
   12668:	4b                   	dec    %ebx
   12669:	0e                   	push   %cs
   1266a:	40                   	inc    %eax
   1266b:	57                   	push   %edi
   1266c:	0e                   	push   %cs
   1266d:	4c                   	dec    %esp
   1266e:	41                   	inc    %ecx
   1266f:	0e                   	push   %cs
   12670:	50                   	push   %eax
   12671:	02 4a 0e             	add    0xe(%edx),%cl
   12674:	40                   	inc    %eax
   12675:	48                   	dec    %eax
   12676:	0e                   	push   %cs
   12677:	48                   	dec    %eax
   12678:	44                   	inc    %esp
   12679:	0e                   	push   %cs
   1267a:	4c                   	dec    %esp
   1267b:	45                   	inc    %ebp
   1267c:	0e                   	push   %cs
   1267d:	50                   	push   %eax
   1267e:	48                   	dec    %eax
   1267f:	0e                   	push   %cs
   12680:	40                   	inc    %eax
   12681:	00 00                	add    %al,(%eax)
   12683:	00 94 00 00 00 c0 04 	add    %dl,0x4c00000(%eax,%eax,1)
   1268a:	00 00                	add    %al,(%eax)
   1268c:	1a b6 ff ff dc 01    	sbb    0x1dcffff(%esi),%dh
   12692:	00 00                	add    %al,(%eax)
   12694:	00 41 0e             	add    %al,0xe(%ecx)
   12697:	08 87 02 41 0e 0c    	or     %al,0xc0e4102(%edi)
   1269d:	86 03                	xchg   %al,(%ebx)
   1269f:	41                   	inc    %ecx
   126a0:	0e                   	push   %cs
   126a1:	10 83 04 43 0e 20    	adc    %al,0x200e4304(%ebx)
   126a7:	02 46 0e             	add    0xe(%esi),%al
   126aa:	2c 45                	sub    $0x45,%al
   126ac:	0e                   	push   %cs
   126ad:	30 52 0e             	xor    %dl,0xe(%edx)
   126b0:	20 4b 0e             	and    %cl,0xe(%ebx)
   126b3:	28 48 0e             	sub    %cl,0xe(%eax)
   126b6:	2c 45                	sub    $0x45,%al
   126b8:	0e                   	push   %cs
   126b9:	30 4a 0e             	xor    %cl,0xe(%edx)
   126bc:	20 73 0e             	and    %dh,0xe(%ebx)
   126bf:	2c 41                	sub    $0x41,%al
   126c1:	0e                   	push   %cs
   126c2:	30 7f 0e             	xor    %bh,0xe(%edi)
   126c5:	20 59 0a             	and    %bl,0xa(%ecx)
   126c8:	0e                   	push   %cs
   126c9:	10 41 c3             	adc    %al,-0x3d(%ecx)
   126cc:	0e                   	push   %cs
   126cd:	0c 41                	or     $0x41,%al
   126cf:	c6                   	(bad)  
   126d0:	0e                   	push   %cs
   126d1:	08 41 c7             	or     %al,-0x39(%ecx)
   126d4:	0e                   	push   %cs
   126d5:	04 41                	add    $0x41,%al
   126d7:	0b 43 0e             	or     0xe(%ebx),%eax
   126da:	2c 41                	sub    $0x41,%al
   126dc:	0e                   	push   %cs
   126dd:	30 48 0e             	xor    %cl,0xe(%eax)
   126e0:	20 4a 0e             	and    %cl,0xe(%edx)
   126e3:	2c 41                	sub    $0x41,%al
   126e5:	0e                   	push   %cs
   126e6:	30 48 0e             	xor    %cl,0xe(%eax)
   126e9:	20 4a 0e             	and    %cl,0xe(%edx)
   126ec:	2c 41                	sub    $0x41,%al
   126ee:	0e                   	push   %cs
   126ef:	30 48 0e             	xor    %cl,0xe(%eax)
   126f2:	20 4a 0e             	and    %cl,0xe(%edx)
   126f5:	24 48                	and    $0x48,%al
   126f7:	0e                   	push   %cs
   126f8:	28 45 0e             	sub    %al,0xe(%ebp)
   126fb:	2c 45                	sub    $0x45,%al
   126fd:	0e                   	push   %cs
   126fe:	30 58 0e             	xor    %bl,0xe(%eax)
   12701:	20 4d 0e             	and    %cl,0xe(%ebp)
   12704:	2c 41                	sub    $0x41,%al
   12706:	0e                   	push   %cs
   12707:	30 58 0e             	xor    %bl,0xe(%eax)
   1270a:	20 4c 0e 24          	and    %cl,0x24(%esi,%ecx,1)
   1270e:	45                   	inc    %ebp
   1270f:	0e                   	push   %cs
   12710:	28 45 0e             	sub    %al,0xe(%ebp)
   12713:	2c 45                	sub    $0x45,%al
   12715:	0e                   	push   %cs
   12716:	30 4c 0e 20          	xor    %cl,0x20(%esi,%ecx,1)
   1271a:	00 00                	add    %al,(%eax)
   1271c:	94                   	xchg   %eax,%esp
   1271d:	00 00                	add    %al,(%eax)
   1271f:	00 58 05             	add    %bl,0x5(%eax)
   12722:	00 00                	add    %al,(%eax)
   12724:	5e                   	pop    %esi
   12725:	b7 ff                	mov    $0xff,%bh
   12727:	ff 00                	incl   (%eax)
   12729:	02 00                	add    (%eax),%al
   1272b:	00 00                	add    %al,(%eax)
   1272d:	41                   	inc    %ecx
   1272e:	0e                   	push   %cs
   1272f:	08 87 02 41 0e 0c    	or     %al,0xc0e4102(%edi)
   12735:	86 03                	xchg   %al,(%ebx)
   12737:	41                   	inc    %ecx
   12738:	0e                   	push   %cs
   12739:	10 83 04 43 0e 2c    	adc    %al,0x2c0e4304(%ebx)
   1273f:	54                   	push   %esp
   12740:	0e                   	push   %cs
   12741:	30 48 0e             	xor    %cl,0xe(%eax)
   12744:	20 02                	and    %al,(%edx)
   12746:	64 0e                	fs push %cs
   12748:	2c 45                	sub    $0x45,%al
   1274a:	0e                   	push   %cs
   1274b:	30 50 0e             	xor    %dl,0xe(%eax)
   1274e:	20 4b 0e             	and    %cl,0xe(%ebx)
   12751:	2c 45                	sub    $0x45,%al
   12753:	0e                   	push   %cs
   12754:	30 52 0e             	xor    %dl,0xe(%edx)
   12757:	20 59 0e             	and    %bl,0xe(%ecx)
   1275a:	2c 41                	sub    $0x41,%al
   1275c:	0e                   	push   %cs
   1275d:	30 7f 0e             	xor    %bh,0xe(%edi)
   12760:	20 59 0a             	and    %bl,0xa(%ecx)
   12763:	0e                   	push   %cs
   12764:	10 41 c3             	adc    %al,-0x3d(%ecx)
   12767:	0e                   	push   %cs
   12768:	0c 41                	or     $0x41,%al
   1276a:	c6                   	(bad)  
   1276b:	0e                   	push   %cs
   1276c:	08 41 c7             	or     %al,-0x39(%ecx)
   1276f:	0e                   	push   %cs
   12770:	04 41                	add    $0x41,%al
   12772:	0b 43 0e             	or     0xe(%ebx),%eax
   12775:	2c 41                	sub    $0x41,%al
   12777:	0e                   	push   %cs
   12778:	30 48 0e             	xor    %cl,0xe(%eax)
   1277b:	20 4a 0e             	and    %cl,0xe(%edx)
   1277e:	2c 41                	sub    $0x41,%al
   12780:	0e                   	push   %cs
   12781:	30 48 0e             	xor    %cl,0xe(%eax)
   12784:	20 4a 0e             	and    %cl,0xe(%edx)
   12787:	2c 41                	sub    $0x41,%al
   12789:	0e                   	push   %cs
   1278a:	30 50 0e             	xor    %dl,0xe(%eax)
   1278d:	20 4a 0e             	and    %cl,0xe(%edx)
   12790:	2c 41                	sub    $0x41,%al
   12792:	0e                   	push   %cs
   12793:	30 50 0e             	xor    %dl,0xe(%eax)
   12796:	20 4a 0e             	and    %cl,0xe(%edx)
   12799:	2c 41                	sub    $0x41,%al
   1279b:	0e                   	push   %cs
   1279c:	30 50 0e             	xor    %dl,0xe(%eax)
   1279f:	20 4d 0e             	and    %cl,0xe(%ebp)
   127a2:	2c 41                	sub    $0x41,%al
   127a4:	0e                   	push   %cs
   127a5:	30 58 0e             	xor    %bl,0xe(%eax)
   127a8:	20 4d 0e             	and    %cl,0xe(%ebp)
   127ab:	2c 41                	sub    $0x41,%al
   127ad:	0e                   	push   %cs
   127ae:	30 50 0e             	xor    %dl,0xe(%eax)
   127b1:	20 00                	and    %al,(%eax)
   127b3:	00 14 00             	add    %dl,(%eax,%eax,1)
   127b6:	00 00                	add    %al,(%eax)
   127b8:	00 00                	add    %al,(%eax)
   127ba:	00 00                	add    %al,(%eax)
   127bc:	01 7a 52             	add    %edi,0x52(%edx)
   127bf:	00 01                	add    %al,(%ecx)
   127c1:	7c 08                	jl     0x127cb
   127c3:	01 1b                	add    %ebx,(%ebx)
   127c5:	0c 04                	or     $0x4,%al
   127c7:	04 88                	add    $0x88,%al
   127c9:	01 00                	add    %eax,(%eax)
   127cb:	00 80 00 00 00 1c    	add    %al,0x1c000000(%eax)
   127d1:	00 00                	add    %al,(%eax)
   127d3:	00 ae b8 ff ff 28    	add    %ch,0x28ffffb8(%esi)
   127d9:	01 00                	add    %eax,(%eax)
   127db:	00 00                	add    %al,(%eax)
   127dd:	41                   	inc    %ecx
   127de:	0e                   	push   %cs
   127df:	08 85 02 41 0e 0c    	or     %al,0xc0e4102(%ebp)
   127e5:	87 03                	xchg   %eax,(%ebx)
   127e7:	41                   	inc    %ecx
   127e8:	0e                   	push   %cs
   127e9:	10 86 04 41 0e 14    	adc    %al,0x140e4104(%esi)
   127ef:	83 05 43 0e 20 77 0e 	addl   $0xe,0x77200e43
   127f6:	2c 45                	sub    $0x45,%al
   127f8:	0e                   	push   %cs
   127f9:	30 48 0e             	xor    %cl,0xe(%eax)
   127fc:	20 59 0e             	and    %bl,0xe(%ecx)
   127ff:	2c 45                	sub    $0x45,%al
   12801:	0e                   	push   %cs
   12802:	30 48 0e             	xor    %cl,0xe(%eax)
   12805:	20 43 0e             	and    %al,0xe(%ebx)
   12808:	28 41 0e             	sub    %al,0xe(%ecx)
   1280b:	2c 41                	sub    $0x41,%al
   1280d:	0e                   	push   %cs
   1280e:	30 48 0e             	xor    %cl,0xe(%eax)
   12811:	20 50 0e             	and    %dl,0xe(%eax)
   12814:	24 41                	and    $0x41,%al
   12816:	0e                   	push   %cs
   12817:	28 41 0e             	sub    %al,0xe(%ecx)
   1281a:	2c 45                	sub    $0x45,%al
   1281c:	0e                   	push   %cs
   1281d:	30 48 0e             	xor    %cl,0xe(%eax)
   12820:	20 54 0e 2c          	and    %dl,0x2c(%esi,%ecx,1)
   12824:	41                   	inc    %ecx
   12825:	0e                   	push   %cs
   12826:	30 48 0e             	xor    %cl,0xe(%eax)
   12829:	20 79 0a             	and    %bh,0xa(%ecx)
   1282c:	0e                   	push   %cs
   1282d:	14 41                	adc    $0x41,%al
   1282f:	c3                   	ret    
   12830:	0e                   	push   %cs
   12831:	10 41 c6             	adc    %al,-0x3a(%ecx)
   12834:	0e                   	push   %cs
   12835:	0c 41                	or     $0x41,%al
   12837:	c7                   	(bad)  
   12838:	0e                   	push   %cs
   12839:	08 41 c5             	or     %al,-0x3b(%ecx)
   1283c:	0e                   	push   %cs
   1283d:	04 41                	add    $0x41,%al
   1283f:	0b 4b 0e             	or     0xe(%ebx),%ecx
   12842:	24 49                	and    $0x49,%al
   12844:	0e                   	push   %cs
   12845:	28 41 0e             	sub    %al,0xe(%ecx)
   12848:	2c 45                	sub    $0x45,%al
   1284a:	0e                   	push   %cs
   1284b:	30 54 0e 20          	xor    %dl,0x20(%esi,%ecx,1)
   1284f:	00 74 00 00          	add    %dh,0x0(%eax,%eax,1)
   12853:	00 a0 00 00 00 52    	add    %ah,0x52000000(%eax)
   12859:	b9 ff ff 61 01       	mov    $0x161ffff,%ecx
   1285e:	00 00                	add    %al,(%eax)
   12860:	00 41 0e             	add    %al,0xe(%ecx)
   12863:	08 85 02 41 0e 0c    	or     %al,0xc0e4102(%ebp)
   12869:	87 03                	xchg   %eax,(%ebx)
   1286b:	41                   	inc    %ecx
   1286c:	0e                   	push   %cs
   1286d:	10 86 04 41 0e 14    	adc    %al,0x140e4104(%esi)
   12873:	83 05 43 0e 30 71 0e 	addl   $0xe,0x71300e43
   1287a:	3c 45                	cmp    $0x45,%al
   1287c:	0e                   	push   %cs
   1287d:	40                   	inc    %eax
   1287e:	48                   	dec    %eax
   1287f:	0e                   	push   %cs
   12880:	30 02                	xor    %al,(%edx)
   12882:	96                   	xchg   %eax,%esi
   12883:	0a 0e                	or     (%esi),%cl
   12885:	14 41                	adc    $0x41,%al
   12887:	c3                   	ret    
   12888:	0e                   	push   %cs
   12889:	10 41 c6             	adc    %al,-0x3a(%ecx)
   1288c:	0e                   	push   %cs
   1288d:	0c 41                	or     $0x41,%al
   1288f:	c7                   	(bad)  
   12890:	0e                   	push   %cs
   12891:	08 41 c5             	or     %al,-0x3b(%ecx)
   12894:	0e                   	push   %cs
   12895:	04 41                	add    $0x41,%al
   12897:	0b 43 0e             	or     0xe(%ebx),%eax
   1289a:	3c 45                	cmp    $0x45,%al
   1289c:	0e                   	push   %cs
   1289d:	40                   	inc    %eax
   1289e:	48                   	dec    %eax
   1289f:	0e                   	push   %cs
   128a0:	30 45 0e             	xor    %al,0xe(%ebp)
   128a3:	38 41 0e             	cmp    %al,0xe(%ecx)
   128a6:	3c 44                	cmp    $0x44,%al
   128a8:	0e                   	push   %cs
   128a9:	40                   	inc    %eax
   128aa:	4a                   	dec    %edx
   128ab:	0e                   	push   %cs
   128ac:	30 64 0e 3c          	xor    %ah,0x3c(%esi,%ecx,1)
   128b0:	41                   	inc    %ecx
   128b1:	0e                   	push   %cs
   128b2:	40                   	inc    %eax
   128b3:	48                   	dec    %eax
   128b4:	0e                   	push   %cs
   128b5:	30 45 0e             	xor    %al,0xe(%ebp)
   128b8:	3c 45                	cmp    $0x45,%al
   128ba:	0e                   	push   %cs
   128bb:	40                   	inc    %eax
   128bc:	48                   	dec    %eax
   128bd:	0e                   	push   %cs
   128be:	30 45 0e             	xor    %al,0xe(%ebp)
   128c1:	3c 45                	cmp    $0x45,%al
   128c3:	0e                   	push   %cs
   128c4:	40                   	inc    %eax
   128c5:	48                   	dec    %eax
   128c6:	0e                   	push   %cs
   128c7:	30 64 00 00          	xor    %ah,0x0(%eax,%eax,1)
   128cb:	00 18                	add    %bl,(%eax)
   128cd:	01 00                	add    %eax,(%eax)
   128cf:	00 3b                	add    %bh,(%ebx)
   128d1:	ba ff ff 36 01       	mov    $0x136ffff,%edx
   128d6:	00 00                	add    %al,(%eax)
   128d8:	00 41 0e             	add    %al,0xe(%ecx)
   128db:	08 87 02 41 0e 0c    	or     %al,0xc0e4102(%edi)
   128e1:	83 03 43             	addl   $0x43,(%ebx)
   128e4:	0e                   	push   %cs
   128e5:	10 02                	adc    %al,(%edx)
   128e7:	50                   	push   %eax
   128e8:	0e                   	push   %cs
   128e9:	1c 45                	sbb    $0x45,%al
   128eb:	0e                   	push   %cs
   128ec:	20 48 0e             	and    %cl,0xe(%eax)
   128ef:	10 54 0e 18          	adc    %dl,0x18(%esi,%ecx,1)
   128f3:	44                   	inc    %esp
   128f4:	0e                   	push   %cs
   128f5:	1c 45                	sbb    $0x45,%al
   128f7:	0e                   	push   %cs
   128f8:	20 54 0e 10          	and    %dl,0x10(%esi,%ecx,1)
   128fc:	45                   	inc    %ebp
   128fd:	0e                   	push   %cs
   128fe:	1c 45                	sbb    $0x45,%al
   12900:	0e                   	push   %cs
   12901:	20 48 0e             	and    %cl,0xe(%eax)
   12904:	10 57 0e             	adc    %dl,0xe(%edi)
   12907:	1c 45                	sbb    $0x45,%al
   12909:	0e                   	push   %cs
   1290a:	20 48 0e             	and    %cl,0xe(%eax)
   1290d:	10 7f 0a             	adc    %bh,0xa(%edi)
   12910:	0e                   	push   %cs
   12911:	0c 41                	or     $0x41,%al
   12913:	c3                   	ret    
   12914:	0e                   	push   %cs
   12915:	08 41 c7             	or     %al,-0x39(%ecx)
   12918:	0e                   	push   %cs
   12919:	04 41                	add    $0x41,%al
   1291b:	0b 4a 0e             	or     0xe(%edx),%ecx
   1291e:	1c 45                	sbb    $0x45,%al
   12920:	0e                   	push   %cs
   12921:	20 48 0e             	and    %cl,0xe(%eax)
   12924:	10 45 0e             	adc    %al,0xe(%ebp)
   12927:	1c 45                	sbb    $0x45,%al
   12929:	0e                   	push   %cs
   1292a:	20 48 0e             	and    %cl,0xe(%eax)
   1292d:	10 00                	adc    %al,(%eax)
   1292f:	00 58 00             	add    %bl,0x0(%eax)
   12932:	00 00                	add    %al,(%eax)
   12934:	80 01 00             	addb   $0x0,(%ecx)
   12937:	00 09                	add    %cl,(%ecx)
   12939:	bb ff ff 62 01       	mov    $0x162ffff,%ebx
   1293e:	00 00                	add    %al,(%eax)
   12940:	00 41 0e             	add    %al,0xe(%ecx)
   12943:	08 85 02 41 0e 0c    	or     %al,0xc0e4102(%ebp)
   12949:	87 03                	xchg   %eax,(%ebx)
   1294b:	41                   	inc    %ecx
   1294c:	0e                   	push   %cs
   1294d:	10 86 04 41 0e 14    	adc    %al,0x140e4104(%esi)
   12953:	83 05 43 0e 30 02 42 	addl   $0x42,0x2300e43
   1295a:	0e                   	push   %cs
   1295b:	3c 45                	cmp    $0x45,%al
   1295d:	0e                   	push   %cs
   1295e:	40                   	inc    %eax
   1295f:	48                   	dec    %eax
   12960:	0e                   	push   %cs
   12961:	30 02                	xor    %al,(%edx)
   12963:	d9 0a                	(bad)  (%edx)
   12965:	0e                   	push   %cs
   12966:	14 41                	adc    $0x41,%al
   12968:	c3                   	ret    
   12969:	0e                   	push   %cs
   1296a:	10 41 c6             	adc    %al,-0x3a(%ecx)
   1296d:	0e                   	push   %cs
   1296e:	0c 41                	or     $0x41,%al
   12970:	c7                   	(bad)  
   12971:	0e                   	push   %cs
   12972:	08 41 c5             	or     %al,-0x3b(%ecx)
   12975:	0e                   	push   %cs
   12976:	04 41                	add    $0x41,%al
   12978:	0b 43 0e             	or     0xe(%ebx),%eax
   1297b:	3c 44                	cmp    $0x44,%al
   1297d:	0e                   	push   %cs
   1297e:	40                   	inc    %eax
   1297f:	48                   	dec    %eax
   12980:	0e                   	push   %cs
   12981:	30 4d 0e             	xor    %cl,0xe(%ebp)
   12984:	3c 45                	cmp    $0x45,%al
   12986:	0e                   	push   %cs
   12987:	40                   	inc    %eax
   12988:	48                   	dec    %eax
   12989:	0e                   	push   %cs
   1298a:	30 00                	xor    %al,(%eax)
   1298c:	14 00                	adc    $0x0,%al
   1298e:	00 00                	add    %al,(%eax)
   12990:	00 00                	add    %al,(%eax)
   12992:	00 00                	add    %al,(%eax)
   12994:	01 7a 52             	add    %edi,0x52(%edx)
   12997:	00 01                	add    %al,(%ecx)
   12999:	7c 08                	jl     0x129a3
   1299b:	01 1b                	add    %ebx,(%ebx)
   1299d:	0c 04                	or     $0x4,%al
   1299f:	04 88                	add    $0x88,%al
   129a1:	01 00                	add    %eax,(%eax)
   129a3:	00 30                	add    %dh,(%eax)
   129a5:	00 00                	add    %al,(%eax)
   129a7:	00 1c 00             	add    %bl,(%eax,%eax,1)
   129aa:	00 00                	add    %al,(%eax)
   129ac:	f7 bb ff ff 71 00    	idivl  0x71ffff(%ebx)
   129b2:	00 00                	add    %al,(%eax)
   129b4:	00 46 0e             	add    %al,0xe(%esi)
   129b7:	08 86 02 41 0e 0c    	or     %al,0xc0e4102(%esi)
   129bd:	83 03 02             	addl   $0x2,(%ebx)
   129c0:	4d                   	dec    %ebp
   129c1:	0a c3                	or     %bl,%al
   129c3:	0e                   	push   %cs
   129c4:	08 41 c6             	or     %al,-0x3a(%ecx)
   129c7:	0e                   	push   %cs
   129c8:	04 41                	add    $0x41,%al
   129ca:	0b 47 0e             	or     0xe(%edi),%eax
   129cd:	04 c3                	add    $0xc3,%al
   129cf:	c6 46 0e 0c          	movb   $0xc,0xe(%esi)
   129d3:	83 03 86             	addl   $0xffffff86,(%ebx)
   129d6:	02 00                	add    (%eax),%al
   129d8:	20 00                	and    %al,(%eax)
   129da:	00 00                	add    %al,(%eax)
   129dc:	50                   	push   %eax
   129dd:	00 00                	add    %al,(%eax)
   129df:	00 34 bc             	add    %dh,(%esp,%edi,4)
   129e2:	ff                   	(bad)  
   129e3:	ff 1e                	lcall  *(%esi)
   129e5:	00 00                	add    %al,(%eax)
   129e7:	00 00                	add    %al,(%eax)
   129e9:	41                   	inc    %ecx
   129ea:	0e                   	push   %cs
   129eb:	08 83 02 43 0e 1c    	or     %al,0x1c0e4302(%ebx)
   129f1:	45                   	inc    %ebp
   129f2:	0e                   	push   %cs
   129f3:	20 53 0e             	and    %dl,0xe(%ebx)
   129f6:	08 41 c3             	or     %al,-0x3d(%ecx)
   129f9:	0e                   	push   %cs
   129fa:	04 00                	add    $0x0,%al
   129fc:	10 00                	adc    %al,(%eax)
   129fe:	00 00                	add    %al,(%eax)
   12a00:	74 00                	je     0x12a02
   12a02:	00 00                	add    %al,(%eax)
   12a04:	2e bc ff ff 0f 00    	cs mov $0xfffff,%esp
   12a0a:	00 00                	add    %al,(%eax)
   12a0c:	00 00                	add    %al,(%eax)
   12a0e:	00 00                	add    %al,(%eax)
   12a10:	1c 00                	sbb    $0x0,%al
   12a12:	00 00                	add    %al,(%eax)
   12a14:	88 00                	mov    %al,(%eax)
   12a16:	00 00                	add    %al,(%eax)
   12a18:	29 bc ff ff b8 00 00 	sub    %edi,0xb8ff(%edi,%edi,8)
   12a1f:	00 00                	add    %al,(%eax)
   12a21:	41                   	inc    %ecx
   12a22:	0e                   	push   %cs
   12a23:	08 83 02 02 42 0a    	or     %al,0xa420202(%ebx)
   12a29:	c3                   	ret    
   12a2a:	0e                   	push   %cs
   12a2b:	04 41                	add    $0x41,%al
   12a2d:	0b 00                	or     (%eax),%eax
   12a2f:	00 14 00             	add    %dl,(%eax,%eax,1)
   12a32:	00 00                	add    %al,(%eax)
   12a34:	00 00                	add    %al,(%eax)
   12a36:	00 00                	add    %al,(%eax)
   12a38:	01 7a 52             	add    %edi,0x52(%edx)
   12a3b:	00 01                	add    %al,(%ecx)
   12a3d:	7c 08                	jl     0x12a47
   12a3f:	01 1b                	add    %ebx,(%ebx)
   12a41:	0c 04                	or     $0x4,%al
   12a43:	04 88                	add    $0x88,%al
   12a45:	01 00                	add    %eax,(%eax)
   12a47:	00 44 00 00          	add    %al,0x0(%eax,%eax,1)
   12a4b:	00 1c 00             	add    %bl,(%eax,%eax,1)
   12a4e:	00 00                	add    %al,(%eax)
   12a50:	a9 bc ff ff 8d       	test   $0x8dffffbc,%eax
   12a55:	00 00                	add    %al,(%eax)
   12a57:	00 00                	add    %al,(%eax)
   12a59:	41                   	inc    %ecx
   12a5a:	0e                   	push   %cs
   12a5b:	08 86 02 41 0e 0c    	or     %al,0xc0e4102(%esi)
   12a61:	83 03 43             	addl   $0x43,(%ebx)
   12a64:	0e                   	push   %cs
   12a65:	10 02                	adc    %al,(%edx)
   12a67:	4d                   	dec    %ebp
   12a68:	0e                   	push   %cs
   12a69:	14 44                	adc    $0x44,%al
   12a6b:	0e                   	push   %cs
   12a6c:	18 44 0e 1c          	sbb    %al,0x1c(%esi,%ecx,1)
   12a70:	41                   	inc    %ecx
   12a71:	0e                   	push   %cs
   12a72:	20 45 14             	and    %al,0x14(%ebp)
   12a75:	00 00                	add    %al,(%eax)
   12a77:	00 00                	add    %al,(%eax)
   12a79:	00 00                	add    %al,(%eax)
   12a7b:	00 01                	add    %al,(%ecx)
   12a7d:	7a 52                	jp     0x12ad1
   12a7f:	00 01                	add    %al,(%ecx)
   12a81:	7c 08                	jl     0x12a8b
   12a83:	01 1b                	add    %ebx,(%ebx)
   12a85:	0c 04                	or     $0x4,%al
   12a87:	04 88                	add    $0x88,%al
   12a89:	01 00                	add    %eax,(%eax)
   12a8b:	00 18                	add    %bl,(%eax)
   12a8d:	00 00                	add    %al,(%eax)
   12a8f:	00 14 00             	add    %dl,(%eax,%eax,1)
   12a92:	00 00                	add    %al,(%eax)
   12a94:	00 00                	add    %al,(%eax)
   12a96:	00 00                	add    %al,(%eax)
   12a98:	01 7a 52             	add    %edi,0x52(%edx)
   12a9b:	00 01                	add    %al,(%ecx)
   12a9d:	7c 08                	jl     0x12aa7
   12a9f:	01 1b                	add    %ebx,(%ebx)
   12aa1:	0c 04                	or     $0x4,%al
   12aa3:	04 88                	add    $0x88,%al
   12aa5:	01 00                	add    %eax,(%eax)
   12aa7:	00 24 00             	add    %ah,(%eax,%eax,1)
   12aaa:	00 00                	add    %al,(%eax)
   12aac:	1c 00                	sbb    $0x0,%al
   12aae:	00 00                	add    %al,(%eax)
   12ab0:	df c0                	ffreep %st(0)
   12ab2:	ff                   	(bad)  
   12ab3:	ff 2f                	ljmp   *(%edi)
   12ab5:	00 00                	add    %al,(%eax)
   12ab7:	00 14 00             	add    %dl,(%eax,%eax,1)
   12aba:	00 00                	add    %al,(%eax)
   12abc:	00 00                	add    %al,(%eax)
   12abe:	00 00                	add    %al,(%eax)
   12ac0:	01 7a 52             	add    %edi,0x52(%edx)
   12ac3:	00 01                	add    %al,(%ecx)
   12ac5:	7c 08                	jl     0x12acf
   12ac7:	01 1b                	add    %ebx,(%ebx)
   12ac9:	0c 04                	or     $0x4,%al
   12acb:	04 88                	add    $0x88,%al
   12acd:	01 00                	add    %eax,(%eax)
   12acf:	00 1c 00             	add    %bl,(%eax,%eax,1)
   12ad2:	00 00                	add    %al,(%eax)
   12ad4:	1c 00                	sbb    $0x0,%al
   12ad6:	00 00                	add    %al,(%eax)
   12ad8:	14 00                	adc    $0x0,%al
   12ada:	00 00                	add    %al,(%eax)
   12adc:	00 00                	add    %al,(%eax)
   12ade:	00 00                	add    %al,(%eax)
   12ae0:	01 7a 52             	add    %edi,0x52(%edx)
   12ae3:	00 01                	add    %al,(%ecx)
   12ae5:	7c 08                	jl     0x12aef
   12ae7:	01 1b                	add    %ebx,(%ebx)
   12ae9:	0c 04                	or     $0x4,%al
   12aeb:	04 88                	add    $0x88,%al
   12aed:	01 00                	add    %eax,(%eax)
   12aef:	00 24 00             	add    %ah,(%eax,%eax,1)
   12af2:	00 00                	add    %al,(%eax)
   12af4:	1c 00                	sbb    $0x0,%al
   12af6:	00 00                	add    %al,(%eax)
   12af8:	eb c0                	jmp    0x12aba
   12afa:	ff                   	(bad)  
   12afb:	ff 2f                	ljmp   *(%edi)
   12afd:	00 00                	add    %al,(%eax)
   12aff:	00 14 00             	add    %dl,(%eax,%eax,1)
   12b02:	00 00                	add    %al,(%eax)
   12b04:	00 00                	add    %al,(%eax)
   12b06:	00 00                	add    %al,(%eax)
   12b08:	01 7a 52             	add    %edi,0x52(%edx)
   12b0b:	00 01                	add    %al,(%ecx)
   12b0d:	7c 08                	jl     0x12b17
   12b0f:	01 1b                	add    %ebx,(%ebx)
   12b11:	0c 04                	or     $0x4,%al
   12b13:	04 88                	add    $0x88,%al
   12b15:	01 00                	add    %eax,(%eax)
   12b17:	00 1c 00             	add    %bl,(%eax,%eax,1)
   12b1a:	00 00                	add    %al,(%eax)
   12b1c:	1c 00                	sbb    $0x0,%al
   12b1e:	00 00                	add    %al,(%eax)
   12b20:	14 00                	adc    $0x0,%al
   12b22:	00 00                	add    %al,(%eax)
   12b24:	00 00                	add    %al,(%eax)
   12b26:	00 00                	add    %al,(%eax)
   12b28:	01 7a 52             	add    %edi,0x52(%edx)
   12b2b:	00 01                	add    %al,(%ecx)
   12b2d:	7c 08                	jl     0x12b37
   12b2f:	01 1b                	add    %ebx,(%ebx)
   12b31:	0c 04                	or     $0x4,%al
   12b33:	04 14                	add    $0x14,%al
   12b35:	00 00                	add    %al,(%eax)
   12b37:	00 00                	add    %al,(%eax)
   12b39:	00 00                	add    %al,(%eax)
   12b3b:	00 01                	add    %al,(%ecx)
   12b3d:	7a 52                	jp     0x12b91
   12b3f:	00 01                	add    %al,(%ecx)
   12b41:	7c 08                	jl     0x12b4b
   12b43:	01 1b                	add    %ebx,(%ebx)
   12b45:	0c 04                	or     $0x4,%al
   12b47:	04 88                	add    $0x88,%al
   12b49:	01 00                	add    %eax,(%eax)
   12b4b:	00 24 00             	add    %ah,(%eax,%eax,1)
   12b4e:	00 00                	add    %al,(%eax)
   12b50:	1c 00                	sbb    $0x0,%al
   12b52:	00 00                	add    %al,(%eax)
   12b54:	02 c1                	add    %cl,%al
   12b56:	ff                   	(bad)  
   12b57:	ff 2f                	ljmp   *(%edi)
   12b59:	00 00                	add    %al,(%eax)
   12b5b:	00 14 00             	add    %dl,(%eax,%eax,1)
   12b5e:	00 00                	add    %al,(%eax)
   12b60:	00 00                	add    %al,(%eax)
   12b62:	00 00                	add    %al,(%eax)
   12b64:	01 7a 52             	add    %edi,0x52(%edx)
   12b67:	00 01                	add    %al,(%ecx)
   12b69:	7c 08                	jl     0x12b73
   12b6b:	01 1b                	add    %ebx,(%ebx)
   12b6d:	0c 04                	or     $0x4,%al
   12b6f:	04 88                	add    $0x88,%al
   12b71:	01 00                	add    %eax,(%eax)
   12b73:	00 24 00             	add    %ah,(%eax,%eax,1)
   12b76:	00 00                	add    %al,(%eax)
   12b78:	1c 00                	sbb    $0x0,%al
   12b7a:	00 00                	add    %al,(%eax)
   12b7c:	09 c1                	or     %eax,%ecx
   12b7e:	ff                   	(bad)  
   12b7f:	ff 2f                	ljmp   *(%edi)
   12b81:	00 00                	add    %al,(%eax)
   12b83:	00 00                	add    %al,(%eax)
   12b85:	41                   	inc    %ecx
   12b86:	0e                   	push   %cs
   12b87:	08 86 02 41 0e 0c    	or     %al,0xc0e4102(%esi)
   12b8d:	83 03 5c             	addl   $0x5c,(%ebx)
   12b90:	0a c3                	or     %bl,%al
   12b92:	0e                   	push   %cs
   12b93:	08 41 c6             	or     %al,-0x3a(%ecx)
   12b96:	0e                   	push   %cs
   12b97:	04 41                	add    $0x41,%al
   12b99:	0b 00                	or     (%eax),%eax
   12b9b:	00 24 00             	add    %ah,(%eax,%eax,1)
   12b9e:	00 00                	add    %al,(%eax)
   12ba0:	44                   	inc    %esp
   12ba1:	00 00                	add    %al,(%eax)
   12ba3:	00 10                	add    %dl,(%eax)
   12ba5:	c1 ff ff             	sar    $0xff,%edi
   12ba8:	31 00                	xor    %eax,(%eax)
	...
   12bbe:	00 00                	add    %al,(%eax)
   12bc0:	1d f1 00 00 00       	sbb    $0xf1,%eax
   12bc5:	00 00                	add    %al,(%eax)
   12bc7:	00 2c f1             	add    %ch,(%ecx,%esi,8)
	...
   12bde:	00 00                	add    %al,(%eax)
   12be0:	e0 95                	loopne 0x12b77
   12be2:	01 00                	add    %eax,(%eax)
   12be4:	10 00                	adc    %al,(%eax)
	...
   12bfe:	00 00                	add    %al,(%eax)
   12c00:	20 2d 01 00 00 00    	and    %ch,0x1
	...
   12cfe:	00 00                	add    %al,(%eax)
   12d00:	20 2d 01 00 00 00    	and    %ch,0x1
	...
   12d22:	00 00                	add    %al,(%eax)
   12d24:	0f 00 00             	sldt   (%eax)
   12d27:	00 0f                	add    %cl,(%edi)
	...
   12dc9:	00 00                	add    %al,(%eax)
   12dcb:	00 ff                	add    %bh,%bh
   12dcd:	ff                   	(bad)  
   12dce:	ff                   	(bad)  
   12dcf:	ff 00                	incl   (%eax)
	...
   12e01:	00 00                	add    %al,(%eax)
   12e03:	00 ff                	add    %bh,%bh
   12e05:	ff                   	(bad)  
   12e06:	ff                   	(bad)  
   12e07:	ff 5b 00             	lcall  *0x0(%ebx)
	...
   12e6e:	00 00                	add    %al,(%eax)
   12e70:	9f                   	lahf   
   12e71:	00 00                	add    %al,(%eax)
   12e73:	00 00                	add    %al,(%eax)
   12e75:	fa                   	cli    
   12e76:	c0 00 9f             	rolb   $0x9f,(%eax)
   12e79:	00 00                	add    %al,(%eax)
   12e7b:	00 00                	add    %al,(%eax)
   12e7d:	f2 c0 00 00          	repnz rolb $0x0,(%eax)
   12e81:	00 00                	add    %al,(%eax)
   12e83:	00 20                	add    %ah,(%eax)
   12e85:	3d 01 00 10 00       	cmp    $0x100001,%eax
	...
   12ec6:	00 00                	add    %al,(%eax)
   12ec8:	17                   	pop    %ss
   12ec9:	00 00                	add    %al,(%eax)
   12ecb:	00 17                	add    %dl,(%edi)
   12ecd:	00 00                	add    %al,(%eax)
   12ecf:	00 17                	add    %dl,(%edi)
   12ed1:	00 00                	add    %al,(%eax)
   12ed3:	00 17                	add    %dl,(%edi)
   12ed5:	00 00                	add    %al,(%eax)
   12ed7:	00 17                	add    %dl,(%edi)
   12ed9:	00 00                	add    %al,(%eax)
   12edb:	00 17                	add    %dl,(%edi)
   12edd:	00 00                	add    %al,(%eax)
   12edf:	00 28                	add    %ch,(%eax)
   12ee1:	00 00                	add    %al,(%eax)
   12ee3:	00 00                	add    %al,(%eax)
   12ee5:	00 00                	add    %al,(%eax)
   12ee7:	80 00 00             	addb   $0x0,(%eax)
	...
   13d1e:	00 00                	add    %al,(%eax)
   13d20:	9d                   	popf   
   13d21:	8e 00                	mov    (%eax),%es
   13d23:	00 12                	add    %dl,(%edx)
   13d25:	98                   	cwtl   
   13d26:	00 00                	add    %al,(%eax)
   13d28:	f4                   	hlt    
   13d29:	59                   	pop    %ecx
   13d2a:	00 00                	add    %al,(%eax)
   13d2c:	d7                   	xlat   %ds:(%ebx)
   13d2d:	a5                   	movsl  %ds:(%esi),%es:(%edi)
   13d2e:	00 00                	add    %al,(%eax)
   13d30:	1f                   	pop    %ds
   13d31:	a7                   	cmpsl  %es:(%edi),%ds:(%esi)
   13d32:	00 00                	add    %al,(%eax)
   13d34:	b0 a2                	mov    $0xa2,%al
   13d36:	00 00                	add    %al,(%eax)
   13d38:	99                   	cltd   
   13d39:	a4                   	movsb  %ds:(%esi),%es:(%edi)
   13d3a:	00 00                	add    %al,(%eax)
   13d3c:	29 98 00 00 80 a4    	sub    %ebx,-0x5b800000(%eax)
   13d42:	00 00                	add    %al,(%eax)
   13d44:	82 de 00             	sbb    $0x0,%dh
   13d47:	00 a6 dc 00 00 e6    	add    %ah,-0x19ffff24(%esi)
   13d4d:	59                   	pop    %ecx
   13d4e:	00 00                	add    %al,(%eax)
   13d50:	d5 a0                	aad    $0xa0
   13d52:	00 00                	add    %al,(%eax)
   13d54:	07                   	pop    %es
   13d55:	91                   	xchg   %eax,%ecx
   13d56:	00 00                	add    %al,(%eax)
   13d58:	53                   	push   %ebx
   13d59:	90                   	nop
   13d5a:	00 00                	add    %al,(%eax)
   13d5c:	a5                   	movsl  %ds:(%esi),%es:(%edi)
   13d5d:	a1 00 00 41 a2       	mov    0xa2410000,%eax
   13d62:	00 00                	add    %al,(%eax)
   13d64:	59                   	pop    %ecx
   13d65:	90                   	nop
   13d66:	00 00                	add    %al,(%eax)
   13d68:	69 c0 00 00 22 a5    	imul   $0xa5220000,%eax,%eax
   13d6e:	00 00                	add    %al,(%eax)
   13d70:	65 54                	gs push %esp
   13d72:	00 00                	add    %al,(%eax)
   13d74:	5f                   	pop    %edi
   13d75:	90                   	nop
   13d76:	00 00                	add    %al,(%eax)
   13d78:	65 90                	gs nop
   13d7a:	00 00                	add    %al,(%eax)
   13d7c:	4a                   	dec    %edx
   13d7d:	91                   	xchg   %eax,%ecx
   13d7e:	00 00                	add    %al,(%eax)
   13d80:	7d 54                	jge    0x13dd6
   13d82:	00 00                	add    %al,(%eax)
   13d84:	a3 91 00 00 71       	mov    %eax,0x71000091
   13d89:	90                   	nop
   13d8a:	00 00                	add    %al,(%eax)
   13d8c:	3a 54 00 00          	cmp    0x0(%eax,%eax,1),%dl
   13d90:	a6                   	cmpsb  %es:(%edi),%ds:(%esi)
   13d91:	c0 00 00             	rolb   $0x0,(%eax)
   13d94:	44                   	inc    %esp
   13d95:	56                   	push   %esi
   13d96:	00 00                	add    %al,(%eax)
   13d98:	c7                   	(bad)  
   13d99:	9f                   	lahf   
   13d9a:	00 00                	add    %al,(%eax)
   13d9c:	77 90                	ja     0x13d2e
   13d9e:	00 00                	add    %al,(%eax)
   13da0:	7d 90                	jge    0x13d32
   13da2:	00 00                	add    %al,(%eax)
   13da4:	34 a0                	xor    $0xa0,%al
   13da6:	00 00                	add    %al,(%eax)
   13da8:	b1 54                	mov    $0x54,%cl
   13daa:	00 00                	add    %al,(%eax)
   13dac:	4d                   	dec    %ebp
   13dad:	90                   	nop
   13dae:	00 00                	add    %al,(%eax)
   13db0:	3a b1 00 00 4b 96    	cmp    -0x69b50000(%ecx),%dh
   13db6:	00 00                	add    %al,(%eax)
   13db8:	83 90 00 00 f1 d5 00 	adcl   $0x0,-0x2a0f0000(%eax)
   13dbf:	00 d9                	add    %bl,%cl
   13dc1:	d8 00                	fadds  (%eax)
   13dc3:	00 32                	add    %dh,(%edx)
   13dc5:	e6 00                	out    %al,$0x0
   13dc7:	00 12                	add    %dl,(%edx)
   13dc9:	cc                   	int3   
   13dca:	00 00                	add    %al,(%eax)
   13dcc:	f0 91                	lock xchg %eax,%ecx
   13dce:	00 00                	add    %al,(%eax)
   13dd0:	89 90 00 00 47 92    	mov    %edx,-0x6db90000(%eax)
   13dd6:	00 00                	add    %al,(%eax)
   13dd8:	8f                   	(bad)  
   13dd9:	90                   	nop
   13dda:	00 00                	add    %al,(%eax)
   13ddc:	97                   	xchg   %eax,%edi
   13ddd:	54                   	push   %esp
   13dde:	00 00                	add    %al,(%eax)
   13de0:	cb                   	lret   
   13de1:	54                   	push   %esp
   13de2:	00 00                	add    %al,(%eax)
   13de4:	8a 54 00 00          	mov    0x0(%eax,%eax,1),%dl
   13de8:	a4                   	movsb  %ds:(%esi),%es:(%edi)
   13de9:	54                   	push   %esp
   13dea:	00 00                	add    %al,(%eax)
   13dec:	e9 90 00 00 ef       	jmp    0xef013e81
   13df1:	90                   	nop
   13df2:	00 00                	add    %al,(%eax)
   13df4:	f5                   	cmc    
   13df5:	90                   	nop
   13df6:	00 00                	add    %al,(%eax)
   13df8:	f9                   	stc    
   13df9:	e6 00                	out    %al,$0x0
   13dfb:	00 41 e6             	add    %al,-0x1a(%ecx)
   13dfe:	00 00                	add    %al,(%eax)
   13e00:	fb                   	sti    
   13e01:	90                   	nop
   13e02:	00 00                	add    %al,(%eax)
   13e04:	75 92                	jne    0x13d98
   13e06:	00 00                	add    %al,(%eax)
   13e08:	01 91 00 00 56 93    	add    %edx,-0x6caa0000(%ecx)
   13e0e:	00 00                	add    %al,(%eax)
   13e10:	96                   	xchg   %eax,%esi
   13e11:	93                   	xchg   %eax,%ebx
   13e12:	00 00                	add    %al,(%eax)
   13e14:	3d a1 00 00 6b       	cmp    $0x6b0000a1,%eax
   13e19:	90                   	nop
   13e1a:	00 00                	add    %al,(%eax)
   13e1c:	14 e6                	adc    $0xe6,%al
   13e1e:	00 00                	add    %al,(%eax)
   13e20:	71 54                	jno    0x13e76
   13e22:	00 00                	add    %al,(%eax)
   13e24:	f4                   	hlt    
   13e25:	92                   	xchg   %eax,%edx
   13e26:	00 00                	add    %al,(%eax)
   13e28:	00 93 00 00 00 00    	add    %dl,0x0(%ebx)
	...
   13e3e:	00 00                	add    %al,(%eax)
   13e40:	90                   	nop
   13e41:	3e 01 00             	add    %eax,%ds:(%eax)
   13e44:	a0 42 01 00 f0       	mov    0xf0000142,%al
   13e49:	4a                   	dec    %edx
   13e4a:	01 00                	add    %eax,(%eax)
   13e4c:	00 4f 01             	add    %cl,0x1(%edi)
   13e4f:	00 50 57             	add    %dl,0x57(%eax)
   13e52:	01 00                	add    %eax,(%eax)
   13e54:	60                   	pusha  
   13e55:	5b                   	pop    %ebx
   13e56:	01 00                	add    %eax,(%eax)
	...
   13e64:	05 00 00 00 00       	add    $0x0,%eax
   13e69:	00 00                	add    %al,(%eax)
   13e6b:	00 0a                	add    %cl,(%edx)
   13e6d:	0a 00                	or     (%eax),%al
   13e6f:	00 00                	add    %al,(%eax)
   13e71:	03 1c 7f             	add    (%edi,%edi,2),%ebx
   13e74:	15 04 00 01 00       	adc    $0x10004,%eax
   13e79:	11 13                	adc    %edx,(%ebx)
   13e7b:	19 00                	sbb    %eax,(%eax)
   13e7d:	12 0f                	adc    (%edi),%cl
   13e7f:	17                   	pop    %ss
   13e80:	16                   	push   %ss
	...
   13e89:	00 00                	add    %al,(%eax)
   13e8b:	00 87 74 00 00 00    	add    %al,0x74(%edi)
	...
   14ac1:	00 00                	add    %al,(%eax)
   14ac3:	00 21                	add    %ah,(%ecx)
   14ac5:	00 00                	add    %al,(%eax)
   14ac7:	00 3b                	add    %bh,(%ebx)
	...
   14ad1:	03 1c 7f             	add    (%edi,%edi,2),%ebx
   14ad4:	15 04 00 01 00       	adc    $0x10004,%eax
   14ad9:	11 13                	adc    %edx,(%ebx)
   14adb:	19 00                	sbb    %eax,(%eax)
   14add:	12 0f                	adc    (%edi),%cl
   14adf:	17                   	pop    %ss
   14ae0:	16                   	push   %ss
	...
   14ae9:	00 00                	add    %al,(%eax)
   14aeb:	00 f9                	add    %bh,%cl
   14aed:	99                   	cltd   
   14aee:	00 00                	add    %al,(%eax)
   14af0:	f8                   	clc    
   14af1:	03 00                	add    (%eax),%eax
	...
   14eff:	00 f8                	add    %bh,%al
   14f01:	03 00                	add    (%eax),%eax
	...
   15723:	00 21                	add    %ah,(%ecx)
   15725:	00 00                	add    %al,(%eax)
   15727:	00 3b                	add    %bh,(%ebx)
	...
   15731:	03 1c 7f             	add    (%edi,%edi,2),%ebx
   15734:	15 04 00 01 00       	adc    $0x10004,%eax
   15739:	11 13                	adc    %edx,(%ebx)
   1573b:	19 00                	sbb    %eax,(%eax)
   1573d:	12 0f                	adc    (%edi),%cl
   1573f:	17                   	pop    %ss
   15740:	16                   	push   %ss
	...
   15749:	00 00                	add    %al,(%eax)
   1574b:	00 f9                	add    %bh,%cl
   1574d:	99                   	cltd   
   1574e:	00 00                	add    %al,(%eax)
   15750:	f8                   	clc    
   15751:	02 00                	add    (%eax),%al
	...
   15b5f:	00 f8                	add    %bh,%al
   15b61:	02 00                	add    (%eax),%al
	...
   1637f:	00 07                	add    %al,(%edi)
   16381:	00 00                	add    %al,(%eax)
   16383:	00 19                	add    %bl,(%ecx)
   16385:	00 00                	add    %al,(%eax)
   16387:	00 a0 8f 0b 00 00    	add    %ah,0xb8f(%eax)
   1638d:	80 0b 00             	orb    $0x0,(%ebx)
   16390:	01 00                	add    %eax,(%eax)
	...
   1639e:	00 00                	add    %al,(%eax)
   163a0:	6c                   	insb   (%dx),%es:(%edi)
   163a1:	69 6e 75 78 20 2e 30 	imul   $0x302e2078,0x75(%esi),%ebp
   163a8:	00 6e 6f             	add    %ch,0x6f(%esi)
   163ab:	64 65 6e             	fs outsb %gs:(%esi),(%dx)
   163ae:	61                   	popa   
   163af:	6d                   	insl   (%dx),%es:(%edi)
   163b0:	65 00 72 65          	add    %dh,%gs:0x65(%edx)
   163b4:	6c                   	insb   (%dx),%es:(%edi)
   163b5:	65 61                	gs popa 
   163b7:	73 65                	jae    0x1641e
   163b9:	20 00                	and    %al,(%eax)
   163bb:	76 65                	jbe    0x16422
   163bd:	72 73                	jb     0x16432
   163bf:	69 6f 6e 20 00 6d 61 	imul   $0x616d0020,0x6e(%edi),%ebp
   163c6:	63 68 69             	arpl   %bp,0x69(%eax)
   163c9:	6e                   	outsb  %ds:(%esi),(%dx)
   163ca:	65 20 00             	and    %al,%gs:(%eax)
   163cd:	00 00                	add    %al,(%eax)
   163cf:	00 08                	add    %cl,(%eax)
   163d1:	a2 01 00 00 00       	mov    %al,0x1
	...
   163de:	00 00                	add    %al,(%eax)
   163e0:	00 08                	add    %cl,(%eax)
   163e2:	08 08                	or     %cl,(%eax)
   163e4:	08 08                	or     %cl,(%eax)
   163e6:	08 08                	or     %cl,(%eax)
   163e8:	08 08                	or     %cl,(%eax)
   163ea:	28 28                	sub    %ch,(%eax)
   163ec:	28 28                	sub    %ch,(%eax)
   163ee:	28 08                	sub    %cl,(%eax)
   163f0:	08 08                	or     %cl,(%eax)
   163f2:	08 08                	or     %cl,(%eax)
   163f4:	08 08                	or     %cl,(%eax)
   163f6:	08 08                	or     %cl,(%eax)
   163f8:	08 08                	or     %cl,(%eax)
   163fa:	08 08                	or     %cl,(%eax)
   163fc:	08 08                	or     %cl,(%eax)
   163fe:	08 08                	or     %cl,(%eax)
   16400:	08 a0 10 10 10 10    	or     %ah,0x10101010(%eax)
   16406:	10 10                	adc    %dl,(%eax)
   16408:	10 10                	adc    %dl,(%eax)
   1640a:	10 10                	adc    %dl,(%eax)
   1640c:	10 10                	adc    %dl,(%eax)
   1640e:	10 10                	adc    %dl,(%eax)
   16410:	10 04 04             	adc    %al,(%esp,%eax,1)
   16413:	04 04                	add    $0x4,%al
   16415:	04 04                	add    $0x4,%al
   16417:	04 04                	add    $0x4,%al
   16419:	04 04                	add    $0x4,%al
   1641b:	10 10                	adc    %dl,(%eax)
   1641d:	10 10                	adc    %dl,(%eax)
   1641f:	10 10                	adc    %dl,(%eax)
   16421:	10 41 41             	adc    %al,0x41(%ecx)
   16424:	41                   	inc    %ecx
   16425:	41                   	inc    %ecx
   16426:	41                   	inc    %ecx
   16427:	41                   	inc    %ecx
   16428:	01 01                	add    %eax,(%ecx)
   1642a:	01 01                	add    %eax,(%ecx)
   1642c:	01 01                	add    %eax,(%ecx)
   1642e:	01 01                	add    %eax,(%ecx)
   16430:	01 01                	add    %eax,(%ecx)
   16432:	01 01                	add    %eax,(%ecx)
   16434:	01 01                	add    %eax,(%ecx)
   16436:	01 01                	add    %eax,(%ecx)
   16438:	01 01                	add    %eax,(%ecx)
   1643a:	01 01                	add    %eax,(%ecx)
   1643c:	10 10                	adc    %dl,(%eax)
   1643e:	10 10                	adc    %dl,(%eax)
   16440:	10 10                	adc    %dl,(%eax)
   16442:	42                   	inc    %edx
   16443:	42                   	inc    %edx
   16444:	42                   	inc    %edx
   16445:	42                   	inc    %edx
   16446:	42                   	inc    %edx
   16447:	42                   	inc    %edx
   16448:	02 02                	add    (%edx),%al
   1644a:	02 02                	add    (%edx),%al
   1644c:	02 02                	add    (%edx),%al
   1644e:	02 02                	add    (%edx),%al
   16450:	02 02                	add    (%edx),%al
   16452:	02 02                	add    (%edx),%al
   16454:	02 02                	add    (%edx),%al
   16456:	02 02                	add    (%edx),%al
   16458:	02 02                	add    (%edx),%al
   1645a:	02 02                	add    (%edx),%al
   1645c:	10 10                	adc    %dl,(%eax)
   1645e:	10 10                	adc    %dl,(%eax)
   16460:	08 00                	or     %al,(%eax)
	...
